ARM GAS  C:\Users\Zachary\AppData\Local\Temp\cclO2UTW.s 			page 1


   1              		.cpu cortex-m0
   2              		.fpu softvfp
   3              		.eabi_attribute 20, 1
   4              		.eabi_attribute 21, 1
   5              		.eabi_attribute 23, 3
   6              		.eabi_attribute 24, 1
   7              		.eabi_attribute 25, 1
   8              		.eabi_attribute 26, 1
   9              		.eabi_attribute 30, 6
  10              		.eabi_attribute 34, 0
  11              		.eabi_attribute 18, 4
  12              		.code	16
  13              		.file	"debug.c"
  14              		.text
  15              	.Ltext0:
  16              		.cfi_sections	.debug_frame
  17              		.section	.text._write,"ax",%progbits
  18              		.align	2
  19              		.global	_write
  20              		.code	16
  21              		.thumb_func
  22              		.type	_write, %function
  23              	_write:
  24              	.LFB35:
  25              		.file 1 ".\\debug.c"
   1:.\debug.c     **** /*******************************************************************************
   2:.\debug.c     **** * File Name: debug.c
   3:.\debug.c     **** *
   4:.\debug.c     **** * Version: 1.0
   5:.\debug.c     **** *
   6:.\debug.c     **** * Description:
   7:.\debug.c     **** *  This file contains functions for printf functionality.
   8:.\debug.c     **** *
   9:.\debug.c     **** * Hardware Dependency:
  10:.\debug.c     **** *  CY8CKIT-042 BLE
  11:.\debug.c     **** * 
  12:.\debug.c     **** ********************************************************************************
  13:.\debug.c     **** * Copyright 2015, Cypress Semiconductor Corporation.  All rights reserved.
  14:.\debug.c     **** * You may use this file only in accordance with the license, terms, conditions,
  15:.\debug.c     **** * disclaimers, and limitations in the end user license agreement accompanying
  16:.\debug.c     **** * the software package with which this file was provided.
  17:.\debug.c     **** *******************************************************************************/
  18:.\debug.c     **** 
  19:.\debug.c     **** 
  20:.\debug.c     **** #include <project.h>
  21:.\debug.c     **** #include <stdio.h>
  22:.\debug.c     **** 
  23:.\debug.c     **** 
  24:.\debug.c     **** #if defined(__ARMCC_VERSION)
  25:.\debug.c     ****     
  26:.\debug.c     **** /* For MDK/RVDS compiler revise fputc function for printf functionality */
  27:.\debug.c     **** struct __FILE 
  28:.\debug.c     **** {
  29:.\debug.c     ****     int handle;  
  30:.\debug.c     **** };
  31:.\debug.c     **** 
  32:.\debug.c     **** enum 
ARM GAS  C:\Users\Zachary\AppData\Local\Temp\cclO2UTW.s 			page 2


  33:.\debug.c     **** {
  34:.\debug.c     ****     STDIN_HANDLE,
  35:.\debug.c     ****     STDOUT_HANDLE,
  36:.\debug.c     ****     STDERR_HANDLE
  37:.\debug.c     **** };
  38:.\debug.c     **** 
  39:.\debug.c     **** FILE __stdin = {STDIN_HANDLE};
  40:.\debug.c     **** FILE __stdout = {STDOUT_HANDLE};
  41:.\debug.c     **** FILE __stderr = {STDERR_HANDLE};
  42:.\debug.c     **** 
  43:.\debug.c     **** int fputc(int ch, FILE *file) 
  44:.\debug.c     **** {
  45:.\debug.c     ****     int ret = EOF;
  46:.\debug.c     **** 
  47:.\debug.c     ****     switch( file->handle )
  48:.\debug.c     ****     {
  49:.\debug.c     ****         case STDOUT_HANDLE:
  50:.\debug.c     ****             UART_DEB_UartPutChar(ch);
  51:.\debug.c     ****             ret = ch ;
  52:.\debug.c     ****             break ;
  53:.\debug.c     **** 
  54:.\debug.c     ****         case STDERR_HANDLE:
  55:.\debug.c     ****             ret = ch ;
  56:.\debug.c     ****             break ;
  57:.\debug.c     **** 
  58:.\debug.c     ****         default:
  59:.\debug.c     ****             file = file;
  60:.\debug.c     ****             break ;
  61:.\debug.c     ****     }
  62:.\debug.c     ****     return ret ;
  63:.\debug.c     **** }
  64:.\debug.c     **** 
  65:.\debug.c     **** #elif defined (__ICCARM__)      /* IAR */
  66:.\debug.c     **** 
  67:.\debug.c     **** /* For IAR compiler revise __write() function for printf functionality */
  68:.\debug.c     **** size_t __write(int handle, const unsigned char * buffer, size_t size)
  69:.\debug.c     **** {
  70:.\debug.c     ****     size_t nChars = 0;
  71:.\debug.c     **** 
  72:.\debug.c     ****     if (buffer == 0)
  73:.\debug.c     ****     {
  74:.\debug.c     ****         /*
  75:.\debug.c     ****          * This means that we should flush internal buffers.  Since we
  76:.\debug.c     ****          * don't we just return.  (Remember, "handle" == -1 means that all
  77:.\debug.c     ****          * handles should be flushed.)
  78:.\debug.c     ****          */
  79:.\debug.c     ****         return (0);
  80:.\debug.c     ****     }
  81:.\debug.c     **** 
  82:.\debug.c     ****     for (/* Empty */; size != 0; --size)
  83:.\debug.c     ****     {
  84:.\debug.c     ****         UART_DEB_UartPutChar(*buffer++);
  85:.\debug.c     ****         ++nChars;
  86:.\debug.c     ****     }
  87:.\debug.c     **** 
  88:.\debug.c     ****     return (nChars);
  89:.\debug.c     **** }
ARM GAS  C:\Users\Zachary\AppData\Local\Temp\cclO2UTW.s 			page 3


  90:.\debug.c     **** 
  91:.\debug.c     **** #else  /* (__GNUC__)  GCC */
  92:.\debug.c     **** 
  93:.\debug.c     **** /* For GCC compiler revise _write() function for printf functionality */
  94:.\debug.c     **** int _write(int file, char *ptr, int len)
  95:.\debug.c     **** {
  26              		.loc 1 95 0
  27              		.cfi_startproc
  28 0000 80B5     		push	{r7, lr}
  29              		.cfi_def_cfa_offset 8
  30              		.cfi_offset 7, -8
  31              		.cfi_offset 14, -4
  32 0002 86B0     		sub	sp, sp, #24
  33              		.cfi_def_cfa_offset 32
  34 0004 00AF     		add	r7, sp, #0
  35              		.cfi_def_cfa_register 7
  36 0006 F860     		str	r0, [r7, #12]
  37 0008 B960     		str	r1, [r7, #8]
  38 000a 7A60     		str	r2, [r7, #4]
  96:.\debug.c     ****     int i;
  97:.\debug.c     ****     file = file;
  98:.\debug.c     ****     for (i = 0; i < len; i++)
  39              		.loc 1 98 0
  40 000c 0023     		mov	r3, #0
  41 000e 7B61     		str	r3, [r7, #20]
  42 0010 09E0     		b	.L2
  43              	.L3:
  99:.\debug.c     ****     {
 100:.\debug.c     ****         UART_DEB_UartPutChar(*ptr++);
  44              		.loc 1 100 0 discriminator 2
  45 0012 BB68     		ldr	r3, [r7, #8]
  46 0014 5A1C     		add	r2, r3, #1
  47 0016 BA60     		str	r2, [r7, #8]
  48 0018 1B78     		ldrb	r3, [r3]
  49 001a 181C     		mov	r0, r3
  50 001c FFF7FEFF 		bl	UART_DEB_SpiUartWriteTxData
  98:.\debug.c     ****     for (i = 0; i < len; i++)
  51              		.loc 1 98 0 discriminator 2
  52 0020 7B69     		ldr	r3, [r7, #20]
  53 0022 0133     		add	r3, r3, #1
  54 0024 7B61     		str	r3, [r7, #20]
  55              	.L2:
  98:.\debug.c     ****     for (i = 0; i < len; i++)
  56              		.loc 1 98 0 is_stmt 0 discriminator 1
  57 0026 7A69     		ldr	r2, [r7, #20]
  58 0028 7B68     		ldr	r3, [r7, #4]
  59 002a 9A42     		cmp	r2, r3
  60 002c F1DB     		blt	.L3
 101:.\debug.c     ****     }
 102:.\debug.c     ****     return len;
  61              		.loc 1 102 0 is_stmt 1
  62 002e 7B68     		ldr	r3, [r7, #4]
 103:.\debug.c     **** }
  63              		.loc 1 103 0
  64 0030 181C     		mov	r0, r3
  65 0032 BD46     		mov	sp, r7
  66 0034 06B0     		add	sp, sp, #24
ARM GAS  C:\Users\Zachary\AppData\Local\Temp\cclO2UTW.s 			page 4


  67              		@ sp needed
  68 0036 80BD     		pop	{r7, pc}
  69              		.cfi_endproc
  70              	.LFE35:
  71              		.size	_write, .-_write
  72              		.section	.rodata
  73              		.align	2
  74              	.LC0:
  75 0000 25322E32 		.ascii	"%2.2x \000"
  75      782000
  76 0007 00       		.align	2
  77              	.LC2:
  78 0008 0D00     		.ascii	"\015\000"
  79 000a 0000     		.section	.text.ShowValue,"ax",%progbits
  80              		.align	2
  81              		.global	ShowValue
  82              		.code	16
  83              		.thumb_func
  84              		.type	ShowValue, %function
  85              	ShowValue:
  86              	.LFB36:
 104:.\debug.c     **** 
 105:.\debug.c     **** 
 106:.\debug.c     **** #endif  /* (__ARMCC_VERSION) */   
 107:.\debug.c     **** 
 108:.\debug.c     **** 
 109:.\debug.c     **** void ShowValue(CYBLE_GATT_VALUE_T *value)
 110:.\debug.c     **** {
  87              		.loc 1 110 0
  88              		.cfi_startproc
  89 0000 80B5     		push	{r7, lr}
  90              		.cfi_def_cfa_offset 8
  91              		.cfi_offset 7, -8
  92              		.cfi_offset 14, -4
  93 0002 84B0     		sub	sp, sp, #16
  94              		.cfi_def_cfa_offset 24
  95 0004 00AF     		add	r7, sp, #0
  96              		.cfi_def_cfa_register 7
  97 0006 7860     		str	r0, [r7, #4]
 111:.\debug.c     ****     int16 i;
 112:.\debug.c     ****     
 113:.\debug.c     ****     for(i = 0; i < value->len; i++)
  98              		.loc 1 113 0
  99 0008 3B1C     		mov	r3, r7
 100 000a 0E33     		add	r3, r3, #14
 101 000c 0022     		mov	r2, #0
 102 000e 1A80     		strh	r2, [r3]
 103 0010 13E0     		b	.L6
 104              	.L7:
 114:.\debug.c     ****     {
 115:.\debug.c     ****         printf("%2.2x ", value->val[i]);
 105              		.loc 1 115 0 discriminator 2
 106 0012 7B68     		ldr	r3, [r7, #4]
 107 0014 1A68     		ldr	r2, [r3]
 108 0016 3B1C     		mov	r3, r7
 109 0018 0E33     		add	r3, r3, #14
 110 001a 0021     		mov	r1, #0
ARM GAS  C:\Users\Zachary\AppData\Local\Temp\cclO2UTW.s 			page 5


 111 001c 5B5E     		ldrsh	r3, [r3, r1]
 112 001e D318     		add	r3, r2, r3
 113 0020 1B78     		ldrb	r3, [r3]
 114 0022 0D4A     		ldr	r2, .L8
 115 0024 101C     		mov	r0, r2
 116 0026 191C     		mov	r1, r3
 117 0028 FFF7FEFF 		bl	printf
 113:.\debug.c     ****     for(i = 0; i < value->len; i++)
 118              		.loc 1 113 0 discriminator 2
 119 002c 3B1C     		mov	r3, r7
 120 002e 0E33     		add	r3, r3, #14
 121 0030 1A88     		ldrh	r2, [r3]
 122 0032 3B1C     		mov	r3, r7
 123 0034 0E33     		add	r3, r3, #14
 124 0036 0132     		add	r2, r2, #1
 125 0038 1A80     		strh	r2, [r3]
 126              	.L6:
 113:.\debug.c     ****     for(i = 0; i < value->len; i++)
 127              		.loc 1 113 0 is_stmt 0 discriminator 1
 128 003a 3B1C     		mov	r3, r7
 129 003c 0E33     		add	r3, r3, #14
 130 003e 0021     		mov	r1, #0
 131 0040 5A5E     		ldrsh	r2, [r3, r1]
 132 0042 7B68     		ldr	r3, [r7, #4]
 133 0044 9B88     		ldrh	r3, [r3, #4]
 134 0046 9A42     		cmp	r2, r3
 135 0048 E3DB     		blt	.L7
 116:.\debug.c     ****     }
 117:.\debug.c     ****     printf("\r\n");
 136              		.loc 1 117 0 is_stmt 1
 137 004a 044B     		ldr	r3, .L8+4
 138 004c 181C     		mov	r0, r3
 139 004e FFF7FEFF 		bl	puts
 118:.\debug.c     **** }
 140              		.loc 1 118 0
 141 0052 BD46     		mov	sp, r7
 142 0054 04B0     		add	sp, sp, #16
 143              		@ sp needed
 144 0056 80BD     		pop	{r7, pc}
 145              	.L9:
 146              		.align	2
 147              	.L8:
 148 0058 00000000 		.word	.LC0
 149 005c 08000000 		.word	.LC2
 150              		.cfi_endproc
 151              	.LFE36:
 152              		.size	ShowValue, .-ShowValue
 153              		.section	.text.Set32ByPtr,"ax",%progbits
 154              		.align	2
 155              		.global	Set32ByPtr
 156              		.code	16
 157              		.thumb_func
 158              		.type	Set32ByPtr, %function
 159              	Set32ByPtr:
 160              	.LFB37:
 119:.\debug.c     **** 
 120:.\debug.c     **** 
ARM GAS  C:\Users\Zachary\AppData\Local\Temp\cclO2UTW.s 			page 6


 121:.\debug.c     **** void Set32ByPtr(uint8 ptr[], uint32 value)
 122:.\debug.c     **** {
 161              		.loc 1 122 0
 162              		.cfi_startproc
 163 0000 80B5     		push	{r7, lr}
 164              		.cfi_def_cfa_offset 8
 165              		.cfi_offset 7, -8
 166              		.cfi_offset 14, -4
 167 0002 82B0     		sub	sp, sp, #8
 168              		.cfi_def_cfa_offset 16
 169 0004 00AF     		add	r7, sp, #0
 170              		.cfi_def_cfa_register 7
 171 0006 7860     		str	r0, [r7, #4]
 172 0008 3960     		str	r1, [r7]
 123:.\debug.c     ****     ptr[0u] = (uint8) value;
 173              		.loc 1 123 0
 174 000a 3B68     		ldr	r3, [r7]
 175 000c DAB2     		uxtb	r2, r3
 176 000e 7B68     		ldr	r3, [r7, #4]
 177 0010 1A70     		strb	r2, [r3]
 124:.\debug.c     ****     ptr[1u] = (uint8) (value >> 8u);    
 178              		.loc 1 124 0
 179 0012 7B68     		ldr	r3, [r7, #4]
 180 0014 0133     		add	r3, r3, #1
 181 0016 3A68     		ldr	r2, [r7]
 182 0018 120A     		lsr	r2, r2, #8
 183 001a D2B2     		uxtb	r2, r2
 184 001c 1A70     		strb	r2, [r3]
 125:.\debug.c     ****     ptr[2u] = (uint8) (value >> 16u);    
 185              		.loc 1 125 0
 186 001e 7B68     		ldr	r3, [r7, #4]
 187 0020 0233     		add	r3, r3, #2
 188 0022 3A68     		ldr	r2, [r7]
 189 0024 120C     		lsr	r2, r2, #16
 190 0026 D2B2     		uxtb	r2, r2
 191 0028 1A70     		strb	r2, [r3]
 126:.\debug.c     ****     ptr[3u] = (uint8) (value >> 24u);
 192              		.loc 1 126 0
 193 002a 7B68     		ldr	r3, [r7, #4]
 194 002c 0333     		add	r3, r3, #3
 195 002e 3A68     		ldr	r2, [r7]
 196 0030 120E     		lsr	r2, r2, #24
 197 0032 D2B2     		uxtb	r2, r2
 198 0034 1A70     		strb	r2, [r3]
 127:.\debug.c     **** }
 199              		.loc 1 127 0
 200 0036 BD46     		mov	sp, r7
 201 0038 02B0     		add	sp, sp, #8
 202              		@ sp needed
 203 003a 80BD     		pop	{r7, pc}
 204              		.cfi_endproc
 205              	.LFE37:
 206              		.size	Set32ByPtr, .-Set32ByPtr
 207              		.text
 208              	.Letext0:
 209              		.file 2 ".\\Generated_Source\\PSoC4/cytypes.h"
 210              		.file 3 ".\\Generated_Source\\PSoC4/BLE_StackGatt.h"
ARM GAS  C:\Users\Zachary\AppData\Local\Temp\cclO2UTW.s 			page 7

