ARM GAS  C:\Users\Zachary\AppData\Local\Temp\ccOaZ8fW.s 			page 1


   1              		.cpu cortex-m0
   2              		.fpu softvfp
   3              		.eabi_attribute 20, 1
   4              		.eabi_attribute 21, 1
   5              		.eabi_attribute 23, 3
   6              		.eabi_attribute 24, 1
   7              		.eabi_attribute 25, 1
   8              		.eabi_attribute 26, 1
   9              		.eabi_attribute 30, 6
  10              		.eabi_attribute 34, 0
  11              		.eabi_attribute 18, 4
  12              		.code	16
  13              		.file	"DieTemp.c"
  14              		.text
  15              	.Ltext0:
  16              		.cfi_sections	.debug_frame
  17              		.global	__aeabi_idiv
  18              		.section	.text.DieTemp_CountsTo_Celsius,"ax",%progbits
  19              		.align	2
  20              		.global	DieTemp_CountsTo_Celsius
  21              		.code	16
  22              		.thumb_func
  23              		.type	DieTemp_CountsTo_Celsius, %function
  24              	DieTemp_CountsTo_Celsius:
  25              	.LFB2:
  26              		.file 1 ".\\Generated_Source\\PSoC4\\DieTemp.c"
   1:.\Generated_Source\PSoC4/DieTemp.c **** /*******************************************************************************
   2:.\Generated_Source\PSoC4/DieTemp.c **** * File Name: DieTemp.c
   3:.\Generated_Source\PSoC4/DieTemp.c **** * Version 1.0
   4:.\Generated_Source\PSoC4/DieTemp.c **** *
   5:.\Generated_Source\PSoC4/DieTemp.c **** * Description:
   6:.\Generated_Source\PSoC4/DieTemp.c **** *  This file provides the source code of APIs for the DieTemp_P4 component.
   7:.\Generated_Source\PSoC4/DieTemp.c **** *
   8:.\Generated_Source\PSoC4/DieTemp.c **** *******************************************************************************
   9:.\Generated_Source\PSoC4/DieTemp.c **** * Copyright 2013, Cypress Semiconductor Corporation.  All rights reserved.
  10:.\Generated_Source\PSoC4/DieTemp.c **** * You may use this file only in accordance with the license, terms, conditions,
  11:.\Generated_Source\PSoC4/DieTemp.c **** * disclaimers, and limitations in the end user license agreement accompanying
  12:.\Generated_Source\PSoC4/DieTemp.c **** * the software package with which this file was provided.
  13:.\Generated_Source\PSoC4/DieTemp.c **** *******************************************************************************/
  14:.\Generated_Source\PSoC4/DieTemp.c **** 
  15:.\Generated_Source\PSoC4/DieTemp.c **** #include "DieTemp.h"
  16:.\Generated_Source\PSoC4/DieTemp.c **** 
  17:.\Generated_Source\PSoC4/DieTemp.c **** 
  18:.\Generated_Source\PSoC4/DieTemp.c **** /*******************************************************************************
  19:.\Generated_Source\PSoC4/DieTemp.c **** * Function Name: DieTemp_CountsTo_Celsius
  20:.\Generated_Source\PSoC4/DieTemp.c **** ********************************************************************************
  21:.\Generated_Source\PSoC4/DieTemp.c **** *
  22:.\Generated_Source\PSoC4/DieTemp.c **** * Summary:
  23:.\Generated_Source\PSoC4/DieTemp.c **** *  Converts the ADC output to degrees Celsius.
  24:.\Generated_Source\PSoC4/DieTemp.c **** *
  25:.\Generated_Source\PSoC4/DieTemp.c **** * Parameters:
  26:.\Generated_Source\PSoC4/DieTemp.c **** *  int32 adcCounts:
  27:.\Generated_Source\PSoC4/DieTemp.c **** *   Result from the ADC Conversion
  28:.\Generated_Source\PSoC4/DieTemp.c **** *
  29:.\Generated_Source\PSoC4/DieTemp.c **** * Return:
  30:.\Generated_Source\PSoC4/DieTemp.c **** *  Temperature in degrees Celsius
  31:.\Generated_Source\PSoC4/DieTemp.c **** *
ARM GAS  C:\Users\Zachary\AppData\Local\Temp\ccOaZ8fW.s 			page 2


  32:.\Generated_Source\PSoC4/DieTemp.c **** * Global variables:
  33:.\Generated_Source\PSoC4/DieTemp.c **** *  None
  34:.\Generated_Source\PSoC4/DieTemp.c **** *
  35:.\Generated_Source\PSoC4/DieTemp.c **** *******************************************************************************/
  36:.\Generated_Source\PSoC4/DieTemp.c **** int32 DieTemp_CountsTo_Celsius(int32 adcCounts)
  37:.\Generated_Source\PSoC4/DieTemp.c **** {
  27              		.loc 1 37 0
  28              		.cfi_startproc
  29 0000 80B5     		push	{r7, lr}
  30              		.cfi_def_cfa_offset 8
  31              		.cfi_offset 7, -8
  32              		.cfi_offset 14, -4
  33 0002 88B0     		sub	sp, sp, #32
  34              		.cfi_def_cfa_offset 40
  35 0004 00AF     		add	r7, sp, #0
  36              		.cfi_def_cfa_register 7
  37 0006 7860     		str	r0, [r7, #4]
  38:.\Generated_Source\PSoC4/DieTemp.c ****     int32 tempCelsius;
  39:.\Generated_Source\PSoC4/DieTemp.c ****     int32 tInitial;
  40:.\Generated_Source\PSoC4/DieTemp.c ****     int32 tAdjust;
  41:.\Generated_Source\PSoC4/DieTemp.c ****     int32 offsetReg;
  42:.\Generated_Source\PSoC4/DieTemp.c ****     int32 multReg;
  43:.\Generated_Source\PSoC4/DieTemp.c **** 
  44:.\Generated_Source\PSoC4/DieTemp.c ****     offsetReg = (int16)DieTemp_SAR_TEMP_OFFSET_REG;
  38              		.loc 1 44 0
  39 0008 224B     		ldr	r3, .L8
  40 000a 1B88     		ldrh	r3, [r3]
  41 000c 9BB2     		uxth	r3, r3
  42 000e 9BB2     		uxth	r3, r3
  43 0010 1BB2     		sxth	r3, r3
  44 0012 BB61     		str	r3, [r7, #24]
  45:.\Generated_Source\PSoC4/DieTemp.c ****     multReg   = (int16)DieTemp_SAR_TEMP_MULTIPLIER_REG;
  45              		.loc 1 45 0
  46 0014 204B     		ldr	r3, .L8+4
  47 0016 1B88     		ldrh	r3, [r3]
  48 0018 9BB2     		uxth	r3, r3
  49 001a 9BB2     		uxth	r3, r3
  50 001c 1BB2     		sxth	r3, r3
  51 001e 7B61     		str	r3, [r7, #20]
  46:.\Generated_Source\PSoC4/DieTemp.c ****     /* Calculate tInitial in Q16.16 */
  47:.\Generated_Source\PSoC4/DieTemp.c ****     tInitial = (adcCounts * multReg) + (offsetReg * DieTemp_SAR_TEMP_OFFSET_MULT);
  52              		.loc 1 47 0
  53 0020 7B68     		ldr	r3, [r7, #4]
  54 0022 7A69     		ldr	r2, [r7, #20]
  55 0024 5A43     		mul	r2, r3
  56 0026 BB69     		ldr	r3, [r7, #24]
  57 0028 9B02     		lsl	r3, r3, #10
  58 002a D318     		add	r3, r2, r3
  59 002c 3B61     		str	r3, [r7, #16]
  48:.\Generated_Source\PSoC4/DieTemp.c **** 
  49:.\Generated_Source\PSoC4/DieTemp.c ****     if(tInitial >= DieTemp_DUAL_SLOPE_CORRECTION)
  60              		.loc 1 49 0
  61 002e 3A69     		ldr	r2, [r7, #16]
  62 0030 1A4B     		ldr	r3, .L8+8
  63 0032 9A42     		cmp	r2, r3
  64 0034 0EDD     		ble	.L2
  50:.\Generated_Source\PSoC4/DieTemp.c ****     {
ARM GAS  C:\Users\Zachary\AppData\Local\Temp\ccOaZ8fW.s 			page 3


  51:.\Generated_Source\PSoC4/DieTemp.c ****         /* Shift (100 - tInitial) by 4 bits to prevent scale-adjustment from overflowing. */
  52:.\Generated_Source\PSoC4/DieTemp.c ****         /* Then divide by the integer bits of (100 - cutoff) to end up with a Q16.16 tAdjust */
  53:.\Generated_Source\PSoC4/DieTemp.c ****         tAdjust = (DieTemp_SCALE_ADJUSTMENT * (((int32)DieTemp_HIGH_TEMPERATURE - tInitial)
  65              		.loc 1 53 0
  66 0036 3B69     		ldr	r3, [r7, #16]
  67 0038 C822     		mov	r2, #200
  68 003a D203     		lsl	r2, r2, #15
  69 003c D31A     		sub	r3, r2, r3
  54:.\Generated_Source\PSoC4/DieTemp.c ****             / (int32)DieTemp_SCALE_ADJUSTMENT_DIVIDER)) /
  70              		.loc 1 54 0
  71 003e 00D5     		bpl	.L3
  72 0040 0F33     		add	r3, r3, #15
  73              	.L3:
  74 0042 1B11     		asr	r3, r3, #4
  53:.\Generated_Source\PSoC4/DieTemp.c ****         tAdjust = (DieTemp_SCALE_ADJUSTMENT * (((int32)DieTemp_HIGH_TEMPERATURE - tInitial)
  75              		.loc 1 53 0
  76 0044 DB00     		lsl	r3, r3, #3
  77 0046 181C     		mov	r0, r3
  78 0048 5521     		mov	r1, #85
  79 004a FFF7FEFF 		bl	__aeabi_idiv
  80 004e 031C     		mov	r3, r0
  81 0050 FB61     		str	r3, [r7, #28]
  82 0052 0EE0     		b	.L4
  83              	.L2:
  55:.\Generated_Source\PSoC4/DieTemp.c ****             (((int32)DieTemp_HIGH_TEMPERATURE - (int32)DieTemp_DUAL_SLOPE_CORRECTION) /
  56:.\Generated_Source\PSoC4/DieTemp.c ****             DieTemp_SAR_TEMP_DIVIDER);
  57:.\Generated_Source\PSoC4/DieTemp.c ****     }
  58:.\Generated_Source\PSoC4/DieTemp.c ****     else
  59:.\Generated_Source\PSoC4/DieTemp.c ****     {
  60:.\Generated_Source\PSoC4/DieTemp.c ****         /* Shift (40 + tInitial) by 4 bits to prevent scale-adjustment from overflowing. */
  61:.\Generated_Source\PSoC4/DieTemp.c ****         /* Then divide by the integer bits of (40 + cutoff) to end up with a Q16.16 tAdjust */
  62:.\Generated_Source\PSoC4/DieTemp.c ****         tAdjust = ((int32)DieTemp_SCALE_ADJUSTMENT * (((int32)DieTemp_LOW_TEMPERATURE + tInitial)
  84              		.loc 1 62 0
  85 0054 3B69     		ldr	r3, [r7, #16]
  86 0056 A022     		mov	r2, #160
  87 0058 9203     		lsl	r2, r2, #14
  88 005a 9B18     		add	r3, r3, r2
  63:.\Generated_Source\PSoC4/DieTemp.c ****            / (int32)DieTemp_SCALE_ADJUSTMENT_DIVIDER)) /
  89              		.loc 1 63 0
  90 005c 002B     		cmp	r3, #0
  91 005e 00DA     		bge	.L5
  92 0060 0F33     		add	r3, r3, #15
  93              	.L5:
  94 0062 1B11     		asr	r3, r3, #4
  62:.\Generated_Source\PSoC4/DieTemp.c ****         tAdjust = ((int32)DieTemp_SCALE_ADJUSTMENT * (((int32)DieTemp_LOW_TEMPERATURE + tInitial)
  95              		.loc 1 62 0
  96 0064 DB00     		lsl	r3, r3, #3
  97 0066 181C     		mov	r0, r3
  98 0068 3721     		mov	r1, #55
  99 006a FFF7FEFF 		bl	__aeabi_idiv
 100 006e 031C     		mov	r3, r0
 101 0070 FB61     		str	r3, [r7, #28]
 102              	.L4:
  64:.\Generated_Source\PSoC4/DieTemp.c ****             (((int32)DieTemp_LOW_TEMPERATURE + (int32)DieTemp_DUAL_SLOPE_CORRECTION) /
  65:.\Generated_Source\PSoC4/DieTemp.c ****             (int32)DieTemp_SAR_TEMP_DIVIDER);
  66:.\Generated_Source\PSoC4/DieTemp.c ****     }
  67:.\Generated_Source\PSoC4/DieTemp.c **** 
ARM GAS  C:\Users\Zachary\AppData\Local\Temp\ccOaZ8fW.s 			page 4


  68:.\Generated_Source\PSoC4/DieTemp.c ****     /* Add tInitial + tAdjust + 0.5 to round to nearest int. Shift off frac bits, and return. */
  69:.\Generated_Source\PSoC4/DieTemp.c ****     tempCelsius = tInitial + tAdjust + DieTemp_HALF_OF_ONE;
 103              		.loc 1 69 0
 104 0072 3A69     		ldr	r2, [r7, #16]
 105 0074 FB69     		ldr	r3, [r7, #28]
 106 0076 D318     		add	r3, r2, r3
 107 0078 8022     		mov	r2, #128
 108 007a 1202     		lsl	r2, r2, #8
 109 007c 9B18     		add	r3, r3, r2
 110 007e FB60     		str	r3, [r7, #12]
  70:.\Generated_Source\PSoC4/DieTemp.c **** 
  71:.\Generated_Source\PSoC4/DieTemp.c ****     return (tempCelsius / DieTemp_SAR_TEMP_OFFSET_DIVIDER);
 111              		.loc 1 71 0
 112 0080 FB68     		ldr	r3, [r7, #12]
 113 0082 002B     		cmp	r3, #0
 114 0084 01DA     		bge	.L6
 115 0086 064A     		ldr	r2, .L8+12
 116 0088 9B18     		add	r3, r3, r2
 117              	.L6:
 118 008a 1B14     		asr	r3, r3, #16
  72:.\Generated_Source\PSoC4/DieTemp.c **** }
 119              		.loc 1 72 0
 120 008c 181C     		mov	r0, r3
 121 008e BD46     		mov	sp, r7
 122 0090 08B0     		add	sp, sp, #32
 123              		@ sp needed
 124 0092 80BD     		pop	{r7, pc}
 125              	.L9:
 126              		.align	2
 127              	.L8:
 128 0094 66F1FF0F 		.word	268431718
 129 0098 64F1FF0F 		.word	268431716
 130 009c FFFF0E00 		.word	983039
 131 00a0 FFFF0000 		.word	65535
 132              		.cfi_endproc
 133              	.LFE2:
 134              		.size	DieTemp_CountsTo_Celsius, .-DieTemp_CountsTo_Celsius
 135              		.text
 136              	.Letext0:
 137              		.file 2 ".\\Generated_Source\\PSoC4\\cytypes.h"