ARM GAS  C:\Users\Zachary\AppData\Local\Temp\ccrWbHoB.s 			page 1


   1              		.cpu cortex-m0
   2              		.fpu softvfp
   3              		.eabi_attribute 20, 1
   4              		.eabi_attribute 21, 1
   5              		.eabi_attribute 23, 3
   6              		.eabi_attribute 24, 1
   7              		.eabi_attribute 25, 1
   8              		.eabi_attribute 26, 1
   9              		.eabi_attribute 30, 6
  10              		.eabi_attribute 34, 0
  11              		.eabi_attribute 18, 4
  12              		.code	16
  13              		.file	"ADC.c"
  14              		.text
  15              	.Ltext0:
  16              		.cfi_sections	.debug_frame
  17              		.global	ADC_initVar
  18              		.bss
  19              		.type	ADC_initVar, %object
  20              		.size	ADC_initVar, 1
  21              	ADC_initVar:
  22 0000 00       		.space	1
  23              		.comm	ADC_offset,4,4
  24              		.comm	ADC_countsPer10Volt,8,4
  25              		.section	.rodata
  26              		.align	2
  27              		.type	ADC_channelsConfig, %object
  28              		.size	ADC_channelsConfig, 8
  29              	ADC_channelsConfig:
  30 0000 00040000 		.word	1024
  31 0004 00040000 		.word	1024
  32              		.section	.text.ADC_Start,"ax",%progbits
  33              		.align	2
  34              		.global	ADC_Start
  35              		.code	16
  36              		.thumb_func
  37              		.type	ADC_Start, %function
  38              	ADC_Start:
  39              	.LFB2:
  40              		.file 1 ".\\Generated_Source\\PSoC4\\ADC.c"
   1:.\Generated_Source\PSoC4/ADC.c **** /*******************************************************************************
   2:.\Generated_Source\PSoC4/ADC.c **** * File Name: ADC.c
   3:.\Generated_Source\PSoC4/ADC.c **** * Version 2.10
   4:.\Generated_Source\PSoC4/ADC.c **** *
   5:.\Generated_Source\PSoC4/ADC.c **** * Description:
   6:.\Generated_Source\PSoC4/ADC.c **** *  This file provides the source code to the API for the Sequencing Successive
   7:.\Generated_Source\PSoC4/ADC.c **** *  Approximation ADC Component Component.
   8:.\Generated_Source\PSoC4/ADC.c **** *
   9:.\Generated_Source\PSoC4/ADC.c **** * Note:
  10:.\Generated_Source\PSoC4/ADC.c **** *
  11:.\Generated_Source\PSoC4/ADC.c **** ********************************************************************************
  12:.\Generated_Source\PSoC4/ADC.c **** * Copyright 2008-2015, Cypress Semiconductor Corporation.  All rights reserved.
  13:.\Generated_Source\PSoC4/ADC.c **** * You may use this file only in accordance with the license, terms, conditions,
  14:.\Generated_Source\PSoC4/ADC.c **** * disclaimers, and limitations in the end user license agreement accompanying
  15:.\Generated_Source\PSoC4/ADC.c **** * the software package with which this file was provided.
  16:.\Generated_Source\PSoC4/ADC.c **** *******************************************************************************/
  17:.\Generated_Source\PSoC4/ADC.c **** 
ARM GAS  C:\Users\Zachary\AppData\Local\Temp\ccrWbHoB.s 			page 2


  18:.\Generated_Source\PSoC4/ADC.c **** #include "ADC.h"
  19:.\Generated_Source\PSoC4/ADC.c **** 
  20:.\Generated_Source\PSoC4/ADC.c **** 
  21:.\Generated_Source\PSoC4/ADC.c **** /***************************************
  22:.\Generated_Source\PSoC4/ADC.c **** * Global data allocation
  23:.\Generated_Source\PSoC4/ADC.c **** ***************************************/
  24:.\Generated_Source\PSoC4/ADC.c **** uint8 ADC_initVar = 0u;
  25:.\Generated_Source\PSoC4/ADC.c **** volatile int16 ADC_offset[ADC_TOTAL_CHANNELS_NUM];
  26:.\Generated_Source\PSoC4/ADC.c **** volatile int32 ADC_countsPer10Volt[ADC_TOTAL_CHANNELS_NUM];   /* Gain compensation */
  27:.\Generated_Source\PSoC4/ADC.c **** 
  28:.\Generated_Source\PSoC4/ADC.c **** 
  29:.\Generated_Source\PSoC4/ADC.c **** /***************************************
  30:.\Generated_Source\PSoC4/ADC.c **** * Local data allocation
  31:.\Generated_Source\PSoC4/ADC.c **** ***************************************/
  32:.\Generated_Source\PSoC4/ADC.c **** /* Channels configuration generated by customiser */
  33:.\Generated_Source\PSoC4/ADC.c **** static const uint32 CYCODE ADC_channelsConfig[] = { 0x00000400u, 0x00000400u };
  34:.\Generated_Source\PSoC4/ADC.c **** 
  35:.\Generated_Source\PSoC4/ADC.c **** 
  36:.\Generated_Source\PSoC4/ADC.c **** /*******************************************************************************
  37:.\Generated_Source\PSoC4/ADC.c **** * Function Name: ADC_Start
  38:.\Generated_Source\PSoC4/ADC.c **** ********************************************************************************
  39:.\Generated_Source\PSoC4/ADC.c **** *
  40:.\Generated_Source\PSoC4/ADC.c **** * Summary:
  41:.\Generated_Source\PSoC4/ADC.c **** *  Performs all required initialization for this component
  42:.\Generated_Source\PSoC4/ADC.c **** *  and enables the power. The power will be set to the appropriate
  43:.\Generated_Source\PSoC4/ADC.c **** *  power based on the clock frequency.
  44:.\Generated_Source\PSoC4/ADC.c **** *
  45:.\Generated_Source\PSoC4/ADC.c **** * Parameters:
  46:.\Generated_Source\PSoC4/ADC.c **** *  None.
  47:.\Generated_Source\PSoC4/ADC.c **** *
  48:.\Generated_Source\PSoC4/ADC.c **** * Return:
  49:.\Generated_Source\PSoC4/ADC.c **** *  None.
  50:.\Generated_Source\PSoC4/ADC.c **** *
  51:.\Generated_Source\PSoC4/ADC.c **** * Global variables:
  52:.\Generated_Source\PSoC4/ADC.c **** *  The ADC_initVar variable is used to indicate when/if initial
  53:.\Generated_Source\PSoC4/ADC.c **** *  configuration of this component has happened. The variable is initialized to
  54:.\Generated_Source\PSoC4/ADC.c **** *  zero and set to 1 the first time ADC_Start() is called. This allows for
  55:.\Generated_Source\PSoC4/ADC.c **** *  component Re-Start without re-initialization in all subsequent calls to the
  56:.\Generated_Source\PSoC4/ADC.c **** *  ADC_Start() routine.
  57:.\Generated_Source\PSoC4/ADC.c **** *  If re-initialization of the component is required the variable should be set
  58:.\Generated_Source\PSoC4/ADC.c **** *  to zero before call of ADC_Start() routine, or the user may call
  59:.\Generated_Source\PSoC4/ADC.c **** *  ADC_Init() and ADC_Enable() as done in the
  60:.\Generated_Source\PSoC4/ADC.c **** *  ADC_Start() routine.
  61:.\Generated_Source\PSoC4/ADC.c **** *
  62:.\Generated_Source\PSoC4/ADC.c **** *******************************************************************************/
  63:.\Generated_Source\PSoC4/ADC.c **** void ADC_Start(void)
  64:.\Generated_Source\PSoC4/ADC.c **** {
  41              		.loc 1 64 0
  42              		.cfi_startproc
  43 0000 80B5     		push	{r7, lr}
  44              		.cfi_def_cfa_offset 8
  45              		.cfi_offset 7, -8
  46              		.cfi_offset 14, -4
  47 0002 00AF     		add	r7, sp, #0
  48              		.cfi_def_cfa_register 7
  65:.\Generated_Source\PSoC4/ADC.c ****     /* If not Initialized then initialize all required hardware and software */
  66:.\Generated_Source\PSoC4/ADC.c ****     if(ADC_initVar == 0u)
ARM GAS  C:\Users\Zachary\AppData\Local\Temp\ccrWbHoB.s 			page 3


  49              		.loc 1 66 0
  50 0004 064B     		ldr	r3, .L3
  51 0006 1B78     		ldrb	r3, [r3]
  52 0008 002B     		cmp	r3, #0
  53 000a 04D1     		bne	.L2
  67:.\Generated_Source\PSoC4/ADC.c ****     {
  68:.\Generated_Source\PSoC4/ADC.c ****         ADC_Init();
  54              		.loc 1 68 0
  55 000c FFF7FEFF 		bl	ADC_Init
  69:.\Generated_Source\PSoC4/ADC.c ****         ADC_initVar = 1u;
  56              		.loc 1 69 0
  57 0010 034B     		ldr	r3, .L3
  58 0012 0122     		mov	r2, #1
  59 0014 1A70     		strb	r2, [r3]
  60              	.L2:
  70:.\Generated_Source\PSoC4/ADC.c ****     }
  71:.\Generated_Source\PSoC4/ADC.c ****     ADC_Enable();
  61              		.loc 1 71 0
  62 0016 FFF7FEFF 		bl	ADC_Enable
  72:.\Generated_Source\PSoC4/ADC.c **** }
  63              		.loc 1 72 0
  64 001a BD46     		mov	sp, r7
  65              		@ sp needed
  66 001c 80BD     		pop	{r7, pc}
  67              	.L4:
  68 001e C046     		.align	2
  69              	.L3:
  70 0020 00000000 		.word	ADC_initVar
  71              		.cfi_endproc
  72              	.LFE2:
  73              		.size	ADC_Start, .-ADC_Start
  74              		.global	__aeabi_idiv
  75              		.section	.text.ADC_Init,"ax",%progbits
  76              		.align	2
  77              		.global	ADC_Init
  78              		.code	16
  79              		.thumb_func
  80              		.type	ADC_Init, %function
  81              	ADC_Init:
  82              	.LFB3:
  73:.\Generated_Source\PSoC4/ADC.c **** 
  74:.\Generated_Source\PSoC4/ADC.c **** 
  75:.\Generated_Source\PSoC4/ADC.c **** /*******************************************************************************
  76:.\Generated_Source\PSoC4/ADC.c **** * Function Name: ADC_Init
  77:.\Generated_Source\PSoC4/ADC.c **** ********************************************************************************
  78:.\Generated_Source\PSoC4/ADC.c **** *
  79:.\Generated_Source\PSoC4/ADC.c **** * Summary:
  80:.\Generated_Source\PSoC4/ADC.c **** *  Initialize component's parameters to the parameters set by user in the
  81:.\Generated_Source\PSoC4/ADC.c **** *  customizer of the component placed onto schematic. Usually called in
  82:.\Generated_Source\PSoC4/ADC.c **** *  ADC_Start().
  83:.\Generated_Source\PSoC4/ADC.c **** *
  84:.\Generated_Source\PSoC4/ADC.c **** * Parameters:
  85:.\Generated_Source\PSoC4/ADC.c **** *  None.
  86:.\Generated_Source\PSoC4/ADC.c **** *
  87:.\Generated_Source\PSoC4/ADC.c **** * Return:
  88:.\Generated_Source\PSoC4/ADC.c **** *  None.
  89:.\Generated_Source\PSoC4/ADC.c **** *
ARM GAS  C:\Users\Zachary\AppData\Local\Temp\ccrWbHoB.s 			page 4


  90:.\Generated_Source\PSoC4/ADC.c **** * Global variables:
  91:.\Generated_Source\PSoC4/ADC.c **** *  The ADC_offset variable is initialized.
  92:.\Generated_Source\PSoC4/ADC.c **** *
  93:.\Generated_Source\PSoC4/ADC.c **** *******************************************************************************/
  94:.\Generated_Source\PSoC4/ADC.c **** void ADC_Init(void)
  95:.\Generated_Source\PSoC4/ADC.c **** {
  83              		.loc 1 95 0
  84              		.cfi_startproc
  85 0000 90B5     		push	{r4, r7, lr}
  86              		.cfi_def_cfa_offset 12
  87              		.cfi_offset 4, -12
  88              		.cfi_offset 7, -8
  89              		.cfi_offset 14, -4
  90 0002 85B0     		sub	sp, sp, #20
  91              		.cfi_def_cfa_offset 32
  92 0004 00AF     		add	r7, sp, #0
  93              		.cfi_def_cfa_register 7
  96:.\Generated_Source\PSoC4/ADC.c ****     uint32 chNum;
  97:.\Generated_Source\PSoC4/ADC.c ****     uint32 tmpRegVal;
  98:.\Generated_Source\PSoC4/ADC.c ****     int32 counts;
  99:.\Generated_Source\PSoC4/ADC.c **** 
 100:.\Generated_Source\PSoC4/ADC.c ****     #if(ADC_TOTAL_CHANNELS_NUM > 1u)
 101:.\Generated_Source\PSoC4/ADC.c ****         static const uint8 CYCODE ADC_InputsPlacement[] =
 102:.\Generated_Source\PSoC4/ADC.c ****         {
 103:.\Generated_Source\PSoC4/ADC.c ****             (uint8)(ADC_cy_psoc4_sarmux_8__CH_0_PORT << 4u) |
 104:.\Generated_Source\PSoC4/ADC.c ****             (uint8)ADC_cy_psoc4_sarmux_8__CH_0_PIN
 105:.\Generated_Source\PSoC4/ADC.c ****             ,(uint8)(ADC_cy_psoc4_sarmux_8__CH_1_PORT << 4u) |
 106:.\Generated_Source\PSoC4/ADC.c ****              (uint8)ADC_cy_psoc4_sarmux_8__CH_1_PIN
 107:.\Generated_Source\PSoC4/ADC.c ****             #if(ADC_TOTAL_CHANNELS_NUM > 2u)
 108:.\Generated_Source\PSoC4/ADC.c ****                 ,(uint8)(ADC_cy_psoc4_sarmux_8__CH_2_PORT << 4u) |
 109:.\Generated_Source\PSoC4/ADC.c ****                  (uint8)ADC_cy_psoc4_sarmux_8__CH_2_PIN
 110:.\Generated_Source\PSoC4/ADC.c ****             #endif /* End ADC_TOTAL_CHANNELS_NUM > 2u */
 111:.\Generated_Source\PSoC4/ADC.c ****             #if(ADC_TOTAL_CHANNELS_NUM > 3u)
 112:.\Generated_Source\PSoC4/ADC.c ****                 ,(uint8)(ADC_cy_psoc4_sarmux_8__CH_3_PORT << 4u) |
 113:.\Generated_Source\PSoC4/ADC.c ****                  (uint8)ADC_cy_psoc4_sarmux_8__CH_3_PIN
 114:.\Generated_Source\PSoC4/ADC.c ****             #endif /* End ADC_TOTAL_CHANNELS_NUM > 3u */
 115:.\Generated_Source\PSoC4/ADC.c ****             #if(ADC_TOTAL_CHANNELS_NUM > 4u)
 116:.\Generated_Source\PSoC4/ADC.c ****                 ,(uint8)(ADC_cy_psoc4_sarmux_8__CH_4_PORT << 4u) |
 117:.\Generated_Source\PSoC4/ADC.c ****                  (uint8)ADC_cy_psoc4_sarmux_8__CH_4_PIN
 118:.\Generated_Source\PSoC4/ADC.c ****             #endif /* End ADC_TOTAL_CHANNELS_NUM > 4u */
 119:.\Generated_Source\PSoC4/ADC.c ****             #if(ADC_TOTAL_CHANNELS_NUM > 5u)
 120:.\Generated_Source\PSoC4/ADC.c ****                 ,(uint8)(ADC_cy_psoc4_sarmux_8__CH_5_PORT << 4u) |
 121:.\Generated_Source\PSoC4/ADC.c ****                  (uint8)ADC_cy_psoc4_sarmux_8__CH_5_PIN
 122:.\Generated_Source\PSoC4/ADC.c ****             #endif /* End ADC_TOTAL_CHANNELS_NUM > 5u */
 123:.\Generated_Source\PSoC4/ADC.c ****             #if(ADC_TOTAL_CHANNELS_NUM > 6u)
 124:.\Generated_Source\PSoC4/ADC.c ****                 ,(uint8)(ADC_cy_psoc4_sarmux_8__CH_6_PORT << 4u) |
 125:.\Generated_Source\PSoC4/ADC.c ****                  (uint8)ADC_cy_psoc4_sarmux_8__CH_6_PIN
 126:.\Generated_Source\PSoC4/ADC.c ****             #endif /* End ADC_TOTAL_CHANNELS_NUM > 6u */
 127:.\Generated_Source\PSoC4/ADC.c ****             #if(ADC_TOTAL_CHANNELS_NUM > 7u)
 128:.\Generated_Source\PSoC4/ADC.c ****                 ,(uint8)(ADC_cy_psoc4_sarmux_8__CH_7_PORT << 4u) |
 129:.\Generated_Source\PSoC4/ADC.c ****                  (uint8)ADC_cy_psoc4_sarmux_8__CH_7_PIN
 130:.\Generated_Source\PSoC4/ADC.c ****             #endif /* End ADC_TOTAL_CHANNELS_NUM > 7u */
 131:.\Generated_Source\PSoC4/ADC.c ****             #if(ADC_TOTAL_CHANNELS_NUM > 8u)
 132:.\Generated_Source\PSoC4/ADC.c ****                 ,(uint8)(ADC_cy_psoc4_sarmux_8__CH_8_PORT << 4u) |
 133:.\Generated_Source\PSoC4/ADC.c ****                  (uint8)ADC_cy_psoc4_sarmux_8__CH_8_PIN
 134:.\Generated_Source\PSoC4/ADC.c ****             #endif /* End ADC_TOTAL_CHANNELS_NUM > 8u */
 135:.\Generated_Source\PSoC4/ADC.c ****         };
ARM GAS  C:\Users\Zachary\AppData\Local\Temp\ccrWbHoB.s 			page 5


 136:.\Generated_Source\PSoC4/ADC.c ****     #endif /* End ADC_TOTAL_CHANNELS_NUM > 1u */
 137:.\Generated_Source\PSoC4/ADC.c **** 
 138:.\Generated_Source\PSoC4/ADC.c ****     #if(ADC_IRQ_REMOVE == 0u)
 139:.\Generated_Source\PSoC4/ADC.c ****         /* Start and set interrupt vector */
 140:.\Generated_Source\PSoC4/ADC.c ****         CyIntSetPriority(ADC_INTC_NUMBER, ADC_INTC_PRIOR_NUMBER);
  94              		.loc 1 140 0
  95 0006 0F20     		mov	r0, #15
  96 0008 0321     		mov	r1, #3
  97 000a FFF7FEFF 		bl	CyIntSetPriority
 141:.\Generated_Source\PSoC4/ADC.c ****         (void)CyIntSetVector(ADC_INTC_NUMBER, &ADC_ISR);
  98              		.loc 1 141 0
  99 000e 774B     		ldr	r3, .L20
 100 0010 0F20     		mov	r0, #15
 101 0012 191C     		mov	r1, r3
 102 0014 FFF7FEFF 		bl	CyIntSetVector
 142:.\Generated_Source\PSoC4/ADC.c ****     #endif   /* End ADC_IRQ_REMOVE */
 143:.\Generated_Source\PSoC4/ADC.c **** 
 144:.\Generated_Source\PSoC4/ADC.c ****     /* Init SAR and MUX registers */
 145:.\Generated_Source\PSoC4/ADC.c ****     ADC_SAR_CHAN_EN_REG = ADC_DEFAULT_EN_CHANNELS;
 103              		.loc 1 145 0
 104 0018 754B     		ldr	r3, .L20+4
 105 001a 0122     		mov	r2, #1
 106 001c 1A60     		str	r2, [r3]
 146:.\Generated_Source\PSoC4/ADC.c ****     ADC_SAR_CTRL_REG |= ADC_DEFAULT_CTRL_REG_CFG | 
 107              		.loc 1 146 0
 108 001e 754B     		ldr	r3, .L20+8
 109 0020 744A     		ldr	r2, .L20+8
 110 0022 1168     		ldr	r1, [r2]
 147:.\Generated_Source\PSoC4/ADC.c ****         /* Enable the SAR internal pump when global pump is enabled */
 148:.\Generated_Source\PSoC4/ADC.c ****         (((ADC_PUMP_CTRL_REG & ADC_PUMP_CTRL_ENABLED) != 0u) ? 
 111              		.loc 1 148 0
 112 0024 744A     		ldr	r2, .L20+12
 113 0026 1268     		ldr	r2, [r2]
 146:.\Generated_Source\PSoC4/ADC.c ****     ADC_SAR_CTRL_REG |= ADC_DEFAULT_CTRL_REG_CFG | 
 114              		.loc 1 146 0
 115 0028 002A     		cmp	r2, #0
 116 002a 01DA     		bge	.L6
 146:.\Generated_Source\PSoC4/ADC.c ****     ADC_SAR_CTRL_REG |= ADC_DEFAULT_CTRL_REG_CFG | 
 117              		.loc 1 146 0 is_stmt 0 discriminator 1
 118 002c 734A     		ldr	r2, .L20+16
 119 002e 00E0     		b	.L7
 120              	.L6:
 146:.\Generated_Source\PSoC4/ADC.c ****     ADC_SAR_CTRL_REG |= ADC_DEFAULT_CTRL_REG_CFG | 
 121              		.loc 1 146 0 discriminator 2
 122 0030 734A     		ldr	r2, .L20+20
 123              	.L7:
 146:.\Generated_Source\PSoC4/ADC.c ****     ADC_SAR_CTRL_REG |= ADC_DEFAULT_CTRL_REG_CFG | 
 124              		.loc 1 146 0 discriminator 3
 125 0032 0A43     		orr	r2, r1
 126 0034 1A60     		str	r2, [r3]
 149:.\Generated_Source\PSoC4/ADC.c ****         ADC_BOOSTPUMP_EN : 0u);
 150:.\Generated_Source\PSoC4/ADC.c ****     ADC_SAR_SAMPLE_CTRL_REG = ADC_DEFAULT_SAMPLE_CTRL_REG_CFG;
 127              		.loc 1 150 0 is_stmt 1 discriminator 3
 128 0036 734B     		ldr	r3, .L20+24
 129 0038 734A     		ldr	r2, .L20+28
 130 003a 1A60     		str	r2, [r3]
 151:.\Generated_Source\PSoC4/ADC.c ****     ADC_SAR_RANGE_THRES_REG = ADC_DEFAULT_RANGE_THRES_REG_CFG;
ARM GAS  C:\Users\Zachary\AppData\Local\Temp\ccrWbHoB.s 			page 6


 131              		.loc 1 151 0 discriminator 3
 132 003c 734B     		ldr	r3, .L20+32
 133 003e 744A     		ldr	r2, .L20+36
 134 0040 1A60     		str	r2, [r3]
 152:.\Generated_Source\PSoC4/ADC.c ****     ADC_SAR_RANGE_COND_REG  = ADC_COMPARE_MODE;
 135              		.loc 1 152 0 discriminator 3
 136 0042 744B     		ldr	r3, .L20+40
 137 0044 0022     		mov	r2, #0
 138 0046 1A60     		str	r2, [r3]
 153:.\Generated_Source\PSoC4/ADC.c ****     ADC_SAR_SAMPLE_TIME01_REG = ADC_DEFAULT_SAMPLE_TIME01_REG_CFG;
 139              		.loc 1 153 0 discriminator 3
 140 0048 734B     		ldr	r3, .L20+44
 141 004a 744A     		ldr	r2, .L20+48
 142 004c 1A60     		str	r2, [r3]
 154:.\Generated_Source\PSoC4/ADC.c ****     ADC_SAR_SAMPLE_TIME23_REG = ADC_DEFAULT_SAMPLE_TIME23_REG_CFG;
 143              		.loc 1 154 0 discriminator 3
 144 004e 744B     		ldr	r3, .L20+52
 145 0050 724A     		ldr	r2, .L20+48
 146 0052 1A60     		str	r2, [r3]
 155:.\Generated_Source\PSoC4/ADC.c ****     
 156:.\Generated_Source\PSoC4/ADC.c ****     /* Connect Vm to VSSA when even one channel is single-ended or multiple channels configured */
 157:.\Generated_Source\PSoC4/ADC.c ****     #if(ADC_DEFAULT_MUX_SWITCH0 != 0u)
 158:.\Generated_Source\PSoC4/ADC.c ****         ADC_MUX_SWITCH0_REG |= ADC_DEFAULT_MUX_SWITCH0;
 147              		.loc 1 158 0 discriminator 3
 148 0054 734B     		ldr	r3, .L20+56
 149 0056 734A     		ldr	r2, .L20+56
 150 0058 1268     		ldr	r2, [r2]
 151 005a 8021     		mov	r1, #128
 152 005c 4902     		lsl	r1, r1, #9
 153 005e 0A43     		orr	r2, r1
 154 0060 1A60     		str	r2, [r3]
 159:.\Generated_Source\PSoC4/ADC.c ****         /* Set MUX_HW_CTRL_VSSA in MUX_SWITCH_HW_CTRL when multiple channels enabled */
 160:.\Generated_Source\PSoC4/ADC.c ****         #if(ADC_TOTAL_CHANNELS_NUM > 1u)
 161:.\Generated_Source\PSoC4/ADC.c ****             ADC_MUX_SWITCH_HW_CTRL_REG |= ADC_DEFAULT_MUX_SWITCH0;
 155              		.loc 1 161 0 discriminator 3
 156 0062 714B     		ldr	r3, .L20+60
 157 0064 704A     		ldr	r2, .L20+60
 158 0066 1268     		ldr	r2, [r2]
 159 0068 8021     		mov	r1, #128
 160 006a 4902     		lsl	r1, r1, #9
 161 006c 0A43     		orr	r2, r1
 162 006e 1A60     		str	r2, [r3]
 162:.\Generated_Source\PSoC4/ADC.c ****         #endif /* ADC_TOTAL_CHANNELS_NUM > 1u */
 163:.\Generated_Source\PSoC4/ADC.c ****     #endif /*ADC_CHANNELS_MODE !=0 */
 164:.\Generated_Source\PSoC4/ADC.c **** 
 165:.\Generated_Source\PSoC4/ADC.c ****     ADC_SAR_SATURATE_INTR_MASK_REG = 0u;
 163              		.loc 1 165 0 discriminator 3
 164 0070 6E4B     		ldr	r3, .L20+64
 165 0072 0022     		mov	r2, #0
 166 0074 1A60     		str	r2, [r3]
 166:.\Generated_Source\PSoC4/ADC.c ****     ADC_SAR_RANGE_INTR_MASK_REG = 0u;
 167              		.loc 1 166 0 discriminator 3
 168 0076 6E4B     		ldr	r3, .L20+68
 169 0078 0022     		mov	r2, #0
 170 007a 1A60     		str	r2, [r3]
 167:.\Generated_Source\PSoC4/ADC.c ****     ADC_SAR_INTR_MASK_REG = ADC_SAR_INTR_MASK;
 171              		.loc 1 167 0 discriminator 3
ARM GAS  C:\Users\Zachary\AppData\Local\Temp\ccrWbHoB.s 			page 7


 172 007c 6D4B     		ldr	r3, .L20+72
 173 007e 1122     		mov	r2, #17
 174 0080 1A60     		str	r2, [r3]
 168:.\Generated_Source\PSoC4/ADC.c **** 
 169:.\Generated_Source\PSoC4/ADC.c ****     #if(ADC_CY_SAR_IP_VER == ADC_CY_SAR_IP_PSOC4)
 170:.\Generated_Source\PSoC4/ADC.c ****         ADC_ANA_TRIM_REG = ADC_TRIM_COEF;
 171:.\Generated_Source\PSoC4/ADC.c ****     #endif /* (ADC_CY_SAR_IP_VER == ADC_CY_SAR_IP_PSOC4) */
 172:.\Generated_Source\PSoC4/ADC.c **** 
 173:.\Generated_Source\PSoC4/ADC.c ****     /* Read and modify default configuration based on characterization */
 174:.\Generated_Source\PSoC4/ADC.c ****     tmpRegVal = ADC_SAR_DFT_CTRL_REG;
 175              		.loc 1 174 0 discriminator 3
 176 0082 6D4B     		ldr	r3, .L20+76
 177 0084 1B68     		ldr	r3, [r3]
 178 0086 7B60     		str	r3, [r7, #4]
 175:.\Generated_Source\PSoC4/ADC.c ****     tmpRegVal &= (uint32)~ADC_DCEN;
 179              		.loc 1 175 0 discriminator 3
 180 0088 7A68     		ldr	r2, [r7, #4]
 181 008a 6C4B     		ldr	r3, .L20+80
 182 008c 1340     		and	r3, r2
 183 008e 7B60     		str	r3, [r7, #4]
 176:.\Generated_Source\PSoC4/ADC.c ****     
 177:.\Generated_Source\PSoC4/ADC.c ****     #if(ADC_CY_SAR_IP_VER == ADC_CY_SAR_IP_PSOC4)
 178:.\Generated_Source\PSoC4/ADC.c ****         #if(ADC_NOMINAL_CLOCK_FREQ > (ADC_MAX_FREQUENCY / 2))
 179:.\Generated_Source\PSoC4/ADC.c ****             tmpRegVal |= ADC_SEL_CSEL_DFT_CHAR;
 180:.\Generated_Source\PSoC4/ADC.c ****         #else  /* clock speed < 9 Mhz */
 181:.\Generated_Source\PSoC4/ADC.c ****             tmpRegVal |= ADC_DLY_INC;
 182:.\Generated_Source\PSoC4/ADC.c ****         #endif /* clock speed > 9 Mhz */
 183:.\Generated_Source\PSoC4/ADC.c ****     #else
 184:.\Generated_Source\PSoC4/ADC.c ****         #if ((ADC_DEFAULT_VREF_SEL == ADC__INTERNAL1024) || \
 185:.\Generated_Source\PSoC4/ADC.c ****              (ADC_DEFAULT_VREF_SEL == ADC__INTERNALVREF))
 186:.\Generated_Source\PSoC4/ADC.c ****             tmpRegVal |= ADC_DLY_INC;
 187:.\Generated_Source\PSoC4/ADC.c ****         #else
 188:.\Generated_Source\PSoC4/ADC.c ****             tmpRegVal |= ADC_DCEN;
 184              		.loc 1 188 0 discriminator 3
 185 0090 7B68     		ldr	r3, [r7, #4]
 186 0092 8022     		mov	r2, #128
 187 0094 9205     		lsl	r2, r2, #22
 188 0096 1343     		orr	r3, r2
 189 0098 7B60     		str	r3, [r7, #4]
 189:.\Generated_Source\PSoC4/ADC.c ****             tmpRegVal &= (uint32)~ADC_DLY_INC;
 190              		.loc 1 189 0 discriminator 3
 191 009a 7B68     		ldr	r3, [r7, #4]
 192 009c 0122     		mov	r2, #1
 193 009e 9343     		bic	r3, r2
 194 00a0 7B60     		str	r3, [r7, #4]
 190:.\Generated_Source\PSoC4/ADC.c ****         #endif /* ((ADC_DEFAULT_VREF_SEL == ADC__INTERNAL1024) || \
 191:.\Generated_Source\PSoC4/ADC.c ****                    (ADC_DEFAULT_VREF_SEL == ADC__INTERNALVREF)) */
 192:.\Generated_Source\PSoC4/ADC.c ****     #endif /* (ADC_CY_SAR_IP_VER == ADC_CY_SAR_IP_PSOC4) */
 193:.\Generated_Source\PSoC4/ADC.c ****     
 194:.\Generated_Source\PSoC4/ADC.c ****     ADC_SAR_DFT_CTRL_REG = tmpRegVal;
 195              		.loc 1 194 0 discriminator 3
 196 00a2 654B     		ldr	r3, .L20+76
 197 00a4 7A68     		ldr	r2, [r7, #4]
 198 00a6 1A60     		str	r2, [r3]
 195:.\Generated_Source\PSoC4/ADC.c **** 
 196:.\Generated_Source\PSoC4/ADC.c ****     #if(ADC_MAX_RESOLUTION != ADC_RESOLUTION_12)
 197:.\Generated_Source\PSoC4/ADC.c ****         ADC_WOUNDING_REG = ADC_ALT_WOUNDING;
ARM GAS  C:\Users\Zachary\AppData\Local\Temp\ccrWbHoB.s 			page 8


 198:.\Generated_Source\PSoC4/ADC.c ****     #endif /* ADC_MAX_RESOLUTION != ADC_RESOLUTION_12 */
 199:.\Generated_Source\PSoC4/ADC.c **** 
 200:.\Generated_Source\PSoC4/ADC.c ****     for(chNum = 0u; chNum < ADC_TOTAL_CHANNELS_NUM; chNum++)
 199              		.loc 1 200 0 discriminator 3
 200 00a8 0023     		mov	r3, #0
 201 00aa FB60     		str	r3, [r7, #12]
 202 00ac 96E0     		b	.L8
 203              	.L19:
 201:.\Generated_Source\PSoC4/ADC.c ****     {
 202:.\Generated_Source\PSoC4/ADC.c ****         tmpRegVal = (ADC_channelsConfig[chNum] & ADC_CHANNEL_CONFIG_MASK);
 204              		.loc 1 202 0
 205 00ae 644B     		ldr	r3, .L20+84
 206 00b0 FA68     		ldr	r2, [r7, #12]
 207 00b2 9200     		lsl	r2, r2, #2
 208 00b4 D258     		ldr	r2, [r2, r3]
 209 00b6 DC23     		mov	r3, #220
 210 00b8 9B01     		lsl	r3, r3, #6
 211 00ba 1340     		and	r3, r2
 212 00bc 7B60     		str	r3, [r7, #4]
 203:.\Generated_Source\PSoC4/ADC.c ****         #if(ADC_TOTAL_CHANNELS_NUM > 1u)
 204:.\Generated_Source\PSoC4/ADC.c ****             tmpRegVal |= ADC_InputsPlacement[chNum];
 213              		.loc 1 204 0
 214 00be 614A     		ldr	r2, .L20+88
 215 00c0 FB68     		ldr	r3, [r7, #12]
 216 00c2 D318     		add	r3, r2, r3
 217 00c4 1B78     		ldrb	r3, [r3]
 218 00c6 7A68     		ldr	r2, [r7, #4]
 219 00c8 1343     		orr	r3, r2
 220 00ca 7B60     		str	r3, [r7, #4]
 205:.\Generated_Source\PSoC4/ADC.c ****         #endif /* End ADC_TOTAL_CHANNELS_NUM > 1u */
 206:.\Generated_Source\PSoC4/ADC.c ****         
 207:.\Generated_Source\PSoC4/ADC.c ****         
 208:.\Generated_Source\PSoC4/ADC.c ****         /* When the part is limited to 10-bit then the SUB_RESOLUTION bit
 209:.\Generated_Source\PSoC4/ADC.c ****         *  will be ignored and the RESOLUTION bit selects between 10-bit
 210:.\Generated_Source\PSoC4/ADC.c ****         *  (0) and 8-bit (1) resolution.
 211:.\Generated_Source\PSoC4/ADC.c ****         */
 212:.\Generated_Source\PSoC4/ADC.c ****         #if((ADC_MAX_RESOLUTION != ADC_RESOLUTION_12) && \
 213:.\Generated_Source\PSoC4/ADC.c ****             (ADC_ALT_WOUNDING == ADC_WOUNDING_10BIT))
 214:.\Generated_Source\PSoC4/ADC.c ****             tmpRegVal &= (uint32)(~ADC_ALT_RESOLUTION_ON);
 215:.\Generated_Source\PSoC4/ADC.c ****         #endif /* ADC_MAX_RESOLUTION != ADC_RESOLUTION_12 */
 216:.\Generated_Source\PSoC4/ADC.c **** 
 217:.\Generated_Source\PSoC4/ADC.c ****         #if(ADC_INJ_CHANNEL_ENABLED)
 218:.\Generated_Source\PSoC4/ADC.c ****         if(chNum < ADC_SEQUENCED_CHANNELS_NUM)
 221              		.loc 1 218 0
 222 00cc FB68     		ldr	r3, [r7, #12]
 223 00ce 002B     		cmp	r3, #0
 224 00d0 2AD1     		bne	.L9
 219:.\Generated_Source\PSoC4/ADC.c ****         #endif /* ADC_INJ_CHANNEL_ENABLED */
 220:.\Generated_Source\PSoC4/ADC.c ****         {
 221:.\Generated_Source\PSoC4/ADC.c ****             CY_SET_REG32((reg32 *)(ADC_SAR_CHAN_CONFIG_IND + (uint32)(chNum << 2)), tmpRegVal);
 225              		.loc 1 221 0
 226 00d2 FB68     		ldr	r3, [r7, #12]
 227 00d4 9B00     		lsl	r3, r3, #2
 228 00d6 5C4A     		ldr	r2, .L20+92
 229 00d8 9B18     		add	r3, r3, r2
 230 00da 7A68     		ldr	r2, [r7, #4]
 231 00dc 1A60     		str	r2, [r3]
ARM GAS  C:\Users\Zachary\AppData\Local\Temp\ccrWbHoB.s 			page 9


 222:.\Generated_Source\PSoC4/ADC.c **** 
 223:.\Generated_Source\PSoC4/ADC.c ****             if((ADC_channelsConfig[chNum] & ADC_IS_SATURATE_EN_MASK) != 0u)
 232              		.loc 1 223 0
 233 00de 584B     		ldr	r3, .L20+84
 234 00e0 FA68     		ldr	r2, [r7, #12]
 235 00e2 9200     		lsl	r2, r2, #2
 236 00e4 D258     		ldr	r2, [r2, r3]
 237 00e6 0123     		mov	r3, #1
 238 00e8 1340     		and	r3, r2
 239 00ea 0AD0     		beq	.L10
 224:.\Generated_Source\PSoC4/ADC.c ****             {
 225:.\Generated_Source\PSoC4/ADC.c ****                 ADC_SAR_SATURATE_INTR_MASK_REG |= (uint16)((uint16)1 << chNum);
 240              		.loc 1 225 0
 241 00ec 4F4B     		ldr	r3, .L20+64
 242 00ee 4F4A     		ldr	r2, .L20+64
 243 00f0 1168     		ldr	r1, [r2]
 244 00f2 FA68     		ldr	r2, [r7, #12]
 245 00f4 0120     		mov	r0, #1
 246 00f6 041C     		mov	r4, r0
 247 00f8 9440     		lsl	r4, r4, r2
 248 00fa 221C     		mov	r2, r4
 249 00fc 92B2     		uxth	r2, r2
 250 00fe 0A43     		orr	r2, r1
 251 0100 1A60     		str	r2, [r3]
 252              	.L10:
 226:.\Generated_Source\PSoC4/ADC.c ****             }
 227:.\Generated_Source\PSoC4/ADC.c **** 
 228:.\Generated_Source\PSoC4/ADC.c ****             if((ADC_channelsConfig[chNum] & ADC_IS_RANGE_CTRL_EN_MASK) != 0u)
 253              		.loc 1 228 0
 254 0102 4F4B     		ldr	r3, .L20+84
 255 0104 FA68     		ldr	r2, [r7, #12]
 256 0106 9200     		lsl	r2, r2, #2
 257 0108 D258     		ldr	r2, [r2, r3]
 258 010a 0223     		mov	r3, #2
 259 010c 1340     		and	r3, r2
 260 010e 2BD0     		beq	.L12
 229:.\Generated_Source\PSoC4/ADC.c ****             {
 230:.\Generated_Source\PSoC4/ADC.c ****                 ADC_SAR_RANGE_INTR_MASK_REG |= (uint16)((uint16)1 << chNum);
 261              		.loc 1 230 0
 262 0110 474B     		ldr	r3, .L20+68
 263 0112 474A     		ldr	r2, .L20+68
 264 0114 1168     		ldr	r1, [r2]
 265 0116 FA68     		ldr	r2, [r7, #12]
 266 0118 0120     		mov	r0, #1
 267 011a 041C     		mov	r4, r0
 268 011c 9440     		lsl	r4, r4, r2
 269 011e 221C     		mov	r2, r4
 270 0120 92B2     		uxth	r2, r2
 271 0122 0A43     		orr	r2, r1
 272 0124 1A60     		str	r2, [r3]
 273 0126 1FE0     		b	.L12
 274              	.L9:
 231:.\Generated_Source\PSoC4/ADC.c ****             }
 232:.\Generated_Source\PSoC4/ADC.c ****         }
 233:.\Generated_Source\PSoC4/ADC.c ****         #if(ADC_INJ_CHANNEL_ENABLED)
 234:.\Generated_Source\PSoC4/ADC.c ****             else
 235:.\Generated_Source\PSoC4/ADC.c ****             {
ARM GAS  C:\Users\Zachary\AppData\Local\Temp\ccrWbHoB.s 			page 10


 236:.\Generated_Source\PSoC4/ADC.c ****                 CY_SET_REG32(ADC_SAR_INJ_CHAN_CONFIG_PTR, tmpRegVal | ADC_INJ_TAILGATING);
 275              		.loc 1 236 0
 276 0128 484B     		ldr	r3, .L20+96
 277 012a 7A68     		ldr	r2, [r7, #4]
 278 012c 8021     		mov	r1, #128
 279 012e C905     		lsl	r1, r1, #23
 280 0130 0A43     		orr	r2, r1
 281 0132 1A60     		str	r2, [r3]
 237:.\Generated_Source\PSoC4/ADC.c **** 
 238:.\Generated_Source\PSoC4/ADC.c ****                 if((ADC_channelsConfig[chNum] & ADC_IS_SATURATE_EN_MASK) != 0u)
 282              		.loc 1 238 0
 283 0134 424B     		ldr	r3, .L20+84
 284 0136 FA68     		ldr	r2, [r7, #12]
 285 0138 9200     		lsl	r2, r2, #2
 286 013a D258     		ldr	r2, [r2, r3]
 287 013c 0123     		mov	r3, #1
 288 013e 1340     		and	r3, r2
 289 0140 05D0     		beq	.L13
 239:.\Generated_Source\PSoC4/ADC.c ****                 {
 240:.\Generated_Source\PSoC4/ADC.c ****                     ADC_SAR_INTR_MASK_REG |= ADC_INJ_SATURATE_MASK;
 290              		.loc 1 240 0
 291 0142 3C4B     		ldr	r3, .L20+72
 292 0144 3B4A     		ldr	r2, .L20+72
 293 0146 1268     		ldr	r2, [r2]
 294 0148 2021     		mov	r1, #32
 295 014a 0A43     		orr	r2, r1
 296 014c 1A60     		str	r2, [r3]
 297              	.L13:
 241:.\Generated_Source\PSoC4/ADC.c ****                 }
 242:.\Generated_Source\PSoC4/ADC.c **** 
 243:.\Generated_Source\PSoC4/ADC.c ****                 if((ADC_channelsConfig[chNum] & ADC_IS_RANGE_CTRL_EN_MASK) != 0u)
 298              		.loc 1 243 0
 299 014e 3C4B     		ldr	r3, .L20+84
 300 0150 FA68     		ldr	r2, [r7, #12]
 301 0152 9200     		lsl	r2, r2, #2
 302 0154 D258     		ldr	r2, [r2, r3]
 303 0156 0223     		mov	r3, #2
 304 0158 1340     		and	r3, r2
 305 015a 05D0     		beq	.L12
 244:.\Generated_Source\PSoC4/ADC.c ****                 {
 245:.\Generated_Source\PSoC4/ADC.c ****                     ADC_SAR_INTR_MASK_REG |= ADC_INJ_RANGE_MASK;
 306              		.loc 1 245 0
 307 015c 354B     		ldr	r3, .L20+72
 308 015e 354A     		ldr	r2, .L20+72
 309 0160 1268     		ldr	r2, [r2]
 310 0162 4021     		mov	r1, #64
 311 0164 0A43     		orr	r2, r1
 312 0166 1A60     		str	r2, [r3]
 313              	.L12:
 246:.\Generated_Source\PSoC4/ADC.c ****                 }
 247:.\Generated_Source\PSoC4/ADC.c ****             }
 248:.\Generated_Source\PSoC4/ADC.c ****         #endif /* ADC_INJ_CHANNEL_ENABLED */
 249:.\Generated_Source\PSoC4/ADC.c **** 
 250:.\Generated_Source\PSoC4/ADC.c ****         if((ADC_channelsConfig[chNum] & ADC_ALT_RESOLUTION_ON) != 0u)
 314              		.loc 1 250 0
 315 0168 354B     		ldr	r3, .L20+84
 316 016a FA68     		ldr	r2, [r7, #12]
ARM GAS  C:\Users\Zachary\AppData\Local\Temp\ccrWbHoB.s 			page 11


 317 016c 9200     		lsl	r2, r2, #2
 318 016e D258     		ldr	r2, [r2, r3]
 319 0170 8023     		mov	r3, #128
 320 0172 9B00     		lsl	r3, r3, #2
 321 0174 1340     		and	r3, r2
 322 0176 03D0     		beq	.L14
 251:.\Generated_Source\PSoC4/ADC.c ****         {
 252:.\Generated_Source\PSoC4/ADC.c ****                counts = (int32)ADC_DEFAULT_MAX_WRK_ALT;
 323              		.loc 1 252 0
 324 0178 8023     		mov	r3, #128
 325 017a 5B00     		lsl	r3, r3, #1
 326 017c BB60     		str	r3, [r7, #8]
 327 017e 02E0     		b	.L15
 328              	.L14:
 253:.\Generated_Source\PSoC4/ADC.c ****         }
 254:.\Generated_Source\PSoC4/ADC.c ****         else
 255:.\Generated_Source\PSoC4/ADC.c ****         {
 256:.\Generated_Source\PSoC4/ADC.c ****                counts = (int32)ADC_SAR_WRK_MAX_12BIT;
 329              		.loc 1 256 0
 330 0180 8023     		mov	r3, #128
 331 0182 5B01     		lsl	r3, r3, #5
 332 0184 BB60     		str	r3, [r7, #8]
 333              	.L15:
 257:.\Generated_Source\PSoC4/ADC.c ****         }
 258:.\Generated_Source\PSoC4/ADC.c **** 
 259:.\Generated_Source\PSoC4/ADC.c ****         if((ADC_channelsConfig[chNum] & ADC_DIFFERENTIAL_EN) == 0u)
 334              		.loc 1 259 0
 335 0186 2E4B     		ldr	r3, .L20+84
 336 0188 FA68     		ldr	r2, [r7, #12]
 337 018a 9200     		lsl	r2, r2, #2
 338 018c D258     		ldr	r2, [r2, r3]
 339 018e 8023     		mov	r3, #128
 340 0190 5B00     		lsl	r3, r3, #1
 341 0192 1340     		and	r3, r2
 342 0194 05D1     		bne	.L16
 260:.\Generated_Source\PSoC4/ADC.c ****         {
 261:.\Generated_Source\PSoC4/ADC.c ****             #if((ADC_DEFAULT_SE_RESULT_FORMAT_SEL == ADC__FSIGNED) && \
 262:.\Generated_Source\PSoC4/ADC.c ****                 (ADC_DEFAULT_NEG_INPUT_SEL == ADC__VREF))
 263:.\Generated_Source\PSoC4/ADC.c ****                 /* Set offset to the minus half scale to convert results to unsigned format */
 264:.\Generated_Source\PSoC4/ADC.c ****                 ADC_offset[chNum] = (int16)(counts / -2);
 265:.\Generated_Source\PSoC4/ADC.c ****             #else
 266:.\Generated_Source\PSoC4/ADC.c ****                 ADC_offset[chNum] = 0;
 343              		.loc 1 266 0
 344 0196 2E4B     		ldr	r3, .L20+100
 345 0198 FA68     		ldr	r2, [r7, #12]
 346 019a 5200     		lsl	r2, r2, #1
 347 019c 0021     		mov	r1, #0
 348 019e D152     		strh	r1, [r2, r3]
 349 01a0 09E0     		b	.L17
 350              	.L16:
 267:.\Generated_Source\PSoC4/ADC.c ****             #endif /* end DEFAULT_SE_RESULT_FORMAT_SEL == ADC__FSIGNED */
 268:.\Generated_Source\PSoC4/ADC.c ****         }
 269:.\Generated_Source\PSoC4/ADC.c ****         else    /* Differential channel */
 270:.\Generated_Source\PSoC4/ADC.c ****         {
 271:.\Generated_Source\PSoC4/ADC.c ****             #if(ADC_DEFAULT_DIFF_RESULT_FORMAT_SEL == ADC__FUNSIGNED)
 272:.\Generated_Source\PSoC4/ADC.c ****                 /* Set offset to the half scale to convert results to signed format */
 273:.\Generated_Source\PSoC4/ADC.c ****                 ADC_offset[chNum] = (int16)(counts / 2);
ARM GAS  C:\Users\Zachary\AppData\Local\Temp\ccrWbHoB.s 			page 12


 351              		.loc 1 273 0
 352 01a2 BB68     		ldr	r3, [r7, #8]
 353 01a4 002B     		cmp	r3, #0
 354 01a6 00DA     		bge	.L18
 355 01a8 0133     		add	r3, r3, #1
 356              	.L18:
 357 01aa 5B10     		asr	r3, r3, #1
 358 01ac 99B2     		uxth	r1, r3
 359 01ae 284B     		ldr	r3, .L20+100
 360 01b0 FA68     		ldr	r2, [r7, #12]
 361 01b2 5200     		lsl	r2, r2, #1
 362 01b4 D152     		strh	r1, [r2, r3]
 363              	.L17:
 274:.\Generated_Source\PSoC4/ADC.c ****             #else
 275:.\Generated_Source\PSoC4/ADC.c ****                 ADC_offset[chNum] = 0;
 276:.\Generated_Source\PSoC4/ADC.c ****             #endif /* end ADC_DEFAULT_DIFF_RESULT_FORMAT_SEL == ADC__FUNSIGNED */
 277:.\Generated_Source\PSoC4/ADC.c ****         }
 278:.\Generated_Source\PSoC4/ADC.c ****         /* Calculate gain in counts per 10 volts with rounding */
 279:.\Generated_Source\PSoC4/ADC.c ****         ADC_countsPer10Volt[chNum] = (int16)(((counts * ADC_10MV_COUNTS) +
 364              		.loc 1 279 0
 365 01b6 BB68     		ldr	r3, [r7, #8]
 366 01b8 264A     		ldr	r2, .L20+104
 367 01ba 5343     		mul	r3, r2
 368 01bc 264A     		ldr	r2, .L20+108
 369 01be 9B18     		add	r3, r3, r2
 280:.\Generated_Source\PSoC4/ADC.c ****                             ADC_DEFAULT_VREF_MV_VALUE) / (ADC_DEFAULT_VREF_MV_VALUE * 2));
 370              		.loc 1 280 0
 371 01c0 181C     		mov	r0, r3
 372 01c2 2649     		ldr	r1, .L20+112
 373 01c4 FFF7FEFF 		bl	__aeabi_idiv
 374 01c8 031C     		mov	r3, r0
 279:.\Generated_Source\PSoC4/ADC.c ****         ADC_countsPer10Volt[chNum] = (int16)(((counts * ADC_10MV_COUNTS) +
 375              		.loc 1 279 0
 376 01ca 9BB2     		uxth	r3, r3
 377 01cc 19B2     		sxth	r1, r3
 378 01ce 244B     		ldr	r3, .L20+116
 379 01d0 FA68     		ldr	r2, [r7, #12]
 380 01d2 9200     		lsl	r2, r2, #2
 381 01d4 D150     		str	r1, [r2, r3]
 200:.\Generated_Source\PSoC4/ADC.c ****     for(chNum = 0u; chNum < ADC_TOTAL_CHANNELS_NUM; chNum++)
 382              		.loc 1 200 0
 383 01d6 FB68     		ldr	r3, [r7, #12]
 384 01d8 0133     		add	r3, r3, #1
 385 01da FB60     		str	r3, [r7, #12]
 386              	.L8:
 200:.\Generated_Source\PSoC4/ADC.c ****     for(chNum = 0u; chNum < ADC_TOTAL_CHANNELS_NUM; chNum++)
 387              		.loc 1 200 0 is_stmt 0 discriminator 1
 388 01dc FB68     		ldr	r3, [r7, #12]
 389 01de 012B     		cmp	r3, #1
 390 01e0 00D8     		bhi	.LCB318
 391 01e2 64E7     		b	.L19	@long jump
 392              	.LCB318:
 281:.\Generated_Source\PSoC4/ADC.c ****     }
 282:.\Generated_Source\PSoC4/ADC.c **** }
 393              		.loc 1 282 0 is_stmt 1
 394 01e4 BD46     		mov	sp, r7
 395 01e6 05B0     		add	sp, sp, #20
ARM GAS  C:\Users\Zachary\AppData\Local\Temp\ccrWbHoB.s 			page 13


 396              		@ sp needed
 397 01e8 90BD     		pop	{r4, r7, pc}
 398              	.L21:
 399 01ea C046     		.align	2
 400              	.L20:
 401 01ec 00000000 		.word	ADC_ISR
 402 01f0 20003A40 		.word	1077542944
 403 01f4 00003A40 		.word	1077542912
 404 01f8 80033A40 		.word	1077543808
 405 01fc 70201013 		.word	319823984
 406 0200 70200013 		.word	318775408
 407 0204 04003A40 		.word	1077542916
 408 0208 C4000A80 		.word	-2146828092
 409 020c 18003A40 		.word	1077542936
 410 0210 0000FF07 		.word	134152192
 411 0214 1C003A40 		.word	1077542940
 412 0218 10003A40 		.word	1077542928
 413 021c 02000200 		.word	131074
 414 0220 14003A40 		.word	1077542932
 415 0224 00033A40 		.word	1077543680
 416 0228 40033A40 		.word	1077543744
 417 022c 28023A40 		.word	1077543464
 418 0230 38023A40 		.word	1077543480
 419 0234 18023A40 		.word	1077543448
 420 0238 30003A40 		.word	1077542960
 421 023c FFFFFFDF 		.word	-536870913
 422 0240 00000000 		.word	ADC_channelsConfig
 423 0244 08000000 		.word	ADC_InputsPlacement.4749
 424 0248 80003A40 		.word	1077543040
 425 024c 80023A40 		.word	1077543552
 426 0250 00000000 		.word	ADC_offset
 427 0254 10270000 		.word	10000
 428 0258 B80B0000 		.word	3000
 429 025c 70170000 		.word	6000
 430 0260 00000000 		.word	ADC_countsPer10Volt
 431              		.cfi_endproc
 432              	.LFE3:
 433              		.size	ADC_Init, .-ADC_Init
 434              		.section	.text.ADC_Enable,"ax",%progbits
 435              		.align	2
 436              		.global	ADC_Enable
 437              		.code	16
 438              		.thumb_func
 439              		.type	ADC_Enable, %function
 440              	ADC_Enable:
 441              	.LFB4:
 283:.\Generated_Source\PSoC4/ADC.c **** 
 284:.\Generated_Source\PSoC4/ADC.c **** /*******************************************************************************
 285:.\Generated_Source\PSoC4/ADC.c **** * Function Name: ADC_SAR_1_Enable
 286:.\Generated_Source\PSoC4/ADC.c **** ********************************************************************************
 287:.\Generated_Source\PSoC4/ADC.c **** *
 288:.\Generated_Source\PSoC4/ADC.c **** * Summary:
 289:.\Generated_Source\PSoC4/ADC.c **** *  Enables the clock and analog power for SAR ADC.
 290:.\Generated_Source\PSoC4/ADC.c **** *
 291:.\Generated_Source\PSoC4/ADC.c **** * Parameters:
 292:.\Generated_Source\PSoC4/ADC.c **** *  None.
 293:.\Generated_Source\PSoC4/ADC.c **** *
ARM GAS  C:\Users\Zachary\AppData\Local\Temp\ccrWbHoB.s 			page 14


 294:.\Generated_Source\PSoC4/ADC.c **** * Return:
 295:.\Generated_Source\PSoC4/ADC.c **** *  None.
 296:.\Generated_Source\PSoC4/ADC.c **** *
 297:.\Generated_Source\PSoC4/ADC.c **** *******************************************************************************/
 298:.\Generated_Source\PSoC4/ADC.c **** void ADC_Enable(void)
 299:.\Generated_Source\PSoC4/ADC.c **** {
 442              		.loc 1 299 0
 443              		.cfi_startproc
 444 0000 80B5     		push	{r7, lr}
 445              		.cfi_def_cfa_offset 8
 446              		.cfi_offset 7, -8
 447              		.cfi_offset 14, -4
 448 0002 00AF     		add	r7, sp, #0
 449              		.cfi_def_cfa_register 7
 300:.\Generated_Source\PSoC4/ADC.c ****     if (0u == (ADC_SAR_CTRL_REG & ADC_ENABLE))
 450              		.loc 1 300 0
 451 0004 0A4B     		ldr	r3, .L25
 452 0006 1B68     		ldr	r3, [r3]
 453 0008 002B     		cmp	r3, #0
 454 000a 0EDB     		blt	.L22
 301:.\Generated_Source\PSoC4/ADC.c ****     {
 302:.\Generated_Source\PSoC4/ADC.c ****         #if(ADC_CY_SAR_IP_VER != ADC_CY_SAR_IP_PSOC4)
 303:.\Generated_Source\PSoC4/ADC.c **** 
 304:.\Generated_Source\PSoC4/ADC.c ****             while (0u != (ADC_SAR_STATUS_REG & ADC_STATUS_BUSY))
 455              		.loc 1 304 0
 456 000c C046     		mov	r8, r8
 457              	.L24:
 458              		.loc 1 304 0 is_stmt 0 discriminator 1
 459 000e 094B     		ldr	r3, .L25+4
 460 0010 1B68     		ldr	r3, [r3]
 461 0012 002B     		cmp	r3, #0
 462 0014 FBDB     		blt	.L24
 305:.\Generated_Source\PSoC4/ADC.c ****             {
 306:.\Generated_Source\PSoC4/ADC.c ****                 /* wait for SAR to go idle for to avoid deadlock */
 307:.\Generated_Source\PSoC4/ADC.c ****             }
 308:.\Generated_Source\PSoC4/ADC.c ****         #endif /* (ADC_CY_SAR_IP_VER != ADC_CY_SAR_IP_PSOC4) */
 309:.\Generated_Source\PSoC4/ADC.c ****         
 310:.\Generated_Source\PSoC4/ADC.c ****         ADC_SAR_CTRL_REG |= ADC_ENABLE;
 463              		.loc 1 310 0 is_stmt 1
 464 0016 064B     		ldr	r3, .L25
 465 0018 054A     		ldr	r2, .L25
 466 001a 1268     		ldr	r2, [r2]
 467 001c 8021     		mov	r1, #128
 468 001e 0906     		lsl	r1, r1, #24
 469 0020 0A43     		orr	r2, r1
 470 0022 1A60     		str	r2, [r3]
 311:.\Generated_Source\PSoC4/ADC.c ****         
 312:.\Generated_Source\PSoC4/ADC.c ****         /* The block is ready to use 10 us after the enable signal is set high. */
 313:.\Generated_Source\PSoC4/ADC.c ****         CyDelayUs(ADC_10US_DELAY);         
 471              		.loc 1 313 0
 472 0024 0A20     		mov	r0, #10
 473 0026 FFF7FEFF 		bl	CyDelayUs
 474              	.L22:
 314:.\Generated_Source\PSoC4/ADC.c ****     }
 315:.\Generated_Source\PSoC4/ADC.c **** }
 475              		.loc 1 315 0
 476 002a BD46     		mov	sp, r7
ARM GAS  C:\Users\Zachary\AppData\Local\Temp\ccrWbHoB.s 			page 15


 477              		@ sp needed
 478 002c 80BD     		pop	{r7, pc}
 479              	.L26:
 480 002e C046     		.align	2
 481              	.L25:
 482 0030 00003A40 		.word	1077542912
 483 0034 08023A40 		.word	1077543432
 484              		.cfi_endproc
 485              	.LFE4:
 486              		.size	ADC_Enable, .-ADC_Enable
 487              		.section	.text.ADC_Stop,"ax",%progbits
 488              		.align	2
 489              		.global	ADC_Stop
 490              		.code	16
 491              		.thumb_func
 492              		.type	ADC_Stop, %function
 493              	ADC_Stop:
 494              	.LFB5:
 316:.\Generated_Source\PSoC4/ADC.c **** 
 317:.\Generated_Source\PSoC4/ADC.c **** 
 318:.\Generated_Source\PSoC4/ADC.c **** /*******************************************************************************
 319:.\Generated_Source\PSoC4/ADC.c **** * Function Name: ADC_Stop
 320:.\Generated_Source\PSoC4/ADC.c **** ********************************************************************************
 321:.\Generated_Source\PSoC4/ADC.c **** *
 322:.\Generated_Source\PSoC4/ADC.c **** * Summary:
 323:.\Generated_Source\PSoC4/ADC.c **** *  This function stops ADC conversions and puts the ADC into its lowest power
 324:.\Generated_Source\PSoC4/ADC.c **** *  mode.
 325:.\Generated_Source\PSoC4/ADC.c **** *
 326:.\Generated_Source\PSoC4/ADC.c **** * Parameters:
 327:.\Generated_Source\PSoC4/ADC.c **** *  None.
 328:.\Generated_Source\PSoC4/ADC.c **** *
 329:.\Generated_Source\PSoC4/ADC.c **** * Return:
 330:.\Generated_Source\PSoC4/ADC.c **** *  None.
 331:.\Generated_Source\PSoC4/ADC.c **** *
 332:.\Generated_Source\PSoC4/ADC.c **** *******************************************************************************/
 333:.\Generated_Source\PSoC4/ADC.c **** void ADC_Stop(void)
 334:.\Generated_Source\PSoC4/ADC.c **** {
 495              		.loc 1 334 0
 496              		.cfi_startproc
 497 0000 80B5     		push	{r7, lr}
 498              		.cfi_def_cfa_offset 8
 499              		.cfi_offset 7, -8
 500              		.cfi_offset 14, -4
 501 0002 00AF     		add	r7, sp, #0
 502              		.cfi_def_cfa_register 7
 335:.\Generated_Source\PSoC4/ADC.c ****     ADC_SAR_CTRL_REG &= (uint32)~ADC_ENABLE;
 503              		.loc 1 335 0
 504 0004 034B     		ldr	r3, .L28
 505 0006 034A     		ldr	r2, .L28
 506 0008 1268     		ldr	r2, [r2]
 507 000a 5200     		lsl	r2, r2, #1
 508 000c 5208     		lsr	r2, r2, #1
 509 000e 1A60     		str	r2, [r3]
 336:.\Generated_Source\PSoC4/ADC.c **** }
 510              		.loc 1 336 0
 511 0010 BD46     		mov	sp, r7
 512              		@ sp needed
ARM GAS  C:\Users\Zachary\AppData\Local\Temp\ccrWbHoB.s 			page 16


 513 0012 80BD     		pop	{r7, pc}
 514              	.L29:
 515              		.align	2
 516              	.L28:
 517 0014 00003A40 		.word	1077542912
 518              		.cfi_endproc
 519              	.LFE5:
 520              		.size	ADC_Stop, .-ADC_Stop
 521              		.section	.text.ADC_StartConvert,"ax",%progbits
 522              		.align	2
 523              		.global	ADC_StartConvert
 524              		.code	16
 525              		.thumb_func
 526              		.type	ADC_StartConvert, %function
 527              	ADC_StartConvert:
 528              	.LFB6:
 337:.\Generated_Source\PSoC4/ADC.c **** 
 338:.\Generated_Source\PSoC4/ADC.c **** 
 339:.\Generated_Source\PSoC4/ADC.c **** /*******************************************************************************
 340:.\Generated_Source\PSoC4/ADC.c **** * Function Name: ADC_StartConvert
 341:.\Generated_Source\PSoC4/ADC.c **** ********************************************************************************
 342:.\Generated_Source\PSoC4/ADC.c **** *
 343:.\Generated_Source\PSoC4/ADC.c **** * Summary:
 344:.\Generated_Source\PSoC4/ADC.c **** *  Description:
 345:.\Generated_Source\PSoC4/ADC.c **** *  For free running mode, this API starts the conversion process and it
 346:.\Generated_Source\PSoC4/ADC.c **** *  runs continuously.
 347:.\Generated_Source\PSoC4/ADC.c **** *
 348:.\Generated_Source\PSoC4/ADC.c **** *  In a triggered mode, this routine triggers every conversion by
 349:.\Generated_Source\PSoC4/ADC.c **** *  writing into the FW_TRIGGER bit in SAR_START_CTRL reg. In triggered mode,
 350:.\Generated_Source\PSoC4/ADC.c **** *  every conversion has to start by this API.
 351:.\Generated_Source\PSoC4/ADC.c **** *
 352:.\Generated_Source\PSoC4/ADC.c **** * Parameters:
 353:.\Generated_Source\PSoC4/ADC.c **** *  None.
 354:.\Generated_Source\PSoC4/ADC.c **** *
 355:.\Generated_Source\PSoC4/ADC.c **** * Return:
 356:.\Generated_Source\PSoC4/ADC.c **** *  None.
 357:.\Generated_Source\PSoC4/ADC.c **** *
 358:.\Generated_Source\PSoC4/ADC.c **** *******************************************************************************/
 359:.\Generated_Source\PSoC4/ADC.c **** void ADC_StartConvert(void)
 360:.\Generated_Source\PSoC4/ADC.c **** {
 529              		.loc 1 360 0
 530              		.cfi_startproc
 531 0000 80B5     		push	{r7, lr}
 532              		.cfi_def_cfa_offset 8
 533              		.cfi_offset 7, -8
 534              		.cfi_offset 14, -4
 535 0002 00AF     		add	r7, sp, #0
 536              		.cfi_def_cfa_register 7
 361:.\Generated_Source\PSoC4/ADC.c ****     #if(ADC_DEFAULT_SAMPLE_MODE_SEL == ADC__FREERUNNING)
 362:.\Generated_Source\PSoC4/ADC.c ****         ADC_SAR_SAMPLE_CTRL_REG |= ADC_CONTINUOUS_EN;
 363:.\Generated_Source\PSoC4/ADC.c ****     #else /* Firmware trigger */
 364:.\Generated_Source\PSoC4/ADC.c ****         ADC_SAR_START_CTRL_REG = ADC_FW_TRIGGER;
 537              		.loc 1 364 0
 538 0004 024B     		ldr	r3, .L31
 539 0006 0122     		mov	r2, #1
 540 0008 1A60     		str	r2, [r3]
 365:.\Generated_Source\PSoC4/ADC.c ****     #endif /* End ADC_DEFAULT_SAMPLE_MODE == ADC__FREERUNNING */
ARM GAS  C:\Users\Zachary\AppData\Local\Temp\ccrWbHoB.s 			page 17


 366:.\Generated_Source\PSoC4/ADC.c **** 
 367:.\Generated_Source\PSoC4/ADC.c **** }
 541              		.loc 1 367 0
 542 000a BD46     		mov	sp, r7
 543              		@ sp needed
 544 000c 80BD     		pop	{r7, pc}
 545              	.L32:
 546 000e C046     		.align	2
 547              	.L31:
 548 0010 24003A40 		.word	1077542948
 549              		.cfi_endproc
 550              	.LFE6:
 551              		.size	ADC_StartConvert, .-ADC_StartConvert
 552              		.section	.text.ADC_StopConvert,"ax",%progbits
 553              		.align	2
 554              		.global	ADC_StopConvert
 555              		.code	16
 556              		.thumb_func
 557              		.type	ADC_StopConvert, %function
 558              	ADC_StopConvert:
 559              	.LFB7:
 368:.\Generated_Source\PSoC4/ADC.c **** 
 369:.\Generated_Source\PSoC4/ADC.c **** 
 370:.\Generated_Source\PSoC4/ADC.c **** /*******************************************************************************
 371:.\Generated_Source\PSoC4/ADC.c **** * Function Name: ADC_StopConvert
 372:.\Generated_Source\PSoC4/ADC.c **** ********************************************************************************
 373:.\Generated_Source\PSoC4/ADC.c **** *
 374:.\Generated_Source\PSoC4/ADC.c **** * Summary:
 375:.\Generated_Source\PSoC4/ADC.c **** *  Forces the ADC to stop all conversions.
 376:.\Generated_Source\PSoC4/ADC.c **** *
 377:.\Generated_Source\PSoC4/ADC.c **** * Parameters:
 378:.\Generated_Source\PSoC4/ADC.c **** *  None.
 379:.\Generated_Source\PSoC4/ADC.c **** *
 380:.\Generated_Source\PSoC4/ADC.c **** * Return:
 381:.\Generated_Source\PSoC4/ADC.c **** *  None.
 382:.\Generated_Source\PSoC4/ADC.c **** *
 383:.\Generated_Source\PSoC4/ADC.c **** *******************************************************************************/
 384:.\Generated_Source\PSoC4/ADC.c **** void ADC_StopConvert(void)
 385:.\Generated_Source\PSoC4/ADC.c **** {
 560              		.loc 1 385 0
 561              		.cfi_startproc
 562 0000 80B5     		push	{r7, lr}
 563              		.cfi_def_cfa_offset 8
 564              		.cfi_offset 7, -8
 565              		.cfi_offset 14, -4
 566 0002 00AF     		add	r7, sp, #0
 567              		.cfi_def_cfa_register 7
 386:.\Generated_Source\PSoC4/ADC.c ****     #if(ADC_DEFAULT_SAMPLE_MODE_SEL == ADC__FREERUNNING)
 387:.\Generated_Source\PSoC4/ADC.c ****         ADC_SAR_SAMPLE_CTRL_REG &= (uint32)(~ADC_CONTINUOUS_EN);
 388:.\Generated_Source\PSoC4/ADC.c ****     #endif /* ADC_DEFAULT_SAMPLE_MODE == ADC__FREERUNNING */
 389:.\Generated_Source\PSoC4/ADC.c **** }
 568              		.loc 1 389 0
 569 0004 BD46     		mov	sp, r7
 570              		@ sp needed
 571 0006 80BD     		pop	{r7, pc}
 572              		.cfi_endproc
 573              	.LFE7:
ARM GAS  C:\Users\Zachary\AppData\Local\Temp\ccrWbHoB.s 			page 18


 574              		.size	ADC_StopConvert, .-ADC_StopConvert
 575              		.section	.text.ADC_IsEndConversion,"ax",%progbits
 576              		.align	2
 577              		.global	ADC_IsEndConversion
 578              		.code	16
 579              		.thumb_func
 580              		.type	ADC_IsEndConversion, %function
 581              	ADC_IsEndConversion:
 582              	.LFB8:
 390:.\Generated_Source\PSoC4/ADC.c **** 
 391:.\Generated_Source\PSoC4/ADC.c **** 
 392:.\Generated_Source\PSoC4/ADC.c **** /*******************************************************************************
 393:.\Generated_Source\PSoC4/ADC.c **** * Function Name: ADC_IsEndConversion
 394:.\Generated_Source\PSoC4/ADC.c **** ********************************************************************************
 395:.\Generated_Source\PSoC4/ADC.c **** *
 396:.\Generated_Source\PSoC4/ADC.c **** * Summary:
 397:.\Generated_Source\PSoC4/ADC.c **** *  Description: Checks for ADC end of conversion for the case one
 398:.\Generated_Source\PSoC4/ADC.c **** *  channel and end of scan for the case of multiple channels. It acts
 399:.\Generated_Source\PSoC4/ADC.c **** *  as a software version of the EOC. This function provides the
 400:.\Generated_Source\PSoC4/ADC.c **** *  programmer with two options. In one mode this function
 401:.\Generated_Source\PSoC4/ADC.c **** *  immediately returns with the conversion status. In the other mode,
 402:.\Generated_Source\PSoC4/ADC.c **** *  the function does not return (blocking) until the conversion has
 403:.\Generated_Source\PSoC4/ADC.c **** *  completed.
 404:.\Generated_Source\PSoC4/ADC.c **** *
 405:.\Generated_Source\PSoC4/ADC.c **** * Parameters:
 406:.\Generated_Source\PSoC4/ADC.c **** *  ADC_RETURN_STATUS        -> Immediately returns conversion result status
 407:.\Generated_Source\PSoC4/ADC.c **** *  ADC_WAIT_FOR_RESULT      -> Does not return until ADC complete
 408:.\Generated_Source\PSoC4/ADC.c **** *  ADC_RETURN_STATUS_INJ    -> Immediately returns conversion result status
 409:.\Generated_Source\PSoC4/ADC.c **** *                              for injection channel
 410:.\Generated_Source\PSoC4/ADC.c **** *  ADC_WAIT_FOR_RESULT_INJ  -> Does not return until ADC completes injection
 411:.\Generated_Source\PSoC4/ADC.c **** *                              channel conversion
 412:.\Generated_Source\PSoC4/ADC.c **** *
 413:.\Generated_Source\PSoC4/ADC.c **** * Return:
 414:.\Generated_Source\PSoC4/ADC.c **** *  If a non-zero value is returned, the last conversion or scan has completed.
 415:.\Generated_Source\PSoC4/ADC.c **** *  If the returned value is zero, the ADC is still in the process of a scan.
 416:.\Generated_Source\PSoC4/ADC.c **** *
 417:.\Generated_Source\PSoC4/ADC.c **** *******************************************************************************/
 418:.\Generated_Source\PSoC4/ADC.c **** uint32 ADC_IsEndConversion(uint32 retMode)
 419:.\Generated_Source\PSoC4/ADC.c **** {
 583              		.loc 1 419 0
 584              		.cfi_startproc
 585 0000 80B5     		push	{r7, lr}
 586              		.cfi_def_cfa_offset 8
 587              		.cfi_offset 7, -8
 588              		.cfi_offset 14, -4
 589 0002 84B0     		sub	sp, sp, #16
 590              		.cfi_def_cfa_offset 24
 591 0004 00AF     		add	r7, sp, #0
 592              		.cfi_def_cfa_register 7
 593 0006 7860     		str	r0, [r7, #4]
 420:.\Generated_Source\PSoC4/ADC.c ****     uint32 status = 0u;
 594              		.loc 1 420 0
 595 0008 0023     		mov	r3, #0
 596 000a FB60     		str	r3, [r7, #12]
 421:.\Generated_Source\PSoC4/ADC.c **** 
 422:.\Generated_Source\PSoC4/ADC.c ****     if((retMode & (ADC_RETURN_STATUS | ADC_WAIT_FOR_RESULT)) != 0u)
 597              		.loc 1 422 0
ARM GAS  C:\Users\Zachary\AppData\Local\Temp\ccrWbHoB.s 			page 19


 598 000c 7A68     		ldr	r2, [r7, #4]
 599 000e 0323     		mov	r3, #3
 600 0010 1340     		and	r3, r2
 601 0012 11D0     		beq	.L35
 602              	.L37:
 423:.\Generated_Source\PSoC4/ADC.c ****     {
 424:.\Generated_Source\PSoC4/ADC.c ****         do
 425:.\Generated_Source\PSoC4/ADC.c ****         {
 426:.\Generated_Source\PSoC4/ADC.c ****             status = ADC_SAR_INTR_REG & ADC_EOS_MASK;
 603              		.loc 1 426 0 discriminator 1
 604 0014 184B     		ldr	r3, .L42
 605 0016 1A68     		ldr	r2, [r3]
 606 0018 0123     		mov	r3, #1
 607 001a 1340     		and	r3, r2
 608 001c FB60     		str	r3, [r7, #12]
 427:.\Generated_Source\PSoC4/ADC.c ****         }while((status == 0u) && ((retMode & ADC_WAIT_FOR_RESULT) != 0u));
 609              		.loc 1 427 0 discriminator 1
 610 001e FB68     		ldr	r3, [r7, #12]
 611 0020 002B     		cmp	r3, #0
 612 0022 03D1     		bne	.L36
 613 0024 7A68     		ldr	r2, [r7, #4]
 614 0026 0223     		mov	r3, #2
 615 0028 1340     		and	r3, r2
 616 002a F3D1     		bne	.L37
 617              	.L36:
 428:.\Generated_Source\PSoC4/ADC.c **** 
 429:.\Generated_Source\PSoC4/ADC.c ****         if(status != 0u)
 618              		.loc 1 429 0
 619 002c FB68     		ldr	r3, [r7, #12]
 620 002e 002B     		cmp	r3, #0
 621 0030 02D0     		beq	.L35
 430:.\Generated_Source\PSoC4/ADC.c ****         {
 431:.\Generated_Source\PSoC4/ADC.c ****             /* Clear EOS bit */
 432:.\Generated_Source\PSoC4/ADC.c ****             ADC_SAR_INTR_REG = ADC_EOS_MASK;
 622              		.loc 1 432 0
 623 0032 114B     		ldr	r3, .L42
 624 0034 0122     		mov	r2, #1
 625 0036 1A60     		str	r2, [r3]
 626              	.L35:
 433:.\Generated_Source\PSoC4/ADC.c ****         }
 434:.\Generated_Source\PSoC4/ADC.c ****     }
 435:.\Generated_Source\PSoC4/ADC.c **** 
 436:.\Generated_Source\PSoC4/ADC.c ****     #if(ADC_INJ_CHANNEL_ENABLED)
 437:.\Generated_Source\PSoC4/ADC.c ****         if((retMode & (ADC_RETURN_STATUS_INJ | ADC_WAIT_FOR_RESULT_INJ)) != 0u)
 627              		.loc 1 437 0
 628 0038 7A68     		ldr	r2, [r7, #4]
 629 003a 0C23     		mov	r3, #12
 630 003c 1340     		and	r3, r2
 631 003e 15D0     		beq	.L38
 632              	.L40:
 438:.\Generated_Source\PSoC4/ADC.c ****         {
 439:.\Generated_Source\PSoC4/ADC.c ****             do
 440:.\Generated_Source\PSoC4/ADC.c ****             {
 441:.\Generated_Source\PSoC4/ADC.c ****                 status |= ADC_SAR_INTR_REG & ADC_INJ_EOC_MASK;
 633              		.loc 1 441 0
 634 0040 0D4B     		ldr	r3, .L42
 635 0042 1A68     		ldr	r2, [r3]
ARM GAS  C:\Users\Zachary\AppData\Local\Temp\ccrWbHoB.s 			page 20


 636 0044 1023     		mov	r3, #16
 637 0046 1340     		and	r3, r2
 638 0048 FA68     		ldr	r2, [r7, #12]
 639 004a 1343     		orr	r3, r2
 640 004c FB60     		str	r3, [r7, #12]
 442:.\Generated_Source\PSoC4/ADC.c ****             }while(((status & ADC_INJ_EOC_MASK) == 0u) &&
 641              		.loc 1 442 0
 642 004e FA68     		ldr	r2, [r7, #12]
 643 0050 1023     		mov	r3, #16
 644 0052 1340     		and	r3, r2
 443:.\Generated_Source\PSoC4/ADC.c ****                    ((retMode & ADC_WAIT_FOR_RESULT_INJ) != 0u));
 645              		.loc 1 443 0
 646 0054 03D1     		bne	.L39
 647              		.loc 1 443 0 is_stmt 0 discriminator 1
 648 0056 7A68     		ldr	r2, [r7, #4]
 649 0058 0823     		mov	r3, #8
 650 005a 1340     		and	r3, r2
 442:.\Generated_Source\PSoC4/ADC.c ****             }while(((status & ADC_INJ_EOC_MASK) == 0u) &&
 651              		.loc 1 442 0 is_stmt 1 discriminator 1
 652 005c F0D1     		bne	.L40
 653              	.L39:
 444:.\Generated_Source\PSoC4/ADC.c **** 
 445:.\Generated_Source\PSoC4/ADC.c ****             if((status & ADC_INJ_EOC_MASK) != 0u)
 654              		.loc 1 445 0
 655 005e FA68     		ldr	r2, [r7, #12]
 656 0060 1023     		mov	r3, #16
 657 0062 1340     		and	r3, r2
 658 0064 02D0     		beq	.L38
 446:.\Generated_Source\PSoC4/ADC.c ****             {
 447:.\Generated_Source\PSoC4/ADC.c ****                 /* Clear Injection EOS bit */
 448:.\Generated_Source\PSoC4/ADC.c ****                 ADC_SAR_INTR_REG = ADC_INJ_EOC_MASK;
 659              		.loc 1 448 0
 660 0066 044B     		ldr	r3, .L42
 661 0068 1022     		mov	r2, #16
 662 006a 1A60     		str	r2, [r3]
 663              	.L38:
 449:.\Generated_Source\PSoC4/ADC.c ****             }
 450:.\Generated_Source\PSoC4/ADC.c ****         }
 451:.\Generated_Source\PSoC4/ADC.c ****     #endif /* ADC_INJ_CHANNEL_ENABLED */
 452:.\Generated_Source\PSoC4/ADC.c **** 
 453:.\Generated_Source\PSoC4/ADC.c ****     return (status);
 664              		.loc 1 453 0
 665 006c FB68     		ldr	r3, [r7, #12]
 454:.\Generated_Source\PSoC4/ADC.c **** }
 666              		.loc 1 454 0
 667 006e 181C     		mov	r0, r3
 668 0070 BD46     		mov	sp, r7
 669 0072 04B0     		add	sp, sp, #16
 670              		@ sp needed
 671 0074 80BD     		pop	{r7, pc}
 672              	.L43:
 673 0076 C046     		.align	2
 674              	.L42:
 675 0078 10023A40 		.word	1077543440
 676              		.cfi_endproc
 677              	.LFE8:
 678              		.size	ADC_IsEndConversion, .-ADC_IsEndConversion
ARM GAS  C:\Users\Zachary\AppData\Local\Temp\ccrWbHoB.s 			page 21


 679              		.section	.text.ADC_GetResult16,"ax",%progbits
 680              		.align	2
 681              		.global	ADC_GetResult16
 682              		.code	16
 683              		.thumb_func
 684              		.type	ADC_GetResult16, %function
 685              	ADC_GetResult16:
 686              	.LFB9:
 455:.\Generated_Source\PSoC4/ADC.c **** 
 456:.\Generated_Source\PSoC4/ADC.c **** 
 457:.\Generated_Source\PSoC4/ADC.c **** /*******************************************************************************
 458:.\Generated_Source\PSoC4/ADC.c **** * Function Name: ADC_GetResult16
 459:.\Generated_Source\PSoC4/ADC.c **** ********************************************************************************
 460:.\Generated_Source\PSoC4/ADC.c **** *
 461:.\Generated_Source\PSoC4/ADC.c **** * Summary:
 462:.\Generated_Source\PSoC4/ADC.c **** *  Gets the data available in the SAR DATA register.
 463:.\Generated_Source\PSoC4/ADC.c **** *
 464:.\Generated_Source\PSoC4/ADC.c **** * Parameters:
 465:.\Generated_Source\PSoC4/ADC.c **** *  chan: The ADC channel in which to return the result. The first channel
 466:.\Generated_Source\PSoC4/ADC.c **** *  is 0 and the injection channel if enabled is the number of valid channels.
 467:.\Generated_Source\PSoC4/ADC.c **** *
 468:.\Generated_Source\PSoC4/ADC.c **** * Return:
 469:.\Generated_Source\PSoC4/ADC.c **** *  Returns converted data as a signed 16-bit integer
 470:.\Generated_Source\PSoC4/ADC.c **** *
 471:.\Generated_Source\PSoC4/ADC.c **** *******************************************************************************/
 472:.\Generated_Source\PSoC4/ADC.c **** int16 ADC_GetResult16(uint32 chan)
 473:.\Generated_Source\PSoC4/ADC.c **** {
 687              		.loc 1 473 0
 688              		.cfi_startproc
 689 0000 80B5     		push	{r7, lr}
 690              		.cfi_def_cfa_offset 8
 691              		.cfi_offset 7, -8
 692              		.cfi_offset 14, -4
 693 0002 84B0     		sub	sp, sp, #16
 694              		.cfi_def_cfa_offset 24
 695 0004 00AF     		add	r7, sp, #0
 696              		.cfi_def_cfa_register 7
 697 0006 7860     		str	r0, [r7, #4]
 474:.\Generated_Source\PSoC4/ADC.c ****     uint32 result;
 475:.\Generated_Source\PSoC4/ADC.c **** 
 476:.\Generated_Source\PSoC4/ADC.c ****     /* Halt CPU in debug mode if channel is out of valid range */
 477:.\Generated_Source\PSoC4/ADC.c ****     CYASSERT(chan < ADC_TOTAL_CHANNELS_NUM);
 698              		.loc 1 477 0
 699 0008 7B68     		ldr	r3, [r7, #4]
 700 000a 012B     		cmp	r3, #1
 701 000c 02D9     		bls	.L45
 702              		.loc 1 477 0 is_stmt 0 discriminator 1
 703 000e 0020     		mov	r0, #0
 704 0010 FFF7FEFF 		bl	CyHalt
 705              	.L45:
 478:.\Generated_Source\PSoC4/ADC.c **** 
 479:.\Generated_Source\PSoC4/ADC.c ****     if(chan < ADC_SEQUENCED_CHANNELS_NUM)
 706              		.loc 1 479 0 is_stmt 1
 707 0014 7B68     		ldr	r3, [r7, #4]
 708 0016 002B     		cmp	r3, #0
 709 0018 08D1     		bne	.L46
 480:.\Generated_Source\PSoC4/ADC.c ****     {
ARM GAS  C:\Users\Zachary\AppData\Local\Temp\ccrWbHoB.s 			page 22


 481:.\Generated_Source\PSoC4/ADC.c ****         result = CY_GET_REG32((reg32 *)(ADC_SAR_CHAN_RESULT_IND + (uint32)(chan << 2u))) &
 710              		.loc 1 481 0
 711 001a 7B68     		ldr	r3, [r7, #4]
 712 001c 9B00     		lsl	r3, r3, #2
 713 001e 094A     		ldr	r2, .L49
 714 0020 9B18     		add	r3, r3, r2
 715 0022 1B68     		ldr	r3, [r3]
 716 0024 1B04     		lsl	r3, r3, #16
 717 0026 1B0C     		lsr	r3, r3, #16
 718 0028 FB60     		str	r3, [r7, #12]
 719 002a 04E0     		b	.L47
 720              	.L46:
 482:.\Generated_Source\PSoC4/ADC.c ****                 ADC_RESULT_MASK;
 483:.\Generated_Source\PSoC4/ADC.c ****     }
 484:.\Generated_Source\PSoC4/ADC.c ****     else
 485:.\Generated_Source\PSoC4/ADC.c ****     {
 486:.\Generated_Source\PSoC4/ADC.c ****         #if(ADC_INJ_CHANNEL_ENABLED)
 487:.\Generated_Source\PSoC4/ADC.c ****             result = ADC_SAR_INJ_RESULT_REG & ADC_RESULT_MASK;
 721              		.loc 1 487 0
 722 002c 064B     		ldr	r3, .L49+4
 723 002e 1B68     		ldr	r3, [r3]
 724 0030 1B04     		lsl	r3, r3, #16
 725 0032 1B0C     		lsr	r3, r3, #16
 726 0034 FB60     		str	r3, [r7, #12]
 727              	.L47:
 488:.\Generated_Source\PSoC4/ADC.c ****         #else
 489:.\Generated_Source\PSoC4/ADC.c ****             result = 0u;
 490:.\Generated_Source\PSoC4/ADC.c ****         #endif /* ADC_INJ_CHANNEL_ENABLED */
 491:.\Generated_Source\PSoC4/ADC.c ****     }
 492:.\Generated_Source\PSoC4/ADC.c **** 
 493:.\Generated_Source\PSoC4/ADC.c ****     return ( (int16)result );
 728              		.loc 1 493 0
 729 0036 FB68     		ldr	r3, [r7, #12]
 730 0038 9BB2     		uxth	r3, r3
 731 003a 1BB2     		sxth	r3, r3
 494:.\Generated_Source\PSoC4/ADC.c **** }
 732              		.loc 1 494 0
 733 003c 181C     		mov	r0, r3
 734 003e BD46     		mov	sp, r7
 735 0040 04B0     		add	sp, sp, #16
 736              		@ sp needed
 737 0042 80BD     		pop	{r7, pc}
 738              	.L50:
 739              		.align	2
 740              	.L49:
 741 0044 80013A40 		.word	1077543296
 742 0048 90023A40 		.word	1077543568
 743              		.cfi_endproc
 744              	.LFE9:
 745              		.size	ADC_GetResult16, .-ADC_GetResult16
 746              		.section	.text.ADC_SetChanMask,"ax",%progbits
 747              		.align	2
 748              		.global	ADC_SetChanMask
 749              		.code	16
 750              		.thumb_func
 751              		.type	ADC_SetChanMask, %function
 752              	ADC_SetChanMask:
ARM GAS  C:\Users\Zachary\AppData\Local\Temp\ccrWbHoB.s 			page 23


 753              	.LFB10:
 495:.\Generated_Source\PSoC4/ADC.c **** 
 496:.\Generated_Source\PSoC4/ADC.c **** 
 497:.\Generated_Source\PSoC4/ADC.c **** /*******************************************************************************
 498:.\Generated_Source\PSoC4/ADC.c **** * Function Name: ADC_SetChanMask
 499:.\Generated_Source\PSoC4/ADC.c **** ********************************************************************************
 500:.\Generated_Source\PSoC4/ADC.c **** *
 501:.\Generated_Source\PSoC4/ADC.c **** * Summary:
 502:.\Generated_Source\PSoC4/ADC.c **** *  Sets the channel enable mask.
 503:.\Generated_Source\PSoC4/ADC.c **** *
 504:.\Generated_Source\PSoC4/ADC.c **** * Parameters:
 505:.\Generated_Source\PSoC4/ADC.c **** *  mask: Sets which channels that will be
 506:.\Generated_Source\PSoC4/ADC.c **** *  scanned. Setting bits for channels that do not exist will have no
 507:.\Generated_Source\PSoC4/ADC.c **** *  effect. For example, if only 6 channels were enabled, setting a
 508:.\Generated_Source\PSoC4/ADC.c **** *  mask of 0x0103 would only enable the last two channels (0 and 1).
 509:.\Generated_Source\PSoC4/ADC.c **** *  This API will not enable the injection channel.
 510:.\Generated_Source\PSoC4/ADC.c **** *  Examples: If the component is setup to sequence through 8
 511:.\Generated_Source\PSoC4/ADC.c **** *  channels, a mask of 0x000F would enable channels 0, 1, 2, and 3.
 512:.\Generated_Source\PSoC4/ADC.c **** *
 513:.\Generated_Source\PSoC4/ADC.c **** * Return:
 514:.\Generated_Source\PSoC4/ADC.c **** *  None.
 515:.\Generated_Source\PSoC4/ADC.c **** *
 516:.\Generated_Source\PSoC4/ADC.c **** *******************************************************************************/
 517:.\Generated_Source\PSoC4/ADC.c **** void ADC_SetChanMask(uint32 mask)
 518:.\Generated_Source\PSoC4/ADC.c **** {
 754              		.loc 1 518 0
 755              		.cfi_startproc
 756 0000 80B5     		push	{r7, lr}
 757              		.cfi_def_cfa_offset 8
 758              		.cfi_offset 7, -8
 759              		.cfi_offset 14, -4
 760 0002 82B0     		sub	sp, sp, #8
 761              		.cfi_def_cfa_offset 16
 762 0004 00AF     		add	r7, sp, #0
 763              		.cfi_def_cfa_register 7
 764 0006 7860     		str	r0, [r7, #4]
 519:.\Generated_Source\PSoC4/ADC.c ****     ADC_SAR_CHAN_EN_REG = mask & ADC_MAX_CHANNELS_EN_MASK;
 765              		.loc 1 519 0
 766 0008 034B     		ldr	r3, .L52
 767 000a 7968     		ldr	r1, [r7, #4]
 768 000c 0122     		mov	r2, #1
 769 000e 0A40     		and	r2, r1
 770 0010 1A60     		str	r2, [r3]
 520:.\Generated_Source\PSoC4/ADC.c **** }
 771              		.loc 1 520 0
 772 0012 BD46     		mov	sp, r7
 773 0014 02B0     		add	sp, sp, #8
 774              		@ sp needed
 775 0016 80BD     		pop	{r7, pc}
 776              	.L53:
 777              		.align	2
 778              	.L52:
 779 0018 20003A40 		.word	1077542944
 780              		.cfi_endproc
 781              	.LFE10:
 782              		.size	ADC_SetChanMask, .-ADC_SetChanMask
 783              		.section	.text.ADC_EnableInjection,"ax",%progbits
ARM GAS  C:\Users\Zachary\AppData\Local\Temp\ccrWbHoB.s 			page 24


 784              		.align	2
 785              		.global	ADC_EnableInjection
 786              		.code	16
 787              		.thumb_func
 788              		.type	ADC_EnableInjection, %function
 789              	ADC_EnableInjection:
 790              	.LFB11:
 521:.\Generated_Source\PSoC4/ADC.c **** 
 522:.\Generated_Source\PSoC4/ADC.c **** #if(ADC_INJ_CHANNEL_ENABLED)
 523:.\Generated_Source\PSoC4/ADC.c **** 
 524:.\Generated_Source\PSoC4/ADC.c **** 
 525:.\Generated_Source\PSoC4/ADC.c ****     /*******************************************************************************
 526:.\Generated_Source\PSoC4/ADC.c ****     * Function Name: ADC_EnableInjection
 527:.\Generated_Source\PSoC4/ADC.c ****     ********************************************************************************
 528:.\Generated_Source\PSoC4/ADC.c ****     *
 529:.\Generated_Source\PSoC4/ADC.c ****     * Summary:
 530:.\Generated_Source\PSoC4/ADC.c ****     *  Enables the injection channel for the next scan only.
 531:.\Generated_Source\PSoC4/ADC.c ****     *
 532:.\Generated_Source\PSoC4/ADC.c ****     * Parameters:
 533:.\Generated_Source\PSoC4/ADC.c ****     *  None.
 534:.\Generated_Source\PSoC4/ADC.c ****     *
 535:.\Generated_Source\PSoC4/ADC.c ****     * Return:
 536:.\Generated_Source\PSoC4/ADC.c ****     *  None.
 537:.\Generated_Source\PSoC4/ADC.c ****     *
 538:.\Generated_Source\PSoC4/ADC.c ****     *******************************************************************************/
 539:.\Generated_Source\PSoC4/ADC.c ****     void ADC_EnableInjection(void)
 540:.\Generated_Source\PSoC4/ADC.c ****     {
 791              		.loc 1 540 0
 792              		.cfi_startproc
 793 0000 80B5     		push	{r7, lr}
 794              		.cfi_def_cfa_offset 8
 795              		.cfi_offset 7, -8
 796              		.cfi_offset 14, -4
 797 0002 00AF     		add	r7, sp, #0
 798              		.cfi_def_cfa_register 7
 541:.\Generated_Source\PSoC4/ADC.c ****         ADC_SAR_INJ_CHAN_CONFIG_REG |= ADC_INJ_CHAN_EN;
 799              		.loc 1 541 0
 800 0004 044B     		ldr	r3, .L55
 801 0006 044A     		ldr	r2, .L55
 802 0008 1268     		ldr	r2, [r2]
 803 000a 8021     		mov	r1, #128
 804 000c 0906     		lsl	r1, r1, #24
 805 000e 0A43     		orr	r2, r1
 806 0010 1A60     		str	r2, [r3]
 542:.\Generated_Source\PSoC4/ADC.c ****     }
 807              		.loc 1 542 0
 808 0012 BD46     		mov	sp, r7
 809              		@ sp needed
 810 0014 80BD     		pop	{r7, pc}
 811              	.L56:
 812 0016 C046     		.align	2
 813              	.L55:
 814 0018 80023A40 		.word	1077543552
 815              		.cfi_endproc
 816              	.LFE11:
 817              		.size	ADC_EnableInjection, .-ADC_EnableInjection
 818              		.section	.text.ADC_SetLowLimit,"ax",%progbits
ARM GAS  C:\Users\Zachary\AppData\Local\Temp\ccrWbHoB.s 			page 25


 819              		.align	2
 820              		.global	ADC_SetLowLimit
 821              		.code	16
 822              		.thumb_func
 823              		.type	ADC_SetLowLimit, %function
 824              	ADC_SetLowLimit:
 825              	.LFB12:
 543:.\Generated_Source\PSoC4/ADC.c **** 
 544:.\Generated_Source\PSoC4/ADC.c **** #endif /* ADC_INJ_CHANNEL_ENABLED */
 545:.\Generated_Source\PSoC4/ADC.c **** 
 546:.\Generated_Source\PSoC4/ADC.c **** 
 547:.\Generated_Source\PSoC4/ADC.c **** /*******************************************************************************
 548:.\Generated_Source\PSoC4/ADC.c **** * Function Name: ADC_SetLowLimit
 549:.\Generated_Source\PSoC4/ADC.c **** ********************************************************************************
 550:.\Generated_Source\PSoC4/ADC.c **** *
 551:.\Generated_Source\PSoC4/ADC.c **** * Summary:
 552:.\Generated_Source\PSoC4/ADC.c **** *  Sets the low limit parameter for a limit condition.
 553:.\Generated_Source\PSoC4/ADC.c **** *
 554:.\Generated_Source\PSoC4/ADC.c **** * Parameters:
 555:.\Generated_Source\PSoC4/ADC.c **** *  lowLimit: The low limit for a limit condition.
 556:.\Generated_Source\PSoC4/ADC.c **** *
 557:.\Generated_Source\PSoC4/ADC.c **** * Return:
 558:.\Generated_Source\PSoC4/ADC.c **** *  None.
 559:.\Generated_Source\PSoC4/ADC.c **** *
 560:.\Generated_Source\PSoC4/ADC.c **** *******************************************************************************/
 561:.\Generated_Source\PSoC4/ADC.c **** void ADC_SetLowLimit(uint32 lowLimit)
 562:.\Generated_Source\PSoC4/ADC.c **** {
 826              		.loc 1 562 0
 827              		.cfi_startproc
 828 0000 80B5     		push	{r7, lr}
 829              		.cfi_def_cfa_offset 8
 830              		.cfi_offset 7, -8
 831              		.cfi_offset 14, -4
 832 0002 82B0     		sub	sp, sp, #8
 833              		.cfi_def_cfa_offset 16
 834 0004 00AF     		add	r7, sp, #0
 835              		.cfi_def_cfa_register 7
 836 0006 7860     		str	r0, [r7, #4]
 563:.\Generated_Source\PSoC4/ADC.c ****     ADC_SAR_RANGE_THRES_REG &= (uint32)(~ADC_RANGE_LOW_MASK);
 837              		.loc 1 563 0
 838 0008 084B     		ldr	r3, .L58
 839 000a 084A     		ldr	r2, .L58
 840 000c 1268     		ldr	r2, [r2]
 841 000e 120C     		lsr	r2, r2, #16
 842 0010 1204     		lsl	r2, r2, #16
 843 0012 1A60     		str	r2, [r3]
 564:.\Generated_Source\PSoC4/ADC.c ****     ADC_SAR_RANGE_THRES_REG |= lowLimit & ADC_RANGE_LOW_MASK;
 844              		.loc 1 564 0
 845 0014 054B     		ldr	r3, .L58
 846 0016 054A     		ldr	r2, .L58
 847 0018 1168     		ldr	r1, [r2]
 848 001a 7A68     		ldr	r2, [r7, #4]
 849 001c 1204     		lsl	r2, r2, #16
 850 001e 120C     		lsr	r2, r2, #16
 851 0020 0A43     		orr	r2, r1
 852 0022 1A60     		str	r2, [r3]
 565:.\Generated_Source\PSoC4/ADC.c **** }
ARM GAS  C:\Users\Zachary\AppData\Local\Temp\ccrWbHoB.s 			page 26


 853              		.loc 1 565 0
 854 0024 BD46     		mov	sp, r7
 855 0026 02B0     		add	sp, sp, #8
 856              		@ sp needed
 857 0028 80BD     		pop	{r7, pc}
 858              	.L59:
 859 002a C046     		.align	2
 860              	.L58:
 861 002c 18003A40 		.word	1077542936
 862              		.cfi_endproc
 863              	.LFE12:
 864              		.size	ADC_SetLowLimit, .-ADC_SetLowLimit
 865              		.section	.text.ADC_SetHighLimit,"ax",%progbits
 866              		.align	2
 867              		.global	ADC_SetHighLimit
 868              		.code	16
 869              		.thumb_func
 870              		.type	ADC_SetHighLimit, %function
 871              	ADC_SetHighLimit:
 872              	.LFB13:
 566:.\Generated_Source\PSoC4/ADC.c **** 
 567:.\Generated_Source\PSoC4/ADC.c **** 
 568:.\Generated_Source\PSoC4/ADC.c **** /*******************************************************************************
 569:.\Generated_Source\PSoC4/ADC.c **** * Function Name: ADC_SetHighLimit
 570:.\Generated_Source\PSoC4/ADC.c **** ********************************************************************************
 571:.\Generated_Source\PSoC4/ADC.c **** *
 572:.\Generated_Source\PSoC4/ADC.c **** * Summary:
 573:.\Generated_Source\PSoC4/ADC.c **** *  Sets the low limit parameter for a limit condition.
 574:.\Generated_Source\PSoC4/ADC.c **** *
 575:.\Generated_Source\PSoC4/ADC.c **** * Parameters:
 576:.\Generated_Source\PSoC4/ADC.c **** *  highLimit: The high limit for a limit condition.
 577:.\Generated_Source\PSoC4/ADC.c **** *
 578:.\Generated_Source\PSoC4/ADC.c **** * Return:
 579:.\Generated_Source\PSoC4/ADC.c **** *  None.
 580:.\Generated_Source\PSoC4/ADC.c **** *
 581:.\Generated_Source\PSoC4/ADC.c **** *******************************************************************************/
 582:.\Generated_Source\PSoC4/ADC.c **** void ADC_SetHighLimit(uint32 highLimit)
 583:.\Generated_Source\PSoC4/ADC.c **** {
 873              		.loc 1 583 0
 874              		.cfi_startproc
 875 0000 80B5     		push	{r7, lr}
 876              		.cfi_def_cfa_offset 8
 877              		.cfi_offset 7, -8
 878              		.cfi_offset 14, -4
 879 0002 82B0     		sub	sp, sp, #8
 880              		.cfi_def_cfa_offset 16
 881 0004 00AF     		add	r7, sp, #0
 882              		.cfi_def_cfa_register 7
 883 0006 7860     		str	r0, [r7, #4]
 584:.\Generated_Source\PSoC4/ADC.c ****     ADC_SAR_RANGE_THRES_REG &= (uint32)(~ADC_RANGE_HIGH_MASK);
 884              		.loc 1 584 0
 885 0008 074B     		ldr	r3, .L61
 886 000a 074A     		ldr	r2, .L61
 887 000c 1268     		ldr	r2, [r2]
 888 000e 1204     		lsl	r2, r2, #16
 889 0010 120C     		lsr	r2, r2, #16
 890 0012 1A60     		str	r2, [r3]
ARM GAS  C:\Users\Zachary\AppData\Local\Temp\ccrWbHoB.s 			page 27


 585:.\Generated_Source\PSoC4/ADC.c ****     ADC_SAR_RANGE_THRES_REG |= (uint32)(highLimit << ADC_RANGE_HIGH_OFFSET);
 891              		.loc 1 585 0
 892 0014 044B     		ldr	r3, .L61
 893 0016 044A     		ldr	r2, .L61
 894 0018 1168     		ldr	r1, [r2]
 895 001a 7A68     		ldr	r2, [r7, #4]
 896 001c 1204     		lsl	r2, r2, #16
 897 001e 0A43     		orr	r2, r1
 898 0020 1A60     		str	r2, [r3]
 586:.\Generated_Source\PSoC4/ADC.c **** }
 899              		.loc 1 586 0
 900 0022 BD46     		mov	sp, r7
 901 0024 02B0     		add	sp, sp, #8
 902              		@ sp needed
 903 0026 80BD     		pop	{r7, pc}
 904              	.L62:
 905              		.align	2
 906              	.L61:
 907 0028 18003A40 		.word	1077542936
 908              		.cfi_endproc
 909              	.LFE13:
 910              		.size	ADC_SetHighLimit, .-ADC_SetHighLimit
 911              		.section	.text.ADC_SetLimitMask,"ax",%progbits
 912              		.align	2
 913              		.global	ADC_SetLimitMask
 914              		.code	16
 915              		.thumb_func
 916              		.type	ADC_SetLimitMask, %function
 917              	ADC_SetLimitMask:
 918              	.LFB14:
 587:.\Generated_Source\PSoC4/ADC.c **** 
 588:.\Generated_Source\PSoC4/ADC.c **** 
 589:.\Generated_Source\PSoC4/ADC.c **** /*******************************************************************************
 590:.\Generated_Source\PSoC4/ADC.c **** * Function Name: ADC_SetLimitMask
 591:.\Generated_Source\PSoC4/ADC.c **** ********************************************************************************
 592:.\Generated_Source\PSoC4/ADC.c **** *
 593:.\Generated_Source\PSoC4/ADC.c **** * Summary:
 594:.\Generated_Source\PSoC4/ADC.c **** *  Sets the channel limit condition mask.
 595:.\Generated_Source\PSoC4/ADC.c **** *
 596:.\Generated_Source\PSoC4/ADC.c **** * Parameters:
 597:.\Generated_Source\PSoC4/ADC.c **** *  mask: Sets which channels that may cause a
 598:.\Generated_Source\PSoC4/ADC.c **** *  limit condition interrupt. Setting bits for channels that do not exist
 599:.\Generated_Source\PSoC4/ADC.c **** *  will have no effect. For example, if only 6 channels were enabled,
 600:.\Generated_Source\PSoC4/ADC.c **** *  setting a mask of 0x0103 would only enable the last two channels (0 and 1).
 601:.\Generated_Source\PSoC4/ADC.c **** *
 602:.\Generated_Source\PSoC4/ADC.c **** * Return:
 603:.\Generated_Source\PSoC4/ADC.c **** *  None.
 604:.\Generated_Source\PSoC4/ADC.c **** *
 605:.\Generated_Source\PSoC4/ADC.c **** *******************************************************************************/
 606:.\Generated_Source\PSoC4/ADC.c **** void ADC_SetLimitMask(uint32 mask)
 607:.\Generated_Source\PSoC4/ADC.c **** {
 919              		.loc 1 607 0
 920              		.cfi_startproc
 921 0000 80B5     		push	{r7, lr}
 922              		.cfi_def_cfa_offset 8
 923              		.cfi_offset 7, -8
 924              		.cfi_offset 14, -4
ARM GAS  C:\Users\Zachary\AppData\Local\Temp\ccrWbHoB.s 			page 28


 925 0002 82B0     		sub	sp, sp, #8
 926              		.cfi_def_cfa_offset 16
 927 0004 00AF     		add	r7, sp, #0
 928              		.cfi_def_cfa_register 7
 929 0006 7860     		str	r0, [r7, #4]
 608:.\Generated_Source\PSoC4/ADC.c ****     ADC_SAR_RANGE_INTR_MASK_REG = mask & ADC_MAX_CHANNELS_EN_MASK;
 930              		.loc 1 608 0
 931 0008 034B     		ldr	r3, .L64
 932 000a 7968     		ldr	r1, [r7, #4]
 933 000c 0122     		mov	r2, #1
 934 000e 0A40     		and	r2, r1
 935 0010 1A60     		str	r2, [r3]
 609:.\Generated_Source\PSoC4/ADC.c **** }
 936              		.loc 1 609 0
 937 0012 BD46     		mov	sp, r7
 938 0014 02B0     		add	sp, sp, #8
 939              		@ sp needed
 940 0016 80BD     		pop	{r7, pc}
 941              	.L65:
 942              		.align	2
 943              	.L64:
 944 0018 38023A40 		.word	1077543480
 945              		.cfi_endproc
 946              	.LFE14:
 947              		.size	ADC_SetLimitMask, .-ADC_SetLimitMask
 948              		.section	.text.ADC_SetSatMask,"ax",%progbits
 949              		.align	2
 950              		.global	ADC_SetSatMask
 951              		.code	16
 952              		.thumb_func
 953              		.type	ADC_SetSatMask, %function
 954              	ADC_SetSatMask:
 955              	.LFB15:
 610:.\Generated_Source\PSoC4/ADC.c **** 
 611:.\Generated_Source\PSoC4/ADC.c **** 
 612:.\Generated_Source\PSoC4/ADC.c **** /*******************************************************************************
 613:.\Generated_Source\PSoC4/ADC.c **** * Function Name: ADC_SetSatMask
 614:.\Generated_Source\PSoC4/ADC.c **** ********************************************************************************
 615:.\Generated_Source\PSoC4/ADC.c **** *
 616:.\Generated_Source\PSoC4/ADC.c **** * Summary:
 617:.\Generated_Source\PSoC4/ADC.c **** *  Sets the channel saturation event mask.
 618:.\Generated_Source\PSoC4/ADC.c **** *
 619:.\Generated_Source\PSoC4/ADC.c **** * Parameters:
 620:.\Generated_Source\PSoC4/ADC.c **** *  mask: Sets which channels that may cause a
 621:.\Generated_Source\PSoC4/ADC.c **** *  saturation event interrupt. Setting bits for channels that do not exist
 622:.\Generated_Source\PSoC4/ADC.c **** *  will have no effect. For example, if only 8 channels were enabled,
 623:.\Generated_Source\PSoC4/ADC.c **** *  setting a mask of 0x01C0 would only enable two channels (6 and 7).
 624:.\Generated_Source\PSoC4/ADC.c **** *
 625:.\Generated_Source\PSoC4/ADC.c **** * Return:
 626:.\Generated_Source\PSoC4/ADC.c **** *  None.
 627:.\Generated_Source\PSoC4/ADC.c **** *
 628:.\Generated_Source\PSoC4/ADC.c **** *******************************************************************************/
 629:.\Generated_Source\PSoC4/ADC.c **** void ADC_SetSatMask(uint32 mask)
 630:.\Generated_Source\PSoC4/ADC.c **** {
 956              		.loc 1 630 0
 957              		.cfi_startproc
 958 0000 80B5     		push	{r7, lr}
ARM GAS  C:\Users\Zachary\AppData\Local\Temp\ccrWbHoB.s 			page 29


 959              		.cfi_def_cfa_offset 8
 960              		.cfi_offset 7, -8
 961              		.cfi_offset 14, -4
 962 0002 82B0     		sub	sp, sp, #8
 963              		.cfi_def_cfa_offset 16
 964 0004 00AF     		add	r7, sp, #0
 965              		.cfi_def_cfa_register 7
 966 0006 7860     		str	r0, [r7, #4]
 631:.\Generated_Source\PSoC4/ADC.c ****     ADC_SAR_SATURATE_INTR_MASK_REG = mask & ADC_MAX_CHANNELS_EN_MASK;
 967              		.loc 1 631 0
 968 0008 034B     		ldr	r3, .L67
 969 000a 7968     		ldr	r1, [r7, #4]
 970 000c 0122     		mov	r2, #1
 971 000e 0A40     		and	r2, r1
 972 0010 1A60     		str	r2, [r3]
 632:.\Generated_Source\PSoC4/ADC.c **** }
 973              		.loc 1 632 0
 974 0012 BD46     		mov	sp, r7
 975 0014 02B0     		add	sp, sp, #8
 976              		@ sp needed
 977 0016 80BD     		pop	{r7, pc}
 978              	.L68:
 979              		.align	2
 980              	.L67:
 981 0018 28023A40 		.word	1077543464
 982              		.cfi_endproc
 983              	.LFE15:
 984              		.size	ADC_SetSatMask, .-ADC_SetSatMask
 985              		.section	.text.ADC_SetOffset,"ax",%progbits
 986              		.align	2
 987              		.global	ADC_SetOffset
 988              		.code	16
 989              		.thumb_func
 990              		.type	ADC_SetOffset, %function
 991              	ADC_SetOffset:
 992              	.LFB16:
 633:.\Generated_Source\PSoC4/ADC.c **** 
 634:.\Generated_Source\PSoC4/ADC.c **** 
 635:.\Generated_Source\PSoC4/ADC.c **** /*******************************************************************************
 636:.\Generated_Source\PSoC4/ADC.c **** * Function Name: ADC_SetOffset
 637:.\Generated_Source\PSoC4/ADC.c **** ********************************************************************************
 638:.\Generated_Source\PSoC4/ADC.c **** *
 639:.\Generated_Source\PSoC4/ADC.c **** * Summary:
 640:.\Generated_Source\PSoC4/ADC.c **** *   Description: Sets the ADC offset which is used by the functions
 641:.\Generated_Source\PSoC4/ADC.c **** *   ADC_CountsTo_uVolts, ADC_CountsTo_mVolts and ADC_CountsTo_Volts
 642:.\Generated_Source\PSoC4/ADC.c **** *   to substract the offset from the given reading
 643:.\Generated_Source\PSoC4/ADC.c **** *   before calculating the voltage conversion.
 644:.\Generated_Source\PSoC4/ADC.c **** *
 645:.\Generated_Source\PSoC4/ADC.c **** * Parameters:
 646:.\Generated_Source\PSoC4/ADC.c **** *  chan: ADC channel number.
 647:.\Generated_Source\PSoC4/ADC.c **** *  offset: This value is a measured value when the
 648:.\Generated_Source\PSoC4/ADC.c **** *          inputs are shorted or connected to the same input voltage.
 649:.\Generated_Source\PSoC4/ADC.c **** *
 650:.\Generated_Source\PSoC4/ADC.c **** * Return:
 651:.\Generated_Source\PSoC4/ADC.c **** *  None.
 652:.\Generated_Source\PSoC4/ADC.c **** *
 653:.\Generated_Source\PSoC4/ADC.c **** * Global variables:
ARM GAS  C:\Users\Zachary\AppData\Local\Temp\ccrWbHoB.s 			page 30


 654:.\Generated_Source\PSoC4/ADC.c **** *  ADC_Offset:  Modified to set the user provided offset.
 655:.\Generated_Source\PSoC4/ADC.c **** *
 656:.\Generated_Source\PSoC4/ADC.c **** *******************************************************************************/
 657:.\Generated_Source\PSoC4/ADC.c **** void ADC_SetOffset(uint32 chan, int16 offset)
 658:.\Generated_Source\PSoC4/ADC.c **** {
 993              		.loc 1 658 0
 994              		.cfi_startproc
 995 0000 80B5     		push	{r7, lr}
 996              		.cfi_def_cfa_offset 8
 997              		.cfi_offset 7, -8
 998              		.cfi_offset 14, -4
 999 0002 82B0     		sub	sp, sp, #8
 1000              		.cfi_def_cfa_offset 16
 1001 0004 00AF     		add	r7, sp, #0
 1002              		.cfi_def_cfa_register 7
 1003 0006 7860     		str	r0, [r7, #4]
 1004 0008 0A1C     		mov	r2, r1
 1005 000a BB1C     		add	r3, r7, #2
 1006 000c 1A80     		strh	r2, [r3]
 659:.\Generated_Source\PSoC4/ADC.c ****     /* Halt CPU in debug mode if channel is out of valid range */
 660:.\Generated_Source\PSoC4/ADC.c ****     CYASSERT(chan < ADC_TOTAL_CHANNELS_NUM);
 1007              		.loc 1 660 0
 1008 000e 7B68     		ldr	r3, [r7, #4]
 1009 0010 012B     		cmp	r3, #1
 1010 0012 02D9     		bls	.L70
 1011              		.loc 1 660 0 is_stmt 0 discriminator 1
 1012 0014 0020     		mov	r0, #0
 1013 0016 FFF7FEFF 		bl	CyHalt
 1014              	.L70:
 661:.\Generated_Source\PSoC4/ADC.c **** 
 662:.\Generated_Source\PSoC4/ADC.c ****     ADC_offset[chan] = offset;
 1015              		.loc 1 662 0 is_stmt 1
 1016 001a 044B     		ldr	r3, .L71
 1017 001c 7A68     		ldr	r2, [r7, #4]
 1018 001e 5200     		lsl	r2, r2, #1
 1019 0020 B91C     		add	r1, r7, #2
 1020 0022 0988     		ldrh	r1, [r1]
 1021 0024 D152     		strh	r1, [r2, r3]
 663:.\Generated_Source\PSoC4/ADC.c **** }
 1022              		.loc 1 663 0
 1023 0026 BD46     		mov	sp, r7
 1024 0028 02B0     		add	sp, sp, #8
 1025              		@ sp needed
 1026 002a 80BD     		pop	{r7, pc}
 1027              	.L72:
 1028              		.align	2
 1029              	.L71:
 1030 002c 00000000 		.word	ADC_offset
 1031              		.cfi_endproc
 1032              	.LFE16:
 1033              		.size	ADC_SetOffset, .-ADC_SetOffset
 1034              		.section	.text.ADC_SetGain,"ax",%progbits
 1035              		.align	2
 1036              		.global	ADC_SetGain
 1037              		.code	16
 1038              		.thumb_func
 1039              		.type	ADC_SetGain, %function
ARM GAS  C:\Users\Zachary\AppData\Local\Temp\ccrWbHoB.s 			page 31


 1040              	ADC_SetGain:
 1041              	.LFB17:
 664:.\Generated_Source\PSoC4/ADC.c **** 
 665:.\Generated_Source\PSoC4/ADC.c **** 
 666:.\Generated_Source\PSoC4/ADC.c **** /*******************************************************************************
 667:.\Generated_Source\PSoC4/ADC.c **** * Function Name: ADC_SetGain
 668:.\Generated_Source\PSoC4/ADC.c **** ********************************************************************************
 669:.\Generated_Source\PSoC4/ADC.c **** *
 670:.\Generated_Source\PSoC4/ADC.c **** * Summary:
 671:.\Generated_Source\PSoC4/ADC.c **** *  Description: Sets the ADC gain in counts per 10 volt for the voltage
 672:.\Generated_Source\PSoC4/ADC.c **** *  conversion functions below. This value is set by default by the
 673:.\Generated_Source\PSoC4/ADC.c **** *  reference and input range settings. It should only be used to further
 674:.\Generated_Source\PSoC4/ADC.c **** *  calibrate the ADC with a known input or if an external reference is
 675:.\Generated_Source\PSoC4/ADC.c **** *  used. Affects the ADC_CountsTo_uVolts, ADC_CountsTo_mVolts
 676:.\Generated_Source\PSoC4/ADC.c **** *  and ADC_CountsTo_Volts functions by supplying the correct
 677:.\Generated_Source\PSoC4/ADC.c **** *  conversion between ADC counts and voltage.
 678:.\Generated_Source\PSoC4/ADC.c **** *
 679:.\Generated_Source\PSoC4/ADC.c **** * Parameters:
 680:.\Generated_Source\PSoC4/ADC.c **** *  chan: ADC channel number.
 681:.\Generated_Source\PSoC4/ADC.c **** *  adcGain: ADC gain in counts per 10 volts.
 682:.\Generated_Source\PSoC4/ADC.c **** *
 683:.\Generated_Source\PSoC4/ADC.c **** * Return:
 684:.\Generated_Source\PSoC4/ADC.c **** *  None.
 685:.\Generated_Source\PSoC4/ADC.c **** *
 686:.\Generated_Source\PSoC4/ADC.c **** * Global variables:
 687:.\Generated_Source\PSoC4/ADC.c **** *  ADC_CountsPer10Volt:  modified to set the ADC gain in counts
 688:.\Generated_Source\PSoC4/ADC.c **** *   per 10 volt.
 689:.\Generated_Source\PSoC4/ADC.c **** *
 690:.\Generated_Source\PSoC4/ADC.c **** *******************************************************************************/
 691:.\Generated_Source\PSoC4/ADC.c **** void ADC_SetGain(uint32 chan, int32 adcGain)
 692:.\Generated_Source\PSoC4/ADC.c **** {
 1042              		.loc 1 692 0
 1043              		.cfi_startproc
 1044 0000 80B5     		push	{r7, lr}
 1045              		.cfi_def_cfa_offset 8
 1046              		.cfi_offset 7, -8
 1047              		.cfi_offset 14, -4
 1048 0002 82B0     		sub	sp, sp, #8
 1049              		.cfi_def_cfa_offset 16
 1050 0004 00AF     		add	r7, sp, #0
 1051              		.cfi_def_cfa_register 7
 1052 0006 7860     		str	r0, [r7, #4]
 1053 0008 3960     		str	r1, [r7]
 693:.\Generated_Source\PSoC4/ADC.c ****     /* Halt CPU in debug mode if channel is out of valid range */
 694:.\Generated_Source\PSoC4/ADC.c ****     CYASSERT(chan < ADC_TOTAL_CHANNELS_NUM);
 1054              		.loc 1 694 0
 1055 000a 7B68     		ldr	r3, [r7, #4]
 1056 000c 012B     		cmp	r3, #1
 1057 000e 02D9     		bls	.L74
 1058              		.loc 1 694 0 is_stmt 0 discriminator 1
 1059 0010 0020     		mov	r0, #0
 1060 0012 FFF7FEFF 		bl	CyHalt
 1061              	.L74:
 695:.\Generated_Source\PSoC4/ADC.c **** 
 696:.\Generated_Source\PSoC4/ADC.c ****     ADC_countsPer10Volt[chan] = adcGain;
 1062              		.loc 1 696 0 is_stmt 1
 1063 0016 044B     		ldr	r3, .L75
ARM GAS  C:\Users\Zachary\AppData\Local\Temp\ccrWbHoB.s 			page 32


 1064 0018 7A68     		ldr	r2, [r7, #4]
 1065 001a 9200     		lsl	r2, r2, #2
 1066 001c 3968     		ldr	r1, [r7]
 1067 001e D150     		str	r1, [r2, r3]
 697:.\Generated_Source\PSoC4/ADC.c **** }
 1068              		.loc 1 697 0
 1069 0020 BD46     		mov	sp, r7
 1070 0022 02B0     		add	sp, sp, #8
 1071              		@ sp needed
 1072 0024 80BD     		pop	{r7, pc}
 1073              	.L76:
 1074 0026 C046     		.align	2
 1075              	.L75:
 1076 0028 00000000 		.word	ADC_countsPer10Volt
 1077              		.cfi_endproc
 1078              	.LFE17:
 1079              		.size	ADC_SetGain, .-ADC_SetGain
 1080              		.section	.text.ADC_CountsTo_mVolts,"ax",%progbits
 1081              		.align	2
 1082              		.global	ADC_CountsTo_mVolts
 1083              		.code	16
 1084              		.thumb_func
 1085              		.type	ADC_CountsTo_mVolts, %function
 1086              	ADC_CountsTo_mVolts:
 1087              	.LFB18:
 698:.\Generated_Source\PSoC4/ADC.c **** 
 699:.\Generated_Source\PSoC4/ADC.c **** 
 700:.\Generated_Source\PSoC4/ADC.c **** #if(ADC_DEFAULT_JUSTIFICATION_SEL == ADC__RIGHT)
 701:.\Generated_Source\PSoC4/ADC.c **** 
 702:.\Generated_Source\PSoC4/ADC.c **** 
 703:.\Generated_Source\PSoC4/ADC.c ****     /*******************************************************************************
 704:.\Generated_Source\PSoC4/ADC.c ****     * Function Name: ADC_CountsTo_mVolts
 705:.\Generated_Source\PSoC4/ADC.c ****     ********************************************************************************
 706:.\Generated_Source\PSoC4/ADC.c ****     *
 707:.\Generated_Source\PSoC4/ADC.c ****     * Summary:
 708:.\Generated_Source\PSoC4/ADC.c ****     *  This function converts ADC counts to mVolts
 709:.\Generated_Source\PSoC4/ADC.c ****     *  This function is not available when left data format justification selected.
 710:.\Generated_Source\PSoC4/ADC.c ****     *
 711:.\Generated_Source\PSoC4/ADC.c ****     * Parameters:
 712:.\Generated_Source\PSoC4/ADC.c ****     *  chan: The ADC channel number.
 713:.\Generated_Source\PSoC4/ADC.c ****     *  adcCounts: Result from the ADC conversion
 714:.\Generated_Source\PSoC4/ADC.c ****     *
 715:.\Generated_Source\PSoC4/ADC.c ****     * Return:
 716:.\Generated_Source\PSoC4/ADC.c ****     *  Results in mVolts
 717:.\Generated_Source\PSoC4/ADC.c ****     *
 718:.\Generated_Source\PSoC4/ADC.c ****     * Global variables:
 719:.\Generated_Source\PSoC4/ADC.c ****     *  ADC_countsPer10Volt:  used to convert ADC counts to mVolts.
 720:.\Generated_Source\PSoC4/ADC.c ****     *  ADC_Offset:  Used as the offset while converting ADC counts
 721:.\Generated_Source\PSoC4/ADC.c ****     *   to mVolts.
 722:.\Generated_Source\PSoC4/ADC.c ****     *
 723:.\Generated_Source\PSoC4/ADC.c ****     *******************************************************************************/
 724:.\Generated_Source\PSoC4/ADC.c ****     int16 ADC_CountsTo_mVolts(uint32 chan, int16 adcCounts)
 725:.\Generated_Source\PSoC4/ADC.c ****     {
 1088              		.loc 1 725 0
 1089              		.cfi_startproc
 1090 0000 80B5     		push	{r7, lr}
 1091              		.cfi_def_cfa_offset 8
ARM GAS  C:\Users\Zachary\AppData\Local\Temp\ccrWbHoB.s 			page 33


 1092              		.cfi_offset 7, -8
 1093              		.cfi_offset 14, -4
 1094 0002 84B0     		sub	sp, sp, #16
 1095              		.cfi_def_cfa_offset 24
 1096 0004 00AF     		add	r7, sp, #0
 1097              		.cfi_def_cfa_register 7
 1098 0006 7860     		str	r0, [r7, #4]
 1099 0008 0A1C     		mov	r2, r1
 1100 000a BB1C     		add	r3, r7, #2
 1101 000c 1A80     		strh	r2, [r3]
 726:.\Generated_Source\PSoC4/ADC.c ****         int16 mVolts;
 727:.\Generated_Source\PSoC4/ADC.c **** 
 728:.\Generated_Source\PSoC4/ADC.c ****         /* Halt CPU in debug mode if channel is out of valid range */
 729:.\Generated_Source\PSoC4/ADC.c ****         CYASSERT(chan < ADC_TOTAL_CHANNELS_NUM);
 1102              		.loc 1 729 0
 1103 000e 7B68     		ldr	r3, [r7, #4]
 1104 0010 012B     		cmp	r3, #1
 1105 0012 02D9     		bls	.L78
 1106              		.loc 1 729 0 is_stmt 0 discriminator 1
 1107 0014 0020     		mov	r0, #0
 1108 0016 FFF7FEFF 		bl	CyHalt
 1109              	.L78:
 730:.\Generated_Source\PSoC4/ADC.c **** 
 731:.\Generated_Source\PSoC4/ADC.c ****         /* Divide the adcCount when accumulate averaging mode selected */
 732:.\Generated_Source\PSoC4/ADC.c ****         #if(ADC_DEFAULT_AVG_MODE == ADC__ACCUMULATE)
 733:.\Generated_Source\PSoC4/ADC.c ****             if((ADC_channelsConfig[chan] & ADC_AVERAGING_EN) != 0u)
 734:.\Generated_Source\PSoC4/ADC.c ****             {
 735:.\Generated_Source\PSoC4/ADC.c ****                 adcCounts /= ADC_DEFAULT_AVG_SAMPLES_DIV;
 736:.\Generated_Source\PSoC4/ADC.c ****             }
 737:.\Generated_Source\PSoC4/ADC.c ****         #endif /* ADC_DEFAULT_AVG_MODE == ADC__ACCUMULATE */
 738:.\Generated_Source\PSoC4/ADC.c **** 
 739:.\Generated_Source\PSoC4/ADC.c ****         /* Subtract ADC offset */
 740:.\Generated_Source\PSoC4/ADC.c ****         adcCounts -= ADC_offset[chan];
 1110              		.loc 1 740 0 is_stmt 1
 1111 001a BB1C     		add	r3, r7, #2
 1112 001c 1A88     		ldrh	r2, [r3]
 1113 001e 1E4B     		ldr	r3, .L84
 1114 0020 7968     		ldr	r1, [r7, #4]
 1115 0022 4900     		lsl	r1, r1, #1
 1116 0024 CB5A     		ldrh	r3, [r1, r3]
 1117 0026 9BB2     		uxth	r3, r3
 1118 0028 9BB2     		uxth	r3, r3
 1119 002a D31A     		sub	r3, r2, r3
 1120 002c 9AB2     		uxth	r2, r3
 1121 002e BB1C     		add	r3, r7, #2
 1122 0030 1A80     		strh	r2, [r3]
 741:.\Generated_Source\PSoC4/ADC.c **** 
 742:.\Generated_Source\PSoC4/ADC.c ****         mVolts = (int16)((((int32)adcCounts * ADC_10MV_COUNTS) + ( (adcCounts > 0) ?
 1123              		.loc 1 742 0
 1124 0032 BB1C     		add	r3, r7, #2
 1125 0034 0021     		mov	r1, #0
 1126 0036 5B5E     		ldrsh	r3, [r3, r1]
 1127 0038 184A     		ldr	r2, .L84+4
 1128 003a 5A43     		mul	r2, r3
 743:.\Generated_Source\PSoC4/ADC.c ****                  (ADC_countsPer10Volt[chan] / 2) : (-(ADC_countsPer10Volt[chan] / 2)) ))
 1129              		.loc 1 743 0
 1130 003c BB1C     		add	r3, r7, #2
ARM GAS  C:\Users\Zachary\AppData\Local\Temp\ccrWbHoB.s 			page 34


 1131 003e 0021     		mov	r1, #0
 1132 0040 5B5E     		ldrsh	r3, [r3, r1]
 1133 0042 002B     		cmp	r3, #0
 1134 0044 08DD     		ble	.L79
 1135              		.loc 1 743 0 is_stmt 0 discriminator 1
 1136 0046 164B     		ldr	r3, .L84+8
 1137 0048 7968     		ldr	r1, [r7, #4]
 1138 004a 8900     		lsl	r1, r1, #2
 1139 004c CB58     		ldr	r3, [r1, r3]
 1140 004e 002B     		cmp	r3, #0
 1141 0050 00DA     		bge	.L80
 1142 0052 0133     		add	r3, r3, #1
 1143              	.L80:
 1144 0054 5B10     		asr	r3, r3, #1
 1145 0056 08E0     		b	.L81
 1146              	.L79:
 1147              		.loc 1 743 0 discriminator 2
 1148 0058 114B     		ldr	r3, .L84+8
 1149 005a 7968     		ldr	r1, [r7, #4]
 1150 005c 8900     		lsl	r1, r1, #2
 1151 005e CB58     		ldr	r3, [r1, r3]
 1152 0060 002B     		cmp	r3, #0
 1153 0062 00DA     		bge	.L82
 1154 0064 0133     		add	r3, r3, #1
 1155              	.L82:
 1156 0066 5B10     		asr	r3, r3, #1
 1157 0068 5B42     		neg	r3, r3
 1158              	.L81:
 742:.\Generated_Source\PSoC4/ADC.c ****         mVolts = (int16)((((int32)adcCounts * ADC_10MV_COUNTS) + ( (adcCounts > 0) ?
 1159              		.loc 1 742 0 is_stmt 1
 1160 006a D218     		add	r2, r2, r3
 744:.\Generated_Source\PSoC4/ADC.c ****                  / ADC_countsPer10Volt[chan]);
 1161              		.loc 1 744 0
 1162 006c 0C4B     		ldr	r3, .L84+8
 1163 006e 7968     		ldr	r1, [r7, #4]
 1164 0070 8900     		lsl	r1, r1, #2
 1165 0072 CB58     		ldr	r3, [r1, r3]
 1166 0074 101C     		mov	r0, r2
 1167 0076 191C     		mov	r1, r3
 1168 0078 FFF7FEFF 		bl	__aeabi_idiv
 1169 007c 031C     		mov	r3, r0
 1170 007e 1A1C     		mov	r2, r3
 742:.\Generated_Source\PSoC4/ADC.c ****         mVolts = (int16)((((int32)adcCounts * ADC_10MV_COUNTS) + ( (adcCounts > 0) ?
 1171              		.loc 1 742 0
 1172 0080 3B1C     		mov	r3, r7
 1173 0082 0E33     		add	r3, r3, #14
 1174 0084 1A80     		strh	r2, [r3]
 745:.\Generated_Source\PSoC4/ADC.c **** 
 746:.\Generated_Source\PSoC4/ADC.c ****         return( mVolts );
 1175              		.loc 1 746 0
 1176 0086 3B1C     		mov	r3, r7
 1177 0088 0E33     		add	r3, r3, #14
 1178 008a 1B88     		ldrh	r3, [r3]
 1179 008c 1BB2     		sxth	r3, r3
 747:.\Generated_Source\PSoC4/ADC.c ****     }
 1180              		.loc 1 747 0
 1181 008e 181C     		mov	r0, r3
ARM GAS  C:\Users\Zachary\AppData\Local\Temp\ccrWbHoB.s 			page 35


 1182 0090 BD46     		mov	sp, r7
 1183 0092 04B0     		add	sp, sp, #16
 1184              		@ sp needed
 1185 0094 80BD     		pop	{r7, pc}
 1186              	.L85:
 1187 0096 C046     		.align	2
 1188              	.L84:
 1189 0098 00000000 		.word	ADC_offset
 1190 009c 10270000 		.word	10000
 1191 00a0 00000000 		.word	ADC_countsPer10Volt
 1192              		.cfi_endproc
 1193              	.LFE18:
 1194              		.size	ADC_CountsTo_mVolts, .-ADC_CountsTo_mVolts
 1195              		.global	__aeabi_lmul
 1196              		.global	__aeabi_ldivmod
 1197              		.section	.text.ADC_CountsTo_uVolts,"ax",%progbits
 1198              		.align	2
 1199              		.global	ADC_CountsTo_uVolts
 1200              		.code	16
 1201              		.thumb_func
 1202              		.type	ADC_CountsTo_uVolts, %function
 1203              	ADC_CountsTo_uVolts:
 1204              	.LFB19:
 748:.\Generated_Source\PSoC4/ADC.c **** 
 749:.\Generated_Source\PSoC4/ADC.c **** 
 750:.\Generated_Source\PSoC4/ADC.c ****     /*******************************************************************************
 751:.\Generated_Source\PSoC4/ADC.c ****     * Function Name: ADC_CountsTo_uVolts
 752:.\Generated_Source\PSoC4/ADC.c ****     ********************************************************************************
 753:.\Generated_Source\PSoC4/ADC.c ****     *
 754:.\Generated_Source\PSoC4/ADC.c ****     * Summary:
 755:.\Generated_Source\PSoC4/ADC.c ****     *  This function converts ADC counts to micro Volts
 756:.\Generated_Source\PSoC4/ADC.c ****     *  This function is not available when left data format justification selected.
 757:.\Generated_Source\PSoC4/ADC.c ****     *
 758:.\Generated_Source\PSoC4/ADC.c ****     * Parameters:
 759:.\Generated_Source\PSoC4/ADC.c ****     *  chan: The ADC channel number.
 760:.\Generated_Source\PSoC4/ADC.c ****     *  adcCounts: Result from the ADC conversion
 761:.\Generated_Source\PSoC4/ADC.c ****     *
 762:.\Generated_Source\PSoC4/ADC.c ****     * Return:
 763:.\Generated_Source\PSoC4/ADC.c ****     *  Results in uVolts
 764:.\Generated_Source\PSoC4/ADC.c ****     *
 765:.\Generated_Source\PSoC4/ADC.c ****     * Global variables:
 766:.\Generated_Source\PSoC4/ADC.c ****     *  ADC_countsPer10Volt:  used to convert ADC counts to uVolts.
 767:.\Generated_Source\PSoC4/ADC.c ****     *  ADC_Offset:  Used as the offset while converting ADC counts
 768:.\Generated_Source\PSoC4/ADC.c ****     *   to mVolts.
 769:.\Generated_Source\PSoC4/ADC.c ****     *
 770:.\Generated_Source\PSoC4/ADC.c ****     * Theory:
 771:.\Generated_Source\PSoC4/ADC.c ****     *  Care must be taken to not exceed the maximum value for a 31 bit signed
 772:.\Generated_Source\PSoC4/ADC.c ****     *  number in the conversion to uVolts and at the same time not loose
 773:.\Generated_Source\PSoC4/ADC.c ****     *  resolution.
 774:.\Generated_Source\PSoC4/ADC.c ****     *  To convert adcCounts to microVolts it is required to be multiplied
 775:.\Generated_Source\PSoC4/ADC.c ****     *  on 10 million and later divide on gain in counts per 10V.
 776:.\Generated_Source\PSoC4/ADC.c ****     *
 777:.\Generated_Source\PSoC4/ADC.c ****     *******************************************************************************/
 778:.\Generated_Source\PSoC4/ADC.c ****     int32 ADC_CountsTo_uVolts(uint32 chan, int16 adcCounts)
 779:.\Generated_Source\PSoC4/ADC.c ****     {
 1205              		.loc 1 779 0
 1206              		.cfi_startproc
ARM GAS  C:\Users\Zachary\AppData\Local\Temp\ccrWbHoB.s 			page 36


 1207 0000 B0B5     		push	{r4, r5, r7, lr}
 1208              		.cfi_def_cfa_offset 16
 1209              		.cfi_offset 4, -16
 1210              		.cfi_offset 5, -12
 1211              		.cfi_offset 7, -8
 1212              		.cfi_offset 14, -4
 1213 0002 86B0     		sub	sp, sp, #24
 1214              		.cfi_def_cfa_offset 40
 1215 0004 00AF     		add	r7, sp, #0
 1216              		.cfi_def_cfa_register 7
 1217 0006 F860     		str	r0, [r7, #12]
 1218 0008 0A1C     		mov	r2, r1
 1219 000a 3B1C     		mov	r3, r7
 1220 000c 0A33     		add	r3, r3, #10
 1221 000e 1A80     		strh	r2, [r3]
 780:.\Generated_Source\PSoC4/ADC.c ****         int64 uVolts;
 781:.\Generated_Source\PSoC4/ADC.c **** 
 782:.\Generated_Source\PSoC4/ADC.c ****         /* Halt CPU in debug mode if channel is out of valid range */
 783:.\Generated_Source\PSoC4/ADC.c ****         CYASSERT(chan < ADC_TOTAL_CHANNELS_NUM);
 1222              		.loc 1 783 0
 1223 0010 FB68     		ldr	r3, [r7, #12]
 1224 0012 012B     		cmp	r3, #1
 1225 0014 02D9     		bls	.L87
 1226              		.loc 1 783 0 is_stmt 0 discriminator 1
 1227 0016 0020     		mov	r0, #0
 1228 0018 FFF7FEFF 		bl	CyHalt
 1229              	.L87:
 784:.\Generated_Source\PSoC4/ADC.c **** 
 785:.\Generated_Source\PSoC4/ADC.c ****         /* Divide the adcCount when accumulate averaging mode selected */
 786:.\Generated_Source\PSoC4/ADC.c ****         #if(ADC_DEFAULT_AVG_MODE == ADC__ACCUMULATE)
 787:.\Generated_Source\PSoC4/ADC.c ****             if((ADC_channelsConfig[chan] & ADC_AVERAGING_EN) != 0u)
 788:.\Generated_Source\PSoC4/ADC.c ****             {
 789:.\Generated_Source\PSoC4/ADC.c ****                 adcCounts /= ADC_DEFAULT_AVG_SAMPLES_DIV;
 790:.\Generated_Source\PSoC4/ADC.c ****             }
 791:.\Generated_Source\PSoC4/ADC.c ****         #endif /* ADC_DEFAULT_AVG_MODE == ADC__ACCUMULATE */
 792:.\Generated_Source\PSoC4/ADC.c **** 
 793:.\Generated_Source\PSoC4/ADC.c ****         /* Subtract ADC offset */
 794:.\Generated_Source\PSoC4/ADC.c ****         adcCounts -= ADC_offset[chan];
 1230              		.loc 1 794 0 is_stmt 1
 1231 001c 3B1C     		mov	r3, r7
 1232 001e 0A33     		add	r3, r3, #10
 1233 0020 1A88     		ldrh	r2, [r3]
 1234 0022 1B4B     		ldr	r3, .L89+8
 1235 0024 F968     		ldr	r1, [r7, #12]
 1236 0026 4900     		lsl	r1, r1, #1
 1237 0028 CB5A     		ldrh	r3, [r1, r3]
 1238 002a 9BB2     		uxth	r3, r3
 1239 002c 9BB2     		uxth	r3, r3
 1240 002e D31A     		sub	r3, r2, r3
 1241 0030 9AB2     		uxth	r2, r3
 1242 0032 3B1C     		mov	r3, r7
 1243 0034 0A33     		add	r3, r3, #10
 1244 0036 1A80     		strh	r2, [r3]
 795:.\Generated_Source\PSoC4/ADC.c **** 
 796:.\Generated_Source\PSoC4/ADC.c ****         uVolts = ((int64)adcCounts * ADC_10UV_COUNTS) / ADC_countsPer10Volt[chan];
 1245              		.loc 1 796 0
 1246 0038 3B1C     		mov	r3, r7
ARM GAS  C:\Users\Zachary\AppData\Local\Temp\ccrWbHoB.s 			page 37


 1247 003a 0A33     		add	r3, r3, #10
 1248 003c 1B88     		ldrh	r3, [r3]
 1249 003e 1BB2     		sxth	r3, r3
 1250 0040 3B60     		str	r3, [r7]
 1251 0042 DB17     		asr	r3, r3, #31
 1252 0044 7B60     		str	r3, [r7, #4]
 1253 0046 3868     		ldr	r0, [r7]
 1254 0048 7968     		ldr	r1, [r7, #4]
 1255 004a 104B     		ldr	r3, .L89+4
 1256 004c 0E4A     		ldr	r2, .L89
 1257 004e FFF7FEFF 		bl	__aeabi_lmul
 1258 0052 021C     		mov	r2, r0
 1259 0054 0B1C     		mov	r3, r1
 1260 0056 0F49     		ldr	r1, .L89+12
 1261 0058 F868     		ldr	r0, [r7, #12]
 1262 005a 8000     		lsl	r0, r0, #2
 1263 005c 4158     		ldr	r1, [r0, r1]
 1264 005e 0C1C     		mov	r4, r1
 1265 0060 C917     		asr	r1, r1, #31
 1266 0062 0D1C     		mov	r5, r1
 1267 0064 101C     		mov	r0, r2
 1268 0066 191C     		mov	r1, r3
 1269 0068 221C     		mov	r2, r4
 1270 006a 2B1C     		mov	r3, r5
 1271 006c FFF7FEFF 		bl	__aeabi_ldivmod
 1272 0070 031C     		mov	r3, r0
 1273 0072 0C1C     		mov	r4, r1
 1274 0074 3B61     		str	r3, [r7, #16]
 1275 0076 7C61     		str	r4, [r7, #20]
 797:.\Generated_Source\PSoC4/ADC.c **** 
 798:.\Generated_Source\PSoC4/ADC.c ****         return( (int32)uVolts );
 1276              		.loc 1 798 0
 1277 0078 3B69     		ldr	r3, [r7, #16]
 799:.\Generated_Source\PSoC4/ADC.c ****     }
 1278              		.loc 1 799 0
 1279 007a 181C     		mov	r0, r3
 1280 007c BD46     		mov	sp, r7
 1281 007e 06B0     		add	sp, sp, #24
 1282              		@ sp needed
 1283 0080 B0BD     		pop	{r4, r5, r7, pc}
 1284              	.L90:
 1285 0082 C046C046 		.align	3
 1285      C046
 1286              	.L89:
 1287 0088 80969800 		.word	10000000
 1288 008c 00000000 		.word	0
 1289 0090 00000000 		.word	ADC_offset
 1290 0094 00000000 		.word	ADC_countsPer10Volt
 1291              		.cfi_endproc
 1292              	.LFE19:
 1293              		.size	ADC_CountsTo_uVolts, .-ADC_CountsTo_uVolts
 1294              		.global	__aeabi_i2f
 1295              		.global	__aeabi_fmul
 1296              		.global	__aeabi_fdiv
 1297              		.section	.text.ADC_CountsTo_Volts,"ax",%progbits
 1298              		.align	2
 1299              		.global	ADC_CountsTo_Volts
ARM GAS  C:\Users\Zachary\AppData\Local\Temp\ccrWbHoB.s 			page 38


 1300              		.code	16
 1301              		.thumb_func
 1302              		.type	ADC_CountsTo_Volts, %function
 1303              	ADC_CountsTo_Volts:
 1304              	.LFB20:
 800:.\Generated_Source\PSoC4/ADC.c **** 
 801:.\Generated_Source\PSoC4/ADC.c **** 
 802:.\Generated_Source\PSoC4/ADC.c ****     /*******************************************************************************
 803:.\Generated_Source\PSoC4/ADC.c ****     * Function Name: ADC_CountsTo_Volts
 804:.\Generated_Source\PSoC4/ADC.c ****     ********************************************************************************
 805:.\Generated_Source\PSoC4/ADC.c ****     *
 806:.\Generated_Source\PSoC4/ADC.c ****     * Summary:
 807:.\Generated_Source\PSoC4/ADC.c ****     *  Converts the ADC output to Volts as a floating point number.
 808:.\Generated_Source\PSoC4/ADC.c ****     *  This function is not available when left data format justification selected.
 809:.\Generated_Source\PSoC4/ADC.c ****     *
 810:.\Generated_Source\PSoC4/ADC.c ****     * Parameters:
 811:.\Generated_Source\PSoC4/ADC.c ****     *  chan: The ADC channel number.
 812:.\Generated_Source\PSoC4/ADC.c ****     *  Result from the ADC conversion
 813:.\Generated_Source\PSoC4/ADC.c ****     *
 814:.\Generated_Source\PSoC4/ADC.c ****     * Return:
 815:.\Generated_Source\PSoC4/ADC.c ****     *  Results in Volts
 816:.\Generated_Source\PSoC4/ADC.c ****     *
 817:.\Generated_Source\PSoC4/ADC.c ****     * Global variables:
 818:.\Generated_Source\PSoC4/ADC.c ****     *  ADC_countsPer10Volt:  used to convert ADC counts to Volts.
 819:.\Generated_Source\PSoC4/ADC.c ****     *  ADC_Offset:  Used as the offset while converting ADC counts
 820:.\Generated_Source\PSoC4/ADC.c ****     *   to mVolts.
 821:.\Generated_Source\PSoC4/ADC.c ****     *
 822:.\Generated_Source\PSoC4/ADC.c ****     *******************************************************************************/
 823:.\Generated_Source\PSoC4/ADC.c ****     float32 ADC_CountsTo_Volts(uint32 chan, int16 adcCounts)
 824:.\Generated_Source\PSoC4/ADC.c ****     {
 1305              		.loc 1 824 0
 1306              		.cfi_startproc
 1307 0000 90B5     		push	{r4, r7, lr}
 1308              		.cfi_def_cfa_offset 12
 1309              		.cfi_offset 4, -12
 1310              		.cfi_offset 7, -8
 1311              		.cfi_offset 14, -4
 1312 0002 85B0     		sub	sp, sp, #20
 1313              		.cfi_def_cfa_offset 32
 1314 0004 00AF     		add	r7, sp, #0
 1315              		.cfi_def_cfa_register 7
 1316 0006 7860     		str	r0, [r7, #4]
 1317 0008 0A1C     		mov	r2, r1
 1318 000a BB1C     		add	r3, r7, #2
 1319 000c 1A80     		strh	r2, [r3]
 825:.\Generated_Source\PSoC4/ADC.c ****         float32 volts;
 826:.\Generated_Source\PSoC4/ADC.c **** 
 827:.\Generated_Source\PSoC4/ADC.c ****         /* Halt CPU in debug mode if channel is out of valid range */
 828:.\Generated_Source\PSoC4/ADC.c ****         CYASSERT(chan < ADC_TOTAL_CHANNELS_NUM);
 1320              		.loc 1 828 0
 1321 000e 7B68     		ldr	r3, [r7, #4]
 1322 0010 012B     		cmp	r3, #1
 1323 0012 02D9     		bls	.L92
 1324              		.loc 1 828 0 is_stmt 0 discriminator 1
 1325 0014 0020     		mov	r0, #0
 1326 0016 FFF7FEFF 		bl	CyHalt
 1327              	.L92:
ARM GAS  C:\Users\Zachary\AppData\Local\Temp\ccrWbHoB.s 			page 39


 829:.\Generated_Source\PSoC4/ADC.c **** 
 830:.\Generated_Source\PSoC4/ADC.c ****         /* Divide the adcCount when accumulate averaging mode selected */
 831:.\Generated_Source\PSoC4/ADC.c ****         #if(ADC_DEFAULT_AVG_MODE == ADC__ACCUMULATE)
 832:.\Generated_Source\PSoC4/ADC.c ****             if((ADC_channelsConfig[chan] & ADC_AVERAGING_EN) != 0u)
 833:.\Generated_Source\PSoC4/ADC.c ****             {
 834:.\Generated_Source\PSoC4/ADC.c ****                 adcCounts /= ADC_DEFAULT_AVG_SAMPLES_DIV;
 835:.\Generated_Source\PSoC4/ADC.c ****             }
 836:.\Generated_Source\PSoC4/ADC.c ****         #endif /* ADC_DEFAULT_AVG_MODE == ADC__ACCUMULATE */
 837:.\Generated_Source\PSoC4/ADC.c **** 
 838:.\Generated_Source\PSoC4/ADC.c ****         /* Subtract ADC offset */
 839:.\Generated_Source\PSoC4/ADC.c ****         adcCounts -= ADC_offset[chan];
 1328              		.loc 1 839 0 is_stmt 1
 1329 001a BB1C     		add	r3, r7, #2
 1330 001c 1A88     		ldrh	r2, [r3]
 1331 001e 154B     		ldr	r3, .L94
 1332 0020 7968     		ldr	r1, [r7, #4]
 1333 0022 4900     		lsl	r1, r1, #1
 1334 0024 CB5A     		ldrh	r3, [r1, r3]
 1335 0026 9BB2     		uxth	r3, r3
 1336 0028 9BB2     		uxth	r3, r3
 1337 002a D31A     		sub	r3, r2, r3
 1338 002c 9AB2     		uxth	r2, r3
 1339 002e BB1C     		add	r3, r7, #2
 1340 0030 1A80     		strh	r2, [r3]
 840:.\Generated_Source\PSoC4/ADC.c **** 
 841:.\Generated_Source\PSoC4/ADC.c ****         volts = ((float32)adcCounts * ADC_10V_COUNTS) / (float32)ADC_countsPer10Volt[chan];
 1341              		.loc 1 841 0
 1342 0032 BB1C     		add	r3, r7, #2
 1343 0034 0022     		mov	r2, #0
 1344 0036 9B5E     		ldrsh	r3, [r3, r2]
 1345 0038 181C     		mov	r0, r3
 1346 003a FFF7FEFF 		bl	__aeabi_i2f
 1347 003e 031C     		add	r3, r0, #0
 1348 0040 181C     		add	r0, r3, #0
 1349 0042 0D49     		ldr	r1, .L94+4
 1350 0044 FFF7FEFF 		bl	__aeabi_fmul
 1351 0048 031C     		add	r3, r0, #0
 1352 004a 1C1C     		add	r4, r3, #0
 1353 004c 0B4B     		ldr	r3, .L94+8
 1354 004e 7A68     		ldr	r2, [r7, #4]
 1355 0050 9200     		lsl	r2, r2, #2
 1356 0052 D358     		ldr	r3, [r2, r3]
 1357 0054 181C     		mov	r0, r3
 1358 0056 FFF7FEFF 		bl	__aeabi_i2f
 1359 005a 031C     		add	r3, r0, #0
 1360 005c 201C     		add	r0, r4, #0
 1361 005e 191C     		add	r1, r3, #0
 1362 0060 FFF7FEFF 		bl	__aeabi_fdiv
 1363 0064 031C     		add	r3, r0, #0
 1364 0066 FB60     		str	r3, [r7, #12]
 842:.\Generated_Source\PSoC4/ADC.c **** 
 843:.\Generated_Source\PSoC4/ADC.c ****         return( volts );
 1365              		.loc 1 843 0
 1366 0068 FB68     		ldr	r3, [r7, #12]
 844:.\Generated_Source\PSoC4/ADC.c ****     }
 1367              		.loc 1 844 0
 1368 006a 181C     		add	r0, r3, #0
ARM GAS  C:\Users\Zachary\AppData\Local\Temp\ccrWbHoB.s 			page 40


 1369 006c BD46     		mov	sp, r7
 1370 006e 05B0     		add	sp, sp, #20
 1371              		@ sp needed
 1372 0070 90BD     		pop	{r4, r7, pc}
 1373              	.L95:
 1374 0072 C046     		.align	2
 1375              	.L94:
 1376 0074 00000000 		.word	ADC_offset
 1377 0078 00002041 		.word	1092616192
 1378 007c 00000000 		.word	ADC_countsPer10Volt
 1379              		.cfi_endproc
 1380              	.LFE20:
 1381              		.size	ADC_CountsTo_Volts, .-ADC_CountsTo_Volts
 1382              		.section	.rodata
 1383              		.align	2
 1384              		.type	ADC_InputsPlacement.4749, %object
 1385              		.size	ADC_InputsPlacement.4749, 2
 1386              	ADC_InputsPlacement.4749:
 1387 0008 00       		.byte	0
 1388 0009 70       		.byte	112
 1389 000a 0000     		.text
 1390              	.Letext0:
 1391              		.file 2 ".\\Generated_Source\\PSoC4\\cytypes.h"