ARM GAS  C:\Users\Zachary\AppData\Local\Temp\ccCjCmZu.s 			page 1


   1              		.cpu cortex-m0
   2              		.fpu softvfp
   3              		.eabi_attribute 20, 1
   4              		.eabi_attribute 21, 1
   5              		.eabi_attribute 23, 3
   6              		.eabi_attribute 24, 1
   7              		.eabi_attribute 25, 1
   8              		.eabi_attribute 26, 1
   9              		.eabi_attribute 30, 6
  10              		.eabi_attribute 34, 0
  11              		.eabi_attribute 18, 4
  12              		.code	16
  13              		.file	"bas.c"
  14              		.text
  15              	.Ltext0:
  16              		.cfi_sections	.debug_frame
  17              		.global	batterySimulation
  18              		.bss
  19              		.align	1
  20              		.type	batterySimulation, %object
  21              		.size	batterySimulation, 2
  22              	batterySimulation:
  23 0000 0000     		.space	2
  24              		.global	batteryMeasure
  25              		.align	1
  26              		.type	batteryMeasure, %object
  27              		.size	batteryMeasure, 2
  28              	batteryMeasure:
  29 0002 0000     		.space	2
  30              		.section	.rodata
  31              		.align	2
  32              	.LC0:
  33 0000 42415320 		.ascii	"BAS event: %lx, \000"
  33      6576656E 
  33      743A2025 
  33      6C782C20 
  33      00
  34 0011 000000   		.align	2
  35              	.LC3:
  36 0014 4556545F 		.ascii	"EVT_BASS_NOTIFICATION_ENABLED: %x \015\012\000"
  36      42415353 
  36      5F4E4F54 
  36      49464943 
  36      4154494F 
  37 0039 000000   		.align	2
  38              	.LC7:
  39 003c 4556545F 		.ascii	"EVT_BASS_NOTIFICATION_DISABLED: %x \015\012\000"
  39      42415353 
  39      5F4E4F54 
  39      49464943 
  39      4154494F 
  40 0062 0000     		.align	2
  41              	.LC9:
  42 0064 4E6F7420 		.ascii	"Not supported event\015\000"
  42      73757070 
  42      6F727465 
  42      64206576 
ARM GAS  C:\Users\Zachary\AppData\Local\Temp\ccCjCmZu.s 			page 2


  42      656E740D 
  43              		.section	.text.BasCallBack,"ax",%progbits
  44              		.align	2
  45              		.global	BasCallBack
  46              		.code	16
  47              		.thumb_func
  48              		.type	BasCallBack, %function
  49              	BasCallBack:
  50              	.LFB35:
  51              		.file 1 ".\\bas.c"
   1:.\bas.c       **** /*******************************************************************************
   2:.\bas.c       **** * File Name: bas.c
   3:.\bas.c       **** *
   4:.\bas.c       **** * Version: 1.0
   5:.\bas.c       **** *
   6:.\bas.c       **** * Description:
   7:.\bas.c       **** *  This file contains BAS callback handler function.
   8:.\bas.c       **** *
   9:.\bas.c       **** * Hardware Dependency:
  10:.\bas.c       **** *  CY8CKIT-042 BLE
  11:.\bas.c       **** * 
  12:.\bas.c       **** ********************************************************************************
  13:.\bas.c       **** * Copyright 2015, Cypress Semiconductor Corporation.  All rights reserved.
  14:.\bas.c       **** * You may use this file only in accordance with the license, terms, conditions,
  15:.\bas.c       **** * disclaimers, and limitations in the end user license agreement accompanying
  16:.\bas.c       **** * the software package with which this file was provided.
  17:.\bas.c       **** *******************************************************************************/
  18:.\bas.c       **** 
  19:.\bas.c       **** #include "common.h"
  20:.\bas.c       **** #include "bas.h"
  21:.\bas.c       **** 
  22:.\bas.c       **** uint16 batterySimulation = 0u;
  23:.\bas.c       **** uint16 batteryMeasure = 0u;
  24:.\bas.c       **** 
  25:.\bas.c       **** 
  26:.\bas.c       **** /*******************************************************************************
  27:.\bas.c       **** * Function Name: BasCallBack()
  28:.\bas.c       **** ********************************************************************************
  29:.\bas.c       **** *
  30:.\bas.c       **** * Summary:
  31:.\bas.c       **** *   This is an event callback function to receive service specific events from 
  32:.\bas.c       **** *   Battery Service.
  33:.\bas.c       **** *
  34:.\bas.c       **** * Parameters:
  35:.\bas.c       **** *  event - the event code
  36:.\bas.c       **** *  *eventParam - the event parameters
  37:.\bas.c       **** *
  38:.\bas.c       **** * Return:
  39:.\bas.c       **** *  None.
  40:.\bas.c       **** *
  41:.\bas.c       **** ********************************************************************************/
  42:.\bas.c       **** void BasCallBack(uint32 event, void *eventParam)
  43:.\bas.c       **** {
  52              		.loc 1 43 0
  53              		.cfi_startproc
  54 0000 80B5     		push	{r7, lr}
  55              		.cfi_def_cfa_offset 8
ARM GAS  C:\Users\Zachary\AppData\Local\Temp\ccCjCmZu.s 			page 3


  56              		.cfi_offset 7, -8
  57              		.cfi_offset 14, -4
  58 0002 84B0     		sub	sp, sp, #16
  59              		.cfi_def_cfa_offset 24
  60 0004 00AF     		add	r7, sp, #0
  61              		.cfi_def_cfa_register 7
  62 0006 7860     		str	r0, [r7, #4]
  63 0008 3960     		str	r1, [r7]
  44:.\bas.c       ****     uint8 locServiceIndex;
  45:.\bas.c       ****     
  46:.\bas.c       ****     locServiceIndex = ((CYBLE_BAS_CHAR_VALUE_T *)eventParam)->serviceIndex;
  64              		.loc 1 46 0
  65 000a 3B1C     		mov	r3, r7
  66 000c 0F33     		add	r3, r3, #15
  67 000e 3A68     		ldr	r2, [r7]
  68 0010 9278     		ldrb	r2, [r2, #2]
  69 0012 1A70     		strb	r2, [r3]
  47:.\bas.c       ****     printf("BAS event: %lx, ", event);
  70              		.loc 1 47 0
  71 0014 264A     		ldr	r2, .L16
  72 0016 7B68     		ldr	r3, [r7, #4]
  73 0018 101C     		mov	r0, r2
  74 001a 191C     		mov	r1, r3
  75 001c FFF7FEFF 		bl	printf
  48:.\bas.c       ****     
  49:.\bas.c       ****     switch(event)
  76              		.loc 1 49 0
  77 0020 7B68     		ldr	r3, [r7, #4]
  78 0022 1B3B     		sub	r3, r3, #27
  79 0024 FF3B     		sub	r3, r3, #255
  80 0026 052B     		cmp	r3, #5
  81 0028 38D8     		bhi	.L2
  82 002a 9A00     		lsl	r2, r3, #2
  83 002c 214B     		ldr	r3, .L16+4
  84 002e D318     		add	r3, r2, r3
  85 0030 1B68     		ldr	r3, [r3]
  86 0032 9F46     		mov	pc, r3
  87              		.section	.rodata
  88 0079 000000   		.align	2
  89              	.L4:
  90 007c 34000000 		.word	.L3
  91 0080 68000000 		.word	.L5
  92 0084 A8000000 		.word	.L15
  93 0088 A8000000 		.word	.L15
  94 008c A8000000 		.word	.L15
  95 0090 A8000000 		.word	.L15
  96              		.section	.text.BasCallBack
  97              	.L3:
  50:.\bas.c       ****     {
  51:.\bas.c       ****         case CYBLE_EVT_BASS_NOTIFICATION_ENABLED:
  52:.\bas.c       ****             printf("EVT_BASS_NOTIFICATION_ENABLED: %x \r\n", locServiceIndex);
  98              		.loc 1 52 0
  99 0034 3B1C     		mov	r3, r7
 100 0036 0F33     		add	r3, r3, #15
 101 0038 1B78     		ldrb	r3, [r3]
 102 003a 1F4A     		ldr	r2, .L16+8
 103 003c 101C     		mov	r0, r2
ARM GAS  C:\Users\Zachary\AppData\Local\Temp\ccCjCmZu.s 			page 4


 104 003e 191C     		mov	r1, r3
 105 0040 FFF7FEFF 		bl	printf
  53:.\bas.c       ****             if(BAS_SERVICE_SIMULATE == locServiceIndex)
 106              		.loc 1 53 0
 107 0044 3B1C     		mov	r3, r7
 108 0046 0F33     		add	r3, r3, #15
 109 0048 1B78     		ldrb	r3, [r3]
 110 004a 002B     		cmp	r3, #0
 111 004c 02D1     		bne	.L10
  54:.\bas.c       ****             {
  55:.\bas.c       ****                 batterySimulation = ENABLED;
 112              		.loc 1 55 0
 113 004e 1B4B     		ldr	r3, .L16+12
 114 0050 0122     		mov	r2, #1
 115 0052 1A80     		strh	r2, [r3]
 116              	.L10:
  56:.\bas.c       ****             }
  57:.\bas.c       ****             if(BAS_SERVICE_MEASURE == locServiceIndex)
 117              		.loc 1 57 0
 118 0054 3B1C     		mov	r3, r7
 119 0056 0F33     		add	r3, r3, #15
 120 0058 1B78     		ldrb	r3, [r3]
 121 005a 002B     		cmp	r3, #0
 122 005c 03D1     		bne	.L11
  58:.\bas.c       ****             {
  59:.\bas.c       ****                 batteryMeasure = ENABLED;
 123              		.loc 1 59 0
 124 005e 184B     		ldr	r3, .L16+16
 125 0060 0122     		mov	r2, #1
 126 0062 1A80     		strh	r2, [r3]
  60:.\bas.c       ****             }
  61:.\bas.c       ****             break;
 127              		.loc 1 61 0
 128 0064 21E0     		b	.L1
 129              	.L11:
 130 0066 20E0     		b	.L1
 131              	.L5:
  62:.\bas.c       ****                 
  63:.\bas.c       ****         case CYBLE_EVT_BASS_NOTIFICATION_DISABLED:
  64:.\bas.c       ****             printf("EVT_BASS_NOTIFICATION_DISABLED: %x \r\n", locServiceIndex);
 132              		.loc 1 64 0
 133 0068 3B1C     		mov	r3, r7
 134 006a 0F33     		add	r3, r3, #15
 135 006c 1B78     		ldrb	r3, [r3]
 136 006e 154A     		ldr	r2, .L16+20
 137 0070 101C     		mov	r0, r2
 138 0072 191C     		mov	r1, r3
 139 0074 FFF7FEFF 		bl	printf
  65:.\bas.c       ****             if(BAS_SERVICE_SIMULATE == locServiceIndex)
 140              		.loc 1 65 0
 141 0078 3B1C     		mov	r3, r7
 142 007a 0F33     		add	r3, r3, #15
 143 007c 1B78     		ldrb	r3, [r3]
 144 007e 002B     		cmp	r3, #0
 145 0080 02D1     		bne	.L13
  66:.\bas.c       ****             {
  67:.\bas.c       ****                 batterySimulation = DISABLED;
ARM GAS  C:\Users\Zachary\AppData\Local\Temp\ccCjCmZu.s 			page 5


 146              		.loc 1 67 0
 147 0082 0E4B     		ldr	r3, .L16+12
 148 0084 0022     		mov	r2, #0
 149 0086 1A80     		strh	r2, [r3]
 150              	.L13:
  68:.\bas.c       ****             }
  69:.\bas.c       ****             if(BAS_SERVICE_MEASURE == locServiceIndex)
 151              		.loc 1 69 0
 152 0088 3B1C     		mov	r3, r7
 153 008a 0F33     		add	r3, r3, #15
 154 008c 1B78     		ldrb	r3, [r3]
 155 008e 002B     		cmp	r3, #0
 156 0090 03D1     		bne	.L14
  70:.\bas.c       ****             {
  71:.\bas.c       ****                 batteryMeasure = DISABLED;
 157              		.loc 1 71 0
 158 0092 0B4B     		ldr	r3, .L16+16
 159 0094 0022     		mov	r2, #0
 160 0096 1A80     		strh	r2, [r3]
  72:.\bas.c       ****             }
  73:.\bas.c       ****             break;
 161              		.loc 1 73 0
 162 0098 07E0     		b	.L1
 163              	.L14:
 164 009a 06E0     		b	.L1
 165              	.L2:
  74:.\bas.c       ****         case CYBLE_EVT_BASC_NOTIFICATION:
  75:.\bas.c       ****             break;
  76:.\bas.c       ****         case CYBLE_EVT_BASC_READ_CHAR_RESPONSE:
  77:.\bas.c       ****             break;
  78:.\bas.c       ****         case CYBLE_EVT_BASC_READ_DESCR_RESPONSE:
  79:.\bas.c       ****             break;
  80:.\bas.c       ****         case CYBLE_EVT_BASC_WRITE_DESCR_RESPONSE:
  81:.\bas.c       ****             break;
  82:.\bas.c       **** 		default:
  83:.\bas.c       ****             printf("Not supported event\r\n");
 166              		.loc 1 83 0
 167 009c 0A4B     		ldr	r3, .L16+24
 168 009e 181C     		mov	r0, r3
 169 00a0 FFF7FEFF 		bl	puts
  84:.\bas.c       **** 			break;
 170              		.loc 1 84 0
 171 00a4 C046     		mov	r8, r8
 172 00a6 00E0     		b	.L1
 173              	.L15:
  81:.\bas.c       ****             break;
 174              		.loc 1 81 0
 175 00a8 C046     		mov	r8, r8
 176              	.L1:
  85:.\bas.c       ****     }
  86:.\bas.c       **** }
 177              		.loc 1 86 0
 178 00aa BD46     		mov	sp, r7
 179 00ac 04B0     		add	sp, sp, #16
 180              		@ sp needed
 181 00ae 80BD     		pop	{r7, pc}
 182              	.L17:
ARM GAS  C:\Users\Zachary\AppData\Local\Temp\ccCjCmZu.s 			page 6


 183              		.align	2
 184              	.L16:
 185 00b0 00000000 		.word	.LC0
 186 00b4 7C000000 		.word	.L4
 187 00b8 14000000 		.word	.LC3
 188 00bc 00000000 		.word	batterySimulation
 189 00c0 00000000 		.word	batteryMeasure
 190 00c4 3C000000 		.word	.LC7
 191 00c8 64000000 		.word	.LC9
 192              		.cfi_endproc
 193              	.LFE35:
 194              		.size	BasCallBack, .-BasCallBack
 195              		.global	__aeabi_idiv
 196              		.section	.rodata
 197              		.align	2
 198              	.LC13:
 199 0094 42617373 		.ascii	"BassSendNotification API Error: %x \015\012\000"
 199      53656E64 
 199      4E6F7469 
 199      66696361 
 199      74696F6E 
 200 00ba 0000     		.align	2
 201              	.LC16:
 202 00bc 4D656173 		.ascii	"MeasureBatteryLevelUpdate: %d \015\012\000"
 202      75726542 
 202      61747465 
 202      72794C65 
 202      76656C55 
 203              		.section	.text.MeasureBattery,"ax",%progbits
 204              		.align	2
 205              		.global	MeasureBattery
 206              		.code	16
 207              		.thumb_func
 208              		.type	MeasureBattery, %function
 209              	MeasureBattery:
 210              	.LFB36:
  87:.\bas.c       **** 
  88:.\bas.c       **** 
  89:.\bas.c       **** /*******************************************************************************
  90:.\bas.c       **** * Function Name: MeasureBattery()
  91:.\bas.c       **** ********************************************************************************
  92:.\bas.c       **** *
  93:.\bas.c       **** * Summary:
  94:.\bas.c       **** *   This function measures the battery voltage and sends it to the client.
  95:.\bas.c       **** *
  96:.\bas.c       **** *******************************************************************************/
  97:.\bas.c       **** void MeasureBattery(void)
  98:.\bas.c       **** {
 211              		.loc 1 98 0
 212              		.cfi_startproc
 213 0000 90B5     		push	{r4, r7, lr}
 214              		.cfi_def_cfa_offset 12
 215              		.cfi_offset 4, -12
 216              		.cfi_offset 7, -8
 217              		.cfi_offset 14, -4
 218 0002 87B0     		sub	sp, sp, #28
 219              		.cfi_def_cfa_offset 40
ARM GAS  C:\Users\Zachary\AppData\Local\Temp\ccCjCmZu.s 			page 7


 220 0004 02AF     		add	r7, sp, #8
 221              		.cfi_def_cfa 7, 32
  99:.\bas.c       **** 	int16 adcResult;
 100:.\bas.c       ****     int32 mvolts;
 101:.\bas.c       **** 	uint32 sarControlReg;
 102:.\bas.c       ****     uint8 batteryLevel;
 103:.\bas.c       ****     CYBLE_API_RESULT_T apiResult;
 104:.\bas.c       ****     
 105:.\bas.c       ****     static uint32 batteryTimer = BATTERY_TIMEOUT;
 106:.\bas.c       ****     
 107:.\bas.c       ****     if(--batteryTimer == 0u) 
 222              		.loc 1 107 0
 223 0006 584B     		ldr	r3, .L27
 224 0008 1B68     		ldr	r3, [r3]
 225 000a 5A1E     		sub	r2, r3, #1
 226 000c 564B     		ldr	r3, .L27
 227 000e 1A60     		str	r2, [r3]
 228 0010 554B     		ldr	r3, .L27
 229 0012 1B68     		ldr	r3, [r3]
 230 0014 002B     		cmp	r3, #0
 231 0016 00D0     		beq	.LCB159
 232 0018 A2E0     		b	.L18	@long jump
 233              	.LCB159:
 108:.\bas.c       ****     {
 109:.\bas.c       ****         batteryTimer = BATTERY_TIMEOUT;
 234              		.loc 1 109 0
 235 001a 534B     		ldr	r3, .L27
 236 001c 0322     		mov	r2, #3
 237 001e 1A60     		str	r2, [r3]
 110:.\bas.c       ****         
 111:.\bas.c       ****     	/* Set the reference to VBG and enable reference bypass */
 112:.\bas.c       ****     	sarControlReg = ADC_SAR_CTRL_REG & ~ADC_VREF_MASK;
 238              		.loc 1 112 0
 239 0020 524B     		ldr	r3, .L27+4
 240 0022 1B68     		ldr	r3, [r3]
 241 0024 F022     		mov	r2, #240
 242 0026 9343     		bic	r3, r2
 243 0028 FB60     		str	r3, [r7, #12]
 113:.\bas.c       ****     	ADC_SAR_CTRL_REG = sarControlReg | ADC_VREF_INTERNAL1024BYPASSED;
 244              		.loc 1 113 0
 245 002a 504B     		ldr	r3, .L27+4
 246 002c FA68     		ldr	r2, [r7, #12]
 247 002e C021     		mov	r1, #192
 248 0030 0A43     		orr	r2, r1
 249 0032 1A60     		str	r2, [r3]
 114:.\bas.c       ****     	
 115:.\bas.c       ****     	/* 25 ms delay for reference capacitor to charge */
 116:.\bas.c       ****     	CyDelay(25);             
 250              		.loc 1 116 0
 251 0034 1920     		mov	r0, #25
 252 0036 FFF7FEFF 		bl	CyDelay
 117:.\bas.c       ****     	
 118:.\bas.c       ****     	/* Set the reference to VDD and disable reference bypass */
 119:.\bas.c       ****     	sarControlReg = ADC_SAR_CTRL_REG & ~ADC_VREF_MASK;
 253              		.loc 1 119 0
 254 003a 4C4B     		ldr	r3, .L27+4
 255 003c 1B68     		ldr	r3, [r3]
ARM GAS  C:\Users\Zachary\AppData\Local\Temp\ccCjCmZu.s 			page 8


 256 003e F022     		mov	r2, #240
 257 0040 9343     		bic	r3, r2
 258 0042 FB60     		str	r3, [r7, #12]
 120:.\bas.c       ****     	ADC_SAR_CTRL_REG = sarControlReg | ADC_VREF_VDDA;
 259              		.loc 1 120 0
 260 0044 494B     		ldr	r3, .L27+4
 261 0046 FA68     		ldr	r2, [r7, #12]
 262 0048 7021     		mov	r1, #112
 263 004a 0A43     		orr	r2, r1
 264 004c 1A60     		str	r2, [r3]
 121:.\bas.c       **** 
 122:.\bas.c       ****     	/* Perform a measurement. Store this value in Vref. */
 123:.\bas.c       ****     	CyDelay(1);
 265              		.loc 1 123 0
 266 004e 0120     		mov	r0, #1
 267 0050 FFF7FEFF 		bl	CyDelay
 124:.\bas.c       ****     	ADC_StartConvert();
 268              		.loc 1 124 0
 269 0054 FFF7FEFF 		bl	ADC_StartConvert
 125:.\bas.c       ****     	ADC_IsEndConversion(ADC_WAIT_FOR_RESULT);
 270              		.loc 1 125 0
 271 0058 0220     		mov	r0, #2
 272 005a FFF7FEFF 		bl	ADC_IsEndConversion
 126:.\bas.c       **** 
 127:.\bas.c       ****         adcResult = ADC_GetResult16(ADC_BATTERY_CHANNEL);
 273              		.loc 1 127 0
 274 005e 3C1C     		mov	r4, r7
 275 0060 0A34     		add	r4, r4, #10
 276 0062 0020     		mov	r0, #0
 277 0064 FFF7FEFF 		bl	ADC_GetResult16
 278 0068 031C     		mov	r3, r0
 279 006a 2380     		strh	r3, [r4]
 128:.\bas.c       ****     	/* Calculate input voltage by using ratio of ADC counts from reference
 129:.\bas.c       ****     	*  and ADC Full Scale counts. 
 130:.\bas.c       ****         */
 131:.\bas.c       ****     	mvolts = (1024 * 2048) / adcResult;
 280              		.loc 1 131 0
 281 006c 3B1C     		mov	r3, r7
 282 006e 0A33     		add	r3, r3, #10
 283 0070 0021     		mov	r1, #0
 284 0072 5B5E     		ldrsh	r3, [r3, r1]
 285 0074 8022     		mov	r2, #128
 286 0076 9003     		lsl	r0, r2, #14
 287 0078 191C     		mov	r1, r3
 288 007a FFF7FEFF 		bl	__aeabi_idiv
 289 007e 031C     		mov	r3, r0
 290 0080 7B60     		str	r3, [r7, #4]
 132:.\bas.c       ****         
 133:.\bas.c       ****         /* Convert battery level voltage to percentage using linear approximation
 134:.\bas.c       ****         *  divided to two sections according to typical performance of 
 135:.\bas.c       ****         *  CR2033 battery specification:
 136:.\bas.c       ****         *  3V - 100%
 137:.\bas.c       ****         *  2.8V - 29%
 138:.\bas.c       ****         *  2.0V - 0%
 139:.\bas.c       ****         */
 140:.\bas.c       ****         if(mvolts < MEASURE_BATTERY_MIN)
 291              		.loc 1 140 0
ARM GAS  C:\Users\Zachary\AppData\Local\Temp\ccCjCmZu.s 			page 9


 292 0082 7A68     		ldr	r2, [r7, #4]
 293 0084 3A4B     		ldr	r3, .L27+8
 294 0086 9A42     		cmp	r2, r3
 295 0088 03DC     		bgt	.L20
 141:.\bas.c       ****         {
 142:.\bas.c       ****             batteryLevel = 0;
 296              		.loc 1 142 0
 297 008a 7B1C     		add	r3, r7, #1
 298 008c 0022     		mov	r2, #0
 299 008e 1A70     		strb	r2, [r3]
 300 0090 2FE0     		b	.L21
 301              	.L20:
 143:.\bas.c       ****         }
 144:.\bas.c       ****         else if(mvolts < MEASURE_BATTERY_MID)
 302              		.loc 1 144 0
 303 0092 7A68     		ldr	r2, [r7, #4]
 304 0094 374B     		ldr	r3, .L27+12
 305 0096 9A42     		cmp	r2, r3
 306 0098 11DC     		bgt	.L22
 145:.\bas.c       ****         {
 146:.\bas.c       ****             batteryLevel = (mvolts - MEASURE_BATTERY_MIN) * MEASURE_BATTERY_MID_PERCENT / 
 307              		.loc 1 146 0
 308 009a 7B68     		ldr	r3, [r7, #4]
 309 009c 3649     		ldr	r1, .L27+16
 310 009e 5A18     		add	r2, r3, r1
 311 00a0 131C     		mov	r3, r2
 312 00a2 DB00     		lsl	r3, r3, #3
 313 00a4 9B1A     		sub	r3, r3, r2
 314 00a6 9B00     		lsl	r3, r3, #2
 315 00a8 9B18     		add	r3, r3, r2
 316 00aa 181C     		mov	r0, r3
 317 00ac C823     		mov	r3, #200
 318 00ae 9900     		lsl	r1, r3, #2
 319 00b0 FFF7FEFF 		bl	__aeabi_idiv
 320 00b4 031C     		mov	r3, r0
 321 00b6 DAB2     		uxtb	r2, r3
 322 00b8 7B1C     		add	r3, r7, #1
 323 00ba 1A70     		strb	r2, [r3]
 324 00bc 19E0     		b	.L21
 325              	.L22:
 147:.\bas.c       ****                            (MEASURE_BATTERY_MID - MEASURE_BATTERY_MIN); 
 148:.\bas.c       ****         }
 149:.\bas.c       ****         else if(mvolts < MEASURE_BATTERY_MAX)
 326              		.loc 1 149 0
 327 00be 7A68     		ldr	r2, [r7, #4]
 328 00c0 2E4B     		ldr	r3, .L27+20
 329 00c2 9A42     		cmp	r2, r3
 330 00c4 12DC     		bgt	.L23
 150:.\bas.c       ****         {
 151:.\bas.c       ****             batteryLevel = MEASURE_BATTERY_MID_PERCENT +
 152:.\bas.c       ****                            (mvolts - MEASURE_BATTERY_MID) * (100 - MEASURE_BATTERY_MID_PERCENT) / 
 331              		.loc 1 152 0
 332 00c6 7B68     		ldr	r3, [r7, #4]
 333 00c8 2D49     		ldr	r1, .L27+24
 334 00ca 5A18     		add	r2, r3, r1
 335 00cc 131C     		mov	r3, r2
 336 00ce DB00     		lsl	r3, r3, #3
ARM GAS  C:\Users\Zachary\AppData\Local\Temp\ccCjCmZu.s 			page 10


 337 00d0 9B18     		add	r3, r3, r2
 338 00d2 DB00     		lsl	r3, r3, #3
 339 00d4 9B1A     		sub	r3, r3, r2
 340 00d6 181C     		mov	r0, r3
 341 00d8 C821     		mov	r1, #200
 342 00da FFF7FEFF 		bl	__aeabi_idiv
 343 00de 031C     		mov	r3, r0
 151:.\bas.c       ****             batteryLevel = MEASURE_BATTERY_MID_PERCENT +
 344              		.loc 1 151 0
 345 00e0 DBB2     		uxtb	r3, r3
 346 00e2 1D33     		add	r3, r3, #29
 347 00e4 DAB2     		uxtb	r2, r3
 348 00e6 7B1C     		add	r3, r7, #1
 349 00e8 1A70     		strb	r2, [r3]
 350 00ea 02E0     		b	.L21
 351              	.L23:
 153:.\bas.c       ****                            (MEASURE_BATTERY_MAX - MEASURE_BATTERY_MID); 
 154:.\bas.c       ****         }
 155:.\bas.c       ****         else
 156:.\bas.c       ****         {
 157:.\bas.c       ****             batteryLevel = CYBLE_BAS_MAX_BATTERY_LEVEL_VALUE;
 352              		.loc 1 157 0
 353 00ec 7B1C     		add	r3, r7, #1
 354 00ee 6422     		mov	r2, #100
 355 00f0 1A70     		strb	r2, [r3]
 356              	.L21:
 158:.\bas.c       ****         }
 159:.\bas.c       ****         
 160:.\bas.c       ****         if(batteryLevel < LOW_BATTERY_LIMIT)
 357              		.loc 1 160 0
 358 00f2 7B1C     		add	r3, r7, #1
 359 00f4 1B78     		ldrb	r3, [r3]
 360 00f6 092B     		cmp	r3, #9
 361 00f8 03D8     		bhi	.L24
 161:.\bas.c       ****         {
 162:.\bas.c       ****             LowPower_LED_Write(LED_ON);
 362              		.loc 1 162 0
 363 00fa 0020     		mov	r0, #0
 364 00fc FFF7FEFF 		bl	LowPower_LED_Write
 365 0100 02E0     		b	.L25
 366              	.L24:
 163:.\bas.c       ****         }
 164:.\bas.c       ****         else
 165:.\bas.c       ****         {
 166:.\bas.c       ****             LowPower_LED_Write(LED_OFF);
 367              		.loc 1 166 0
 368 0102 0120     		mov	r0, #1
 369 0104 FFF7FEFF 		bl	LowPower_LED_Write
 370              	.L25:
 167:.\bas.c       ****         }
 168:.\bas.c       **** 
 169:.\bas.c       ****         /* Update Battery Level characteristic value */
 170:.\bas.c       ****         apiResult = CyBle_BassSendNotification(cyBle_connHandle, BAS_SERVICE_MEASURE, CYBLE_BAS_BAT
 371              		.loc 1 170 0
 372 0108 BC1C     		add	r4, r7, #2
 373 010a 1E4B     		ldr	r3, .L27+28
 374 010c 7A1C     		add	r2, r7, #1
ARM GAS  C:\Users\Zachary\AppData\Local\Temp\ccCjCmZu.s 			page 11


 375 010e 0092     		str	r2, [sp]
 376 0110 1A78     		ldrb	r2, [r3]
 377 0112 5B78     		ldrb	r3, [r3, #1]
 378 0114 1B02     		lsl	r3, r3, #8
 379 0116 1A43     		orr	r2, r3
 380 0118 0023     		mov	r3, #0
 381 011a 1204     		lsl	r2, r2, #16
 382 011c 120C     		lsr	r2, r2, #16
 383 011e 1B0C     		lsr	r3, r3, #16
 384 0120 1B04     		lsl	r3, r3, #16
 385 0122 1343     		orr	r3, r2
 386 0124 181C     		mov	r0, r3
 387 0126 0021     		mov	r1, #0
 388 0128 0022     		mov	r2, #0
 389 012a 0123     		mov	r3, #1
 390 012c FFF7FEFF 		bl	CyBle_BassSendNotification
 391 0130 031C     		mov	r3, r0
 392 0132 2380     		strh	r3, [r4]
 171:.\bas.c       ****                         sizeof(batteryLevel), &batteryLevel);
 172:.\bas.c       ****         if(apiResult != CYBLE_ERROR_OK)
 393              		.loc 1 172 0
 394 0134 BB1C     		add	r3, r7, #2
 395 0136 1B88     		ldrh	r3, [r3]
 396 0138 002B     		cmp	r3, #0
 397 013a 0AD0     		beq	.L26
 173:.\bas.c       ****         {
 174:.\bas.c       ****             printf("BassSendNotification API Error: %x \r\n", apiResult);
 398              		.loc 1 174 0
 399 013c BB1C     		add	r3, r7, #2
 400 013e 1B88     		ldrh	r3, [r3]
 401 0140 114A     		ldr	r2, .L27+32
 402 0142 101C     		mov	r0, r2
 403 0144 191C     		mov	r1, r3
 404 0146 FFF7FEFF 		bl	printf
 175:.\bas.c       ****             batteryMeasure = DISABLED;
 405              		.loc 1 175 0
 406 014a 104B     		ldr	r3, .L27+36
 407 014c 0022     		mov	r2, #0
 408 014e 1A80     		strh	r2, [r3]
 409 0150 06E0     		b	.L18
 410              	.L26:
 176:.\bas.c       ****         }
 177:.\bas.c       ****         else
 178:.\bas.c       ****         {
 179:.\bas.c       ****             printf("MeasureBatteryLevelUpdate: %d \r\n",batteryLevel);
 411              		.loc 1 179 0
 412 0152 7B1C     		add	r3, r7, #1
 413 0154 1B78     		ldrb	r3, [r3]
 414 0156 0E4A     		ldr	r2, .L27+40
 415 0158 101C     		mov	r0, r2
 416 015a 191C     		mov	r1, r3
 417 015c FFF7FEFF 		bl	printf
 418              	.L18:
 180:.\bas.c       ****         }
 181:.\bas.c       ****     }
 182:.\bas.c       **** }
 419              		.loc 1 182 0
ARM GAS  C:\Users\Zachary\AppData\Local\Temp\ccCjCmZu.s 			page 12


 420 0160 BD46     		mov	sp, r7
 421 0162 05B0     		add	sp, sp, #20
 422              		@ sp needed
 423 0164 90BD     		pop	{r4, r7, pc}
 424              	.L28:
 425 0166 C046     		.align	2
 426              	.L27:
 427 0168 00000000 		.word	batteryTimer.7480
 428 016c 00003A40 		.word	1077542912
 429 0170 CF070000 		.word	1999
 430 0174 EF0A0000 		.word	2799
 431 0178 30F8FFFF 		.word	-2000
 432 017c B70B0000 		.word	2999
 433 0180 10F5FFFF 		.word	-2800
 434 0184 00000000 		.word	cyBle_connHandle
 435 0188 94000000 		.word	.LC13
 436 018c 00000000 		.word	batteryMeasure
 437 0190 BC000000 		.word	.LC16
 438              		.cfi_endproc
 439              	.LFE36:
 440              		.size	MeasureBattery, .-MeasureBattery
 441              		.section	.rodata
 442 00dd 000000   		.align	2
 443              	.LC24:
 444 00e0 53696D75 		.ascii	"SimulBatteryLevelUpdate: %d \015\012\000"
 444      6C426174 
 444      74657279 
 444      4C657665 
 444      6C557064 
 445 00ff 00       		.section	.text.SimulateBattery,"ax",%progbits
 446              		.align	2
 447              		.global	SimulateBattery
 448              		.code	16
 449              		.thumb_func
 450              		.type	SimulateBattery, %function
 451              	SimulateBattery:
 452              	.LFB37:
 183:.\bas.c       **** 
 184:.\bas.c       **** 
 185:.\bas.c       **** /*******************************************************************************
 186:.\bas.c       **** * Function Name: SimulateBattery()
 187:.\bas.c       **** ********************************************************************************
 188:.\bas.c       **** *
 189:.\bas.c       **** * Summary:
 190:.\bas.c       **** *   The custom function to simulate Battery Voltage.
 191:.\bas.c       **** *
 192:.\bas.c       **** *******************************************************************************/
 193:.\bas.c       **** void SimulateBattery(void)
 194:.\bas.c       **** {
 453              		.loc 1 194 0
 454              		.cfi_startproc
 455 0000 90B5     		push	{r4, r7, lr}
 456              		.cfi_def_cfa_offset 12
 457              		.cfi_offset 4, -12
 458              		.cfi_offset 7, -8
 459              		.cfi_offset 14, -4
 460 0002 85B0     		sub	sp, sp, #20
ARM GAS  C:\Users\Zachary\AppData\Local\Temp\ccCjCmZu.s 			page 13


 461              		.cfi_def_cfa_offset 32
 462 0004 02AF     		add	r7, sp, #8
 463              		.cfi_def_cfa 7, 24
 195:.\bas.c       ****     static uint32 batteryTimer = BATTERY_TIMEOUT;
 196:.\bas.c       ****     static uint8 batteryLevel = SIM_BATTERY_MIN;
 197:.\bas.c       ****     CYBLE_API_RESULT_T apiResult;
 198:.\bas.c       ****     
 199:.\bas.c       ****     if((CyBle_GattGetBusyStatus() == CYBLE_STACK_STATE_FREE) && (--batteryTimer == 0u))
 464              		.loc 1 199 0
 465 0006 2E4B     		ldr	r3, .L35
 466 0008 1B78     		ldrb	r3, [r3]
 467 000a DBB2     		uxtb	r3, r3
 468 000c 002B     		cmp	r3, #0
 469 000e 53D1     		bne	.L29
 470              		.loc 1 199 0 is_stmt 0 discriminator 1
 471 0010 2C4B     		ldr	r3, .L35+4
 472 0012 1B68     		ldr	r3, [r3]
 473 0014 5A1E     		sub	r2, r3, #1
 474 0016 2B4B     		ldr	r3, .L35+4
 475 0018 1A60     		str	r2, [r3]
 476 001a 2A4B     		ldr	r3, .L35+4
 477 001c 1B68     		ldr	r3, [r3]
 478 001e 002B     		cmp	r3, #0
 479 0020 4AD1     		bne	.L29
 200:.\bas.c       ****     {
 201:.\bas.c       ****         batteryTimer = BATTERY_TIMEOUT;
 480              		.loc 1 201 0 is_stmt 1
 481 0022 284B     		ldr	r3, .L35+4
 482 0024 0322     		mov	r2, #3
 483 0026 1A60     		str	r2, [r3]
 202:.\bas.c       ****         
 203:.\bas.c       ****         /* Battery Level simulation */
 204:.\bas.c       ****         if(batterySimulation == ENABLED)
 484              		.loc 1 204 0
 485 0028 274B     		ldr	r3, .L35+8
 486 002a 1B88     		ldrh	r3, [r3]
 487 002c 012B     		cmp	r3, #1
 488 002e 0CD1     		bne	.L31
 205:.\bas.c       ****         {
 206:.\bas.c       ****             batteryLevel += SIM_BATTERY_INCREMENT;
 489              		.loc 1 206 0
 490 0030 264B     		ldr	r3, .L35+12
 491 0032 1B78     		ldrb	r3, [r3]
 492 0034 0133     		add	r3, r3, #1
 493 0036 DAB2     		uxtb	r2, r3
 494 0038 244B     		ldr	r3, .L35+12
 495 003a 1A70     		strb	r2, [r3]
 207:.\bas.c       ****             if(batteryLevel > SIM_BATTERY_MAX)
 496              		.loc 1 207 0
 497 003c 234B     		ldr	r3, .L35+12
 498 003e 1B78     		ldrb	r3, [r3]
 499 0040 142B     		cmp	r3, #20
 500 0042 02D9     		bls	.L31
 208:.\bas.c       ****             {
 209:.\bas.c       ****                 batteryLevel = SIM_BATTERY_MIN; 
 501              		.loc 1 209 0
 502 0044 214B     		ldr	r3, .L35+12
ARM GAS  C:\Users\Zachary\AppData\Local\Temp\ccCjCmZu.s 			page 14


 503 0046 0222     		mov	r2, #2
 504 0048 1A70     		strb	r2, [r3]
 505              	.L31:
 210:.\bas.c       ****             }
 211:.\bas.c       ****         }
 212:.\bas.c       ****         if(batteryLevel < LOW_BATTERY_LIMIT)
 506              		.loc 1 212 0
 507 004a 204B     		ldr	r3, .L35+12
 508 004c 1B78     		ldrb	r3, [r3]
 509 004e 092B     		cmp	r3, #9
 510 0050 03D8     		bhi	.L32
 213:.\bas.c       ****         {
 214:.\bas.c       ****             LowPower_LED_Write(LED_ON);
 511              		.loc 1 214 0
 512 0052 0020     		mov	r0, #0
 513 0054 FFF7FEFF 		bl	LowPower_LED_Write
 514 0058 02E0     		b	.L33
 515              	.L32:
 215:.\bas.c       ****         }
 216:.\bas.c       ****         else
 217:.\bas.c       ****         {
 218:.\bas.c       ****             LowPower_LED_Write(LED_OFF);
 516              		.loc 1 218 0
 517 005a 0120     		mov	r0, #1
 518 005c FFF7FEFF 		bl	LowPower_LED_Write
 519              	.L33:
 219:.\bas.c       ****         }
 220:.\bas.c       **** 
 221:.\bas.c       ****         /* Update Battery Level characteristic value */
 222:.\bas.c       ****          apiResult = CyBle_BassSendNotification(cyBle_connHandle, BAS_SERVICE_SIMULATE, CYBLE_BAS_B
 520              		.loc 1 222 0
 521 0060 BC1D     		add	r4, r7, #6
 522 0062 1B4B     		ldr	r3, .L35+16
 523 0064 194A     		ldr	r2, .L35+12
 524 0066 0092     		str	r2, [sp]
 525 0068 1A78     		ldrb	r2, [r3]
 526 006a 5B78     		ldrb	r3, [r3, #1]
 527 006c 1B02     		lsl	r3, r3, #8
 528 006e 1A43     		orr	r2, r3
 529 0070 0023     		mov	r3, #0
 530 0072 1204     		lsl	r2, r2, #16
 531 0074 120C     		lsr	r2, r2, #16
 532 0076 1B0C     		lsr	r3, r3, #16
 533 0078 1B04     		lsl	r3, r3, #16
 534 007a 1343     		orr	r3, r2
 535 007c 181C     		mov	r0, r3
 536 007e 0021     		mov	r1, #0
 537 0080 0022     		mov	r2, #0
 538 0082 0123     		mov	r3, #1
 539 0084 FFF7FEFF 		bl	CyBle_BassSendNotification
 540 0088 031C     		mov	r3, r0
 541 008a 2380     		strh	r3, [r4]
 223:.\bas.c       ****                             sizeof(batteryLevel), &batteryLevel);
 224:.\bas.c       ****         
 225:.\bas.c       ****         if(apiResult != CYBLE_ERROR_OK)
 542              		.loc 1 225 0
 543 008c BB1D     		add	r3, r7, #6
ARM GAS  C:\Users\Zachary\AppData\Local\Temp\ccCjCmZu.s 			page 15


 544 008e 1B88     		ldrh	r3, [r3]
 545 0090 002B     		cmp	r3, #0
 546 0092 0AD0     		beq	.L34
 226:.\bas.c       ****         {
 227:.\bas.c       ****             printf("BassSendNotification API Error: %x \r\n", apiResult);
 547              		.loc 1 227 0
 548 0094 BB1D     		add	r3, r7, #6
 549 0096 1B88     		ldrh	r3, [r3]
 550 0098 0E4A     		ldr	r2, .L35+20
 551 009a 101C     		mov	r0, r2
 552 009c 191C     		mov	r1, r3
 553 009e FFF7FEFF 		bl	printf
 228:.\bas.c       ****             batterySimulation = DISABLED;
 554              		.loc 1 228 0
 555 00a2 094B     		ldr	r3, .L35+8
 556 00a4 0022     		mov	r2, #0
 557 00a6 1A80     		strh	r2, [r3]
 558 00a8 06E0     		b	.L29
 559              	.L34:
 229:.\bas.c       ****         }
 230:.\bas.c       ****         else
 231:.\bas.c       ****         {
 232:.\bas.c       ****             printf("SimulBatteryLevelUpdate: %d \r\n",batteryLevel);
 560              		.loc 1 232 0
 561 00aa 084B     		ldr	r3, .L35+12
 562 00ac 1B78     		ldrb	r3, [r3]
 563 00ae 0A4A     		ldr	r2, .L35+24
 564 00b0 101C     		mov	r0, r2
 565 00b2 191C     		mov	r1, r3
 566 00b4 FFF7FEFF 		bl	printf
 567              	.L29:
 233:.\bas.c       ****         }
 234:.\bas.c       ****     }
 235:.\bas.c       **** }
 568              		.loc 1 235 0
 569 00b8 BD46     		mov	sp, r7
 570 00ba 03B0     		add	sp, sp, #12
 571              		@ sp needed
 572 00bc 90BD     		pop	{r4, r7, pc}
 573              	.L36:
 574 00be C046     		.align	2
 575              	.L35:
 576 00c0 00000000 		.word	cyBle_busyStatus
 577 00c4 04000000 		.word	batteryTimer.7484
 578 00c8 00000000 		.word	batterySimulation
 579 00cc 08000000 		.word	batteryLevel.7485
 580 00d0 00000000 		.word	cyBle_connHandle
 581 00d4 94000000 		.word	.LC13
 582 00d8 E0000000 		.word	.LC24
 583              		.cfi_endproc
 584              	.LFE37:
 585              		.size	SimulateBattery, .-SimulateBattery
 586              		.data
 587              		.align	2
 588              		.type	batteryTimer.7480, %object
 589              		.size	batteryTimer.7480, 4
 590              	batteryTimer.7480:
ARM GAS  C:\Users\Zachary\AppData\Local\Temp\ccCjCmZu.s 			page 16


 591 0000 03000000 		.word	3
 592              		.align	2
 593              		.type	batteryTimer.7484, %object
 594              		.size	batteryTimer.7484, 4
 595              	batteryTimer.7484:
 596 0004 03000000 		.word	3
 597              		.type	batteryLevel.7485, %object
 598              		.size	batteryLevel.7485, 1
 599              	batteryLevel.7485:
 600 0008 02       		.byte	2
 601 0009 000000   		.text
 602              	.Letext0:
 603              		.file 2 ".\\Generated_Source\\PSoC4/cytypes.h"
 604              		.file 3 ".\\Generated_Source\\PSoC4/BLE_Stack.h"
 605              		.file 4 ".\\Generated_Source\\PSoC4/BLE_StackGatt.h"
 606              		.file 5 ".\\Generated_Source\\PSoC4/BLE_bas.h"
 607              		.file 6 ".\\Generated_Source\\PSoC4/BLE_dis.h"
 608              		.file 7 ".\\Generated_Source\\PSoC4/BLE_hts.h"
 609              		.file 8 ".\\Generated_Source\\PSoC4/BLE_eventHandler.h"