ARM GAS  C:\Users\Zachary\AppData\Local\Temp\ccNoimb2.s 			page 1


   1              		.cpu cortex-m0
   2              		.fpu softvfp
   3              		.eabi_attribute 20, 1
   4              		.eabi_attribute 21, 1
   5              		.eabi_attribute 23, 3
   6              		.eabi_attribute 24, 1
   7              		.eabi_attribute 25, 1
   8              		.eabi_attribute 26, 1
   9              		.eabi_attribute 30, 6
  10              		.eabi_attribute 34, 0
  11              		.eabi_attribute 18, 4
  12              		.code	16
  13              		.file	"BLE_eventHandler.c"
  14              		.text
  15              	.Ltext0:
  16              		.cfi_sections	.debug_frame
  17              		.comm	cyBle_connHandle,2,4
  18              		.comm	cyBle_eventHandlerFlag,1,1
  19              		.comm	cyBle_busyStatus,1,1
  20              		.comm	cyBle_advertisingIntervalType,1,1
  21              		.global	cyBle_authInfo
  22              		.data
  23              		.align	2
  24              		.type	cyBle_authInfo, %object
  25              		.size	cyBle_authInfo, 4
  26              	cyBle_authInfo:
  27 0000 11       		.byte	17
  28 0001 00       		.byte	0
  29 0002 10       		.byte	16
  30 0003 00       		.byte	0
  31              		.section	.text.CyBle_WriteReqHandler,"ax",%progbits
  32              		.align	2
  33              		.code	16
  34              		.thumb_func
  35              		.type	CyBle_WriteReqHandler, %function
  36              	CyBle_WriteReqHandler:
  37              	.LFB2:
  38              		.file 1 ".\\Generated_Source\\PSoC4\\BLE_eventHandler.c"
   1:.\Generated_Source\PSoC4/BLE_eventHandler.c **** /*******************************************************************************
   2:.\Generated_Source\PSoC4/BLE_eventHandler.c **** File Name: CYBLE_eventHandler.c
   3:.\Generated_Source\PSoC4/BLE_eventHandler.c **** Version 1.20
   4:.\Generated_Source\PSoC4/BLE_eventHandler.c **** 
   5:.\Generated_Source\PSoC4/BLE_eventHandler.c **** Description:
   6:.\Generated_Source\PSoC4/BLE_eventHandler.c ****  This file contains the source code for the Event Handler State Machine
   7:.\Generated_Source\PSoC4/BLE_eventHandler.c ****  of the BLE Component.
   8:.\Generated_Source\PSoC4/BLE_eventHandler.c **** 
   9:.\Generated_Source\PSoC4/BLE_eventHandler.c **** ********************************************************************************
  10:.\Generated_Source\PSoC4/BLE_eventHandler.c **** Copyright 2014-2015, Cypress Semiconductor Corporation.  All rights reserved.
  11:.\Generated_Source\PSoC4/BLE_eventHandler.c **** You may use this file only in accordance with the license, terms, conditions,
  12:.\Generated_Source\PSoC4/BLE_eventHandler.c **** disclaimers, and limitations in the end user license agreement accompanying
  13:.\Generated_Source\PSoC4/BLE_eventHandler.c **** the software package with which this file was provided.
  14:.\Generated_Source\PSoC4/BLE_eventHandler.c **** *******************************************************************************/
  15:.\Generated_Source\PSoC4/BLE_eventHandler.c **** 
  16:.\Generated_Source\PSoC4/BLE_eventHandler.c **** #include "BLE_eventHandler.h"
  17:.\Generated_Source\PSoC4/BLE_eventHandler.c **** 
  18:.\Generated_Source\PSoC4/BLE_eventHandler.c **** 
  19:.\Generated_Source\PSoC4/BLE_eventHandler.c **** /***************************************
ARM GAS  C:\Users\Zachary\AppData\Local\Temp\ccNoimb2.s 			page 2


  20:.\Generated_Source\PSoC4/BLE_eventHandler.c **** ##Private Function Prototypes
  21:.\Generated_Source\PSoC4/BLE_eventHandler.c **** ***************************************/
  22:.\Generated_Source\PSoC4/BLE_eventHandler.c **** 
  23:.\Generated_Source\PSoC4/BLE_eventHandler.c **** #if (CYBLE_GATT_ROLE_SERVER || CYBLE_GATT_ROLE_CLIENT)
  24:.\Generated_Source\PSoC4/BLE_eventHandler.c **** 
  25:.\Generated_Source\PSoC4/BLE_eventHandler.c **** static uint8 CyBle_IsDeviceAddressValid(const CYBLE_GAP_BD_ADDR_T *sflashDeviceAddress);
  26:.\Generated_Source\PSoC4/BLE_eventHandler.c **** 
  27:.\Generated_Source\PSoC4/BLE_eventHandler.c **** #endif /* CYBLE_GATT_ROLE_SERVER || CYBLE_GATT_ROLE_CLIENT */
  28:.\Generated_Source\PSoC4/BLE_eventHandler.c **** 
  29:.\Generated_Source\PSoC4/BLE_eventHandler.c **** static void CyBle_GattDisconnectEventHandler(void);
  30:.\Generated_Source\PSoC4/BLE_eventHandler.c **** static void CyBle_TimeOutEventHandler(const CYBLE_TO_REASON_CODE_T *eventParam);
  31:.\Generated_Source\PSoC4/BLE_eventHandler.c **** static void CyBle_GattConnectReqHandler(void);
  32:.\Generated_Source\PSoC4/BLE_eventHandler.c **** static void CyBle_L2Cap_ConnParamUpdateRspEventHandler(uint16 response);
  33:.\Generated_Source\PSoC4/BLE_eventHandler.c **** static void CyBle_GapConnUpdateCompleteEventHandler(const CYBLE_GAP_CONN_PARAM_UPDATED_IN_CONTROLLE
  34:.\Generated_Source\PSoC4/BLE_eventHandler.c **** 
  35:.\Generated_Source\PSoC4/BLE_eventHandler.c **** 
  36:.\Generated_Source\PSoC4/BLE_eventHandler.c **** #if (CYBLE_GATT_ROLE_SERVER)
  37:.\Generated_Source\PSoC4/BLE_eventHandler.c **** 
  38:.\Generated_Source\PSoC4/BLE_eventHandler.c **** static void CyBle_WriteReqHandler(CYBLE_GATTS_WRITE_REQ_PARAM_T *eventParam);
  39:.\Generated_Source\PSoC4/BLE_eventHandler.c **** static void CyBle_ValueConfirmation(const CYBLE_CONN_HANDLE_T *eventParam);
  40:.\Generated_Source\PSoC4/BLE_eventHandler.c **** 
  41:.\Generated_Source\PSoC4/BLE_eventHandler.c **** #endif /* CYBLE_GATT_ROLE_SERVER */
  42:.\Generated_Source\PSoC4/BLE_eventHandler.c **** 
  43:.\Generated_Source\PSoC4/BLE_eventHandler.c **** #if (CYBLE_GATT_ROLE_CLIENT)
  44:.\Generated_Source\PSoC4/BLE_eventHandler.c **** 
  45:.\Generated_Source\PSoC4/BLE_eventHandler.c **** static void CyBle_GapcDiscoverCharacteristicsEventHandler(CYBLE_DISC_CHAR_INFO_T *discCharInfo);
  46:.\Generated_Source\PSoC4/BLE_eventHandler.c **** static CYBLE_GATT_ATTR_HANDLE_RANGE_T CyBle_GetCharRange(void);
  47:.\Generated_Source\PSoC4/BLE_eventHandler.c **** static void CyBle_GattcWriteResponseEventHandler(const CYBLE_CONN_HANDLE_T *eventParam);
  48:.\Generated_Source\PSoC4/BLE_eventHandler.c **** static void CyBle_NotificationEventHandler(CYBLE_GATTC_HANDLE_VALUE_NTF_PARAM_T *eventParam);
  49:.\Generated_Source\PSoC4/BLE_eventHandler.c **** static void CyBle_IndicationEventHandler(CYBLE_GATTC_HANDLE_VALUE_IND_PARAM_T *eventParam);
  50:.\Generated_Source\PSoC4/BLE_eventHandler.c **** static void CyBle_ReadResponseEventHandler(CYBLE_GATTC_READ_RSP_PARAM_T *eventParam);
  51:.\Generated_Source\PSoC4/BLE_eventHandler.c **** 
  52:.\Generated_Source\PSoC4/BLE_eventHandler.c **** #endif /* CYBLE_GATT_ROLE_CLIENT */
  53:.\Generated_Source\PSoC4/BLE_eventHandler.c **** 
  54:.\Generated_Source\PSoC4/BLE_eventHandler.c **** 
  55:.\Generated_Source\PSoC4/BLE_eventHandler.c **** /***************************************
  56:.\Generated_Source\PSoC4/BLE_eventHandler.c **** ##Global Variables
  57:.\Generated_Source\PSoC4/BLE_eventHandler.c **** ***************************************/
  58:.\Generated_Source\PSoC4/BLE_eventHandler.c **** 
  59:.\Generated_Source\PSoC4/BLE_eventHandler.c **** /* This global variable is initialized after connection with peer device, 
  60:.\Generated_Source\PSoC4/BLE_eventHandler.c ****    after CYBLE_EVT_GATT_CONNECT_IND event, and could be used by application code
  61:.\Generated_Source\PSoC4/BLE_eventHandler.c ****    to send data to peer device. 
  62:.\Generated_Source\PSoC4/BLE_eventHandler.c **** */
  63:.\Generated_Source\PSoC4/BLE_eventHandler.c **** CYBLE_CONN_HANDLE_T cyBle_connHandle;
  64:.\Generated_Source\PSoC4/BLE_eventHandler.c **** 
  65:.\Generated_Source\PSoC4/BLE_eventHandler.c **** volatile uint8 cyBle_eventHandlerFlag;
  66:.\Generated_Source\PSoC4/BLE_eventHandler.c **** volatile uint8 cyBle_busyStatus;
  67:.\Generated_Source\PSoC4/BLE_eventHandler.c **** 
  68:.\Generated_Source\PSoC4/BLE_eventHandler.c **** #if(CYBLE_GAP_ROLE_PERIPHERAL || CYBLE_GAP_ROLE_BROADCASTER) 
  69:.\Generated_Source\PSoC4/BLE_eventHandler.c ****     uint8 cyBle_advertisingIntervalType;
  70:.\Generated_Source\PSoC4/BLE_eventHandler.c **** #endif /* CYBLE_GAP_ROLE_PERIPHERAL || CYBLE_GAP_ROLE_BROADCASTER) */
  71:.\Generated_Source\PSoC4/BLE_eventHandler.c **** 
  72:.\Generated_Source\PSoC4/BLE_eventHandler.c **** #if(CYBLE_GAP_ROLE_CENTRAL || CYBLE_GAP_ROLE_OBSERVER) 
  73:.\Generated_Source\PSoC4/BLE_eventHandler.c ****     uint8 cyBle_scanningIntervalType;
  74:.\Generated_Source\PSoC4/BLE_eventHandler.c **** #endif /* CYBLE_GAP_ROLE_CENTRAL || CYBLE_GAP_ROLE_OBSERVER */
  75:.\Generated_Source\PSoC4/BLE_eventHandler.c **** 
  76:.\Generated_Source\PSoC4/BLE_eventHandler.c **** #if(CYBLE_GATT_ROLE_CLIENT)
ARM GAS  C:\Users\Zachary\AppData\Local\Temp\ccNoimb2.s 			page 3


  77:.\Generated_Source\PSoC4/BLE_eventHandler.c **** uint8 cyBle_disCount; /* Counter for discovery procedures */
  78:.\Generated_Source\PSoC4/BLE_eventHandler.c **** static CYBLE_GATT_DB_ATTR_HANDLE_T cyBle_charEndHandle;
  79:.\Generated_Source\PSoC4/BLE_eventHandler.c **** #ifdef CYBLE_HIDS_CLIENT
  80:.\Generated_Source\PSoC4/BLE_eventHandler.c ****     static uint8 disServiceIndex;      /* To discovery descriptors for multiple HID service instanc
  81:.\Generated_Source\PSoC4/BLE_eventHandler.c **** #endif /* CYBLE_HIDS_CLIENT */
  82:.\Generated_Source\PSoC4/BLE_eventHandler.c **** 
  83:.\Generated_Source\PSoC4/BLE_eventHandler.c **** CYBLE_DISC_SRVC_INFO_T cyBle_serverInfo[CYBLE_SRVI_COUNT] = /*5*/
  84:.\Generated_Source\PSoC4/BLE_eventHandler.c **** {
  85:.\Generated_Source\PSoC4/BLE_eventHandler.c ****     {{CYBLE_GATT_INVALID_ATTR_HANDLE_VALUE, CYBLE_GATT_INVALID_ATTR_HANDLE_VALUE}, CYBLE_UUID_GAP_S
  86:.\Generated_Source\PSoC4/BLE_eventHandler.c ****     {{CYBLE_GATT_INVALID_ATTR_HANDLE_VALUE, CYBLE_GATT_INVALID_ATTR_HANDLE_VALUE}, CYBLE_UUID_GATT_
  87:.\Generated_Source\PSoC4/BLE_eventHandler.c **** #ifdef CYBLE_ANS_CLIENT
  88:.\Generated_Source\PSoC4/BLE_eventHandler.c ****     {{CYBLE_GATT_INVALID_ATTR_HANDLE_VALUE, CYBLE_GATT_INVALID_ATTR_HANDLE_VALUE}, CYBLE_UUID_ALERT
  89:.\Generated_Source\PSoC4/BLE_eventHandler.c **** #endif /* CYBLE_ANS_CLIENT */
  90:.\Generated_Source\PSoC4/BLE_eventHandler.c **** #ifdef CYBLE_BAS_CLIENT
  91:.\Generated_Source\PSoC4/BLE_eventHandler.c ****     {{CYBLE_GATT_INVALID_ATTR_HANDLE_VALUE, CYBLE_GATT_INVALID_ATTR_HANDLE_VALUE}, CYBLE_UUID_BAS_S
  92:.\Generated_Source\PSoC4/BLE_eventHandler.c ****     #if(CYBLE_BASC_SERVICE_COUNT > 1u) /* Generate it by GUI */
  93:.\Generated_Source\PSoC4/BLE_eventHandler.c ****         
  94:.\Generated_Source\PSoC4/BLE_eventHandler.c ****     #endif /* CYBLE_BASC_SERVICE_COUNT > 1u */
  95:.\Generated_Source\PSoC4/BLE_eventHandler.c **** #endif /* CYBLE_BAS_CLIENT */
  96:.\Generated_Source\PSoC4/BLE_eventHandler.c **** #ifdef CYBLE_BLS_CLIENT
  97:.\Generated_Source\PSoC4/BLE_eventHandler.c ****     {{CYBLE_GATT_INVALID_ATTR_HANDLE_VALUE, CYBLE_GATT_INVALID_ATTR_HANDLE_VALUE}, CYBLE_UUID_BLOOD
  98:.\Generated_Source\PSoC4/BLE_eventHandler.c **** #endif /* CYBLE_BLS_CLIENT */
  99:.\Generated_Source\PSoC4/BLE_eventHandler.c **** #ifdef CYBLE_CGMS_CLIENT
 100:.\Generated_Source\PSoC4/BLE_eventHandler.c ****     {{CYBLE_GATT_INVALID_ATTR_HANDLE_VALUE, CYBLE_GATT_INVALID_ATTR_HANDLE_VALUE}, CYBLE_UUID_CGM_S
 101:.\Generated_Source\PSoC4/BLE_eventHandler.c **** #endif /* CYBLE_CGMS_CLIENT */
 102:.\Generated_Source\PSoC4/BLE_eventHandler.c **** #ifdef CYBLE_CPS_CLIENT
 103:.\Generated_Source\PSoC4/BLE_eventHandler.c ****     {{CYBLE_GATT_INVALID_ATTR_HANDLE_VALUE, CYBLE_GATT_INVALID_ATTR_HANDLE_VALUE}, CYBLE_UUID_CPS_S
 104:.\Generated_Source\PSoC4/BLE_eventHandler.c **** #endif /* CYBLE_CPS_CLIENT */
 105:.\Generated_Source\PSoC4/BLE_eventHandler.c **** #ifdef CYBLE_CSCS_CLIENT
 106:.\Generated_Source\PSoC4/BLE_eventHandler.c ****     {{CYBLE_GATT_INVALID_ATTR_HANDLE_VALUE, CYBLE_GATT_INVALID_ATTR_HANDLE_VALUE}, CYBLE_UUID_CYCLI
 107:.\Generated_Source\PSoC4/BLE_eventHandler.c **** #endif /* CYBLE_CSCS_CLIENT */
 108:.\Generated_Source\PSoC4/BLE_eventHandler.c **** #ifdef CYBLE_CTS_CLIENT
 109:.\Generated_Source\PSoC4/BLE_eventHandler.c ****     {{CYBLE_GATT_INVALID_ATTR_HANDLE_VALUE, CYBLE_GATT_INVALID_ATTR_HANDLE_VALUE}, CYBLE_UUID_CURRE
 110:.\Generated_Source\PSoC4/BLE_eventHandler.c **** #endif /* CYBLE_CTS_CLIENT */
 111:.\Generated_Source\PSoC4/BLE_eventHandler.c **** #ifdef CYBLE_DIS_CLIENT
 112:.\Generated_Source\PSoC4/BLE_eventHandler.c ****     {{CYBLE_GATT_INVALID_ATTR_HANDLE_VALUE, CYBLE_GATT_INVALID_ATTR_HANDLE_VALUE}, CYBLE_UUID_DEVIC
 113:.\Generated_Source\PSoC4/BLE_eventHandler.c **** #endif /* CYBLE_DIS_CLIENT */
 114:.\Generated_Source\PSoC4/BLE_eventHandler.c **** #ifdef CYBLE_GLS_CLIENT
 115:.\Generated_Source\PSoC4/BLE_eventHandler.c ****     {{CYBLE_GATT_INVALID_ATTR_HANDLE_VALUE, CYBLE_GATT_INVALID_ATTR_HANDLE_VALUE}, CYBLE_UUID_GLUCO
 116:.\Generated_Source\PSoC4/BLE_eventHandler.c **** #endif /* CYBLE_GLS_CLIENT */
 117:.\Generated_Source\PSoC4/BLE_eventHandler.c **** #ifdef CYBLE_HIDS_CLIENT
 118:.\Generated_Source\PSoC4/BLE_eventHandler.c ****     {{CYBLE_GATT_INVALID_ATTR_HANDLE_VALUE, CYBLE_GATT_INVALID_ATTR_HANDLE_VALUE}, CYBLE_UUID_HIDS_
 119:.\Generated_Source\PSoC4/BLE_eventHandler.c ****     #if(CYBLE_HIDSC_SERVICE_COUNT > 1u) /* Generate it by GUI */
 120:.\Generated_Source\PSoC4/BLE_eventHandler.c ****         
 121:.\Generated_Source\PSoC4/BLE_eventHandler.c ****     #endif /* CYBLE_HIDSC_SERVICE_COUNT > 1u */
 122:.\Generated_Source\PSoC4/BLE_eventHandler.c **** #endif /* CYBLE_HIDS_CLIENT */
 123:.\Generated_Source\PSoC4/BLE_eventHandler.c **** #ifdef CYBLE_HRS_CLIENT
 124:.\Generated_Source\PSoC4/BLE_eventHandler.c ****     {{CYBLE_GATT_INVALID_ATTR_HANDLE_VALUE, CYBLE_GATT_INVALID_ATTR_HANDLE_VALUE}, CYBLE_UUID_HEART
 125:.\Generated_Source\PSoC4/BLE_eventHandler.c **** #endif /* CYBLE_HRS_CLIENT */
 126:.\Generated_Source\PSoC4/BLE_eventHandler.c **** #ifdef CYBLE_HTS_CLIENT
 127:.\Generated_Source\PSoC4/BLE_eventHandler.c ****     {{CYBLE_GATT_INVALID_ATTR_HANDLE_VALUE, CYBLE_GATT_INVALID_ATTR_HANDLE_VALUE}, CYBLE_UUID_HEALT
 128:.\Generated_Source\PSoC4/BLE_eventHandler.c **** #endif /* CYBLE_HTS_CLIENT */
 129:.\Generated_Source\PSoC4/BLE_eventHandler.c **** #ifdef CYBLE_IAS_CLIENT
 130:.\Generated_Source\PSoC4/BLE_eventHandler.c ****     {{CYBLE_GATT_INVALID_ATTR_HANDLE_VALUE, CYBLE_GATT_INVALID_ATTR_HANDLE_VALUE}, CYBLE_UUID_IMMED
 131:.\Generated_Source\PSoC4/BLE_eventHandler.c **** #endif /* CYBLE_IAS_CLIENT */
 132:.\Generated_Source\PSoC4/BLE_eventHandler.c **** #ifdef CYBLE_LLS_CLIENT
 133:.\Generated_Source\PSoC4/BLE_eventHandler.c ****     {{CYBLE_GATT_INVALID_ATTR_HANDLE_VALUE, CYBLE_GATT_INVALID_ATTR_HANDLE_VALUE}, CYBLE_UUID_LINK_
ARM GAS  C:\Users\Zachary\AppData\Local\Temp\ccNoimb2.s 			page 4


 134:.\Generated_Source\PSoC4/BLE_eventHandler.c **** #endif /* CYBLE_LLS_CLIENT */
 135:.\Generated_Source\PSoC4/BLE_eventHandler.c **** #ifdef CYBLE_LNS_CLIENT
 136:.\Generated_Source\PSoC4/BLE_eventHandler.c ****     {{CYBLE_GATT_INVALID_ATTR_HANDLE_VALUE, CYBLE_GATT_INVALID_ATTR_HANDLE_VALUE}, CYBLE_UUID_LOCAT
 137:.\Generated_Source\PSoC4/BLE_eventHandler.c **** #endif /* CYBLE_LNS_CLIENT */
 138:.\Generated_Source\PSoC4/BLE_eventHandler.c **** #ifdef CYBLE_NDCS_CLIENT
 139:.\Generated_Source\PSoC4/BLE_eventHandler.c ****     {{CYBLE_GATT_INVALID_ATTR_HANDLE_VALUE, CYBLE_GATT_INVALID_ATTR_HANDLE_VALUE}, CYBLE_UUID_NEXT_
 140:.\Generated_Source\PSoC4/BLE_eventHandler.c **** #endif /* CYBLE_NDCS_CLIENT */
 141:.\Generated_Source\PSoC4/BLE_eventHandler.c **** #ifdef CYBLE_PASS_CLIENT
 142:.\Generated_Source\PSoC4/BLE_eventHandler.c ****     {{CYBLE_GATT_INVALID_ATTR_HANDLE_VALUE, CYBLE_GATT_INVALID_ATTR_HANDLE_VALUE}, CYBLE_UUID_PHONE
 143:.\Generated_Source\PSoC4/BLE_eventHandler.c **** #endif /* CYBLE_PASS_CLIENT */
 144:.\Generated_Source\PSoC4/BLE_eventHandler.c **** #ifdef CYBLE_RSCS_CLIENT
 145:.\Generated_Source\PSoC4/BLE_eventHandler.c ****     {{CYBLE_GATT_INVALID_ATTR_HANDLE_VALUE, CYBLE_GATT_INVALID_ATTR_HANDLE_VALUE}, CYBLE_UUID_RUNNI
 146:.\Generated_Source\PSoC4/BLE_eventHandler.c **** #endif /* CYBLE_RSCS_CLIENT */
 147:.\Generated_Source\PSoC4/BLE_eventHandler.c **** #ifdef CYBLE_RTUS_CLIENT
 148:.\Generated_Source\PSoC4/BLE_eventHandler.c ****     {{CYBLE_GATT_INVALID_ATTR_HANDLE_VALUE, CYBLE_GATT_INVALID_ATTR_HANDLE_VALUE}, CYBLE_UUID_REF_T
 149:.\Generated_Source\PSoC4/BLE_eventHandler.c **** #endif /* CYBLE_RTUS_CLIENT */
 150:.\Generated_Source\PSoC4/BLE_eventHandler.c **** #ifdef CYBLE_SCPS_CLIENT
 151:.\Generated_Source\PSoC4/BLE_eventHandler.c ****     {{CYBLE_GATT_INVALID_ATTR_HANDLE_VALUE, CYBLE_GATT_INVALID_ATTR_HANDLE_VALUE}, CYBLE_UUID_SCAN_
 152:.\Generated_Source\PSoC4/BLE_eventHandler.c **** #endif /* CYBLE_SCPS_CLIENT */
 153:.\Generated_Source\PSoC4/BLE_eventHandler.c **** #ifdef CYBLE_TPS_CLIENT
 154:.\Generated_Source\PSoC4/BLE_eventHandler.c ****     {{CYBLE_GATT_INVALID_ATTR_HANDLE_VALUE, CYBLE_GATT_INVALID_ATTR_HANDLE_VALUE}, CYBLE_UUID_TX_PO
 155:.\Generated_Source\PSoC4/BLE_eventHandler.c **** #endif /* CYBLE_TPS_CLIENT */
 156:.\Generated_Source\PSoC4/BLE_eventHandler.c **** #ifdef CYBLE_UDS_CLIENT
 157:.\Generated_Source\PSoC4/BLE_eventHandler.c ****     {{CYBLE_GATT_INVALID_ATTR_HANDLE_VALUE, CYBLE_GATT_INVALID_ATTR_HANDLE_VALUE}, CYBLE_UUID_USER_
 158:.\Generated_Source\PSoC4/BLE_eventHandler.c **** #endif /* CYBLE_UDS_CLIENT */
 159:.\Generated_Source\PSoC4/BLE_eventHandler.c **** 
 160:.\Generated_Source\PSoC4/BLE_eventHandler.c **** };
 161:.\Generated_Source\PSoC4/BLE_eventHandler.c **** 
 162:.\Generated_Source\PSoC4/BLE_eventHandler.c **** CYBLE_GAPC_T cyBle_gapc;
 163:.\Generated_Source\PSoC4/BLE_eventHandler.c **** 
 164:.\Generated_Source\PSoC4/BLE_eventHandler.c **** #endif /* CYBLE_GATT_ROLE_CLIENT */
 165:.\Generated_Source\PSoC4/BLE_eventHandler.c **** 
 166:.\Generated_Source\PSoC4/BLE_eventHandler.c **** /* Default device security */
 167:.\Generated_Source\PSoC4/BLE_eventHandler.c **** CYBLE_GAP_AUTH_INFO_T cyBle_authInfo =
 168:.\Generated_Source\PSoC4/BLE_eventHandler.c **** {
 169:.\Generated_Source\PSoC4/BLE_eventHandler.c ****     (CYBLE_GAP_SEC_MODE_1 | CYBLE_GAP_SEC_LEVEL_2 ), /* uint8 security */
 170:.\Generated_Source\PSoC4/BLE_eventHandler.c ****     CYBLE_GAP_BONDING_NONE, /* uint8 bonding */
 171:.\Generated_Source\PSoC4/BLE_eventHandler.c ****     0x10u,      /* uint8 ekeySize */
 172:.\Generated_Source\PSoC4/BLE_eventHandler.c ****     CYBLE_GAP_AUTH_ERROR_NONE, /* CYBLE_AUTH_FAILED_REASON_T authErr */
 173:.\Generated_Source\PSoC4/BLE_eventHandler.c **** };
 174:.\Generated_Source\PSoC4/BLE_eventHandler.c **** 
 175:.\Generated_Source\PSoC4/BLE_eventHandler.c **** #if(CYBLE_GATT_ROLE_SERVER)
 176:.\Generated_Source\PSoC4/BLE_eventHandler.c **** 
 177:.\Generated_Source\PSoC4/BLE_eventHandler.c **** 
 178:.\Generated_Source\PSoC4/BLE_eventHandler.c **** /******************************************************************************    
 179:.\Generated_Source\PSoC4/BLE_eventHandler.c **** ##Function Name: CyBle_WriteReqHandler
 180:.\Generated_Source\PSoC4/BLE_eventHandler.c **** *******************************************************************************
 181:.\Generated_Source\PSoC4/BLE_eventHandler.c **** 
 182:.\Generated_Source\PSoC4/BLE_eventHandler.c **** Summary:
 183:.\Generated_Source\PSoC4/BLE_eventHandler.c ****  Handles the Write Request event from BLE stack.
 184:.\Generated_Source\PSoC4/BLE_eventHandler.c **** 
 185:.\Generated_Source\PSoC4/BLE_eventHandler.c **** Parameters:
 186:.\Generated_Source\PSoC4/BLE_eventHandler.c ****  CYBLE_GATTS_WRITE_REQ_PARAM_T * eventParam - event parameter
 187:.\Generated_Source\PSoC4/BLE_eventHandler.c **** 
 188:.\Generated_Source\PSoC4/BLE_eventHandler.c **** Return:
 189:.\Generated_Source\PSoC4/BLE_eventHandler.c ****  None
 190:.\Generated_Source\PSoC4/BLE_eventHandler.c **** 
ARM GAS  C:\Users\Zachary\AppData\Local\Temp\ccNoimb2.s 			page 5


 191:.\Generated_Source\PSoC4/BLE_eventHandler.c **** ******************************************************************************/
 192:.\Generated_Source\PSoC4/BLE_eventHandler.c **** static void CyBle_WriteReqHandler(CYBLE_GATTS_WRITE_REQ_PARAM_T *eventParam)
 193:.\Generated_Source\PSoC4/BLE_eventHandler.c **** {
  39              		.loc 1 193 0
  40              		.cfi_startproc
  41 0000 90B5     		push	{r4, r7, lr}
  42              		.cfi_def_cfa_offset 12
  43              		.cfi_offset 4, -12
  44              		.cfi_offset 7, -8
  45              		.cfi_offset 14, -4
  46 0002 85B0     		sub	sp, sp, #20
  47              		.cfi_def_cfa_offset 32
  48 0004 00AF     		add	r7, sp, #0
  49              		.cfi_def_cfa_register 7
  50 0006 7860     		str	r0, [r7, #4]
 194:.\Generated_Source\PSoC4/BLE_eventHandler.c ****     CYBLE_GATT_ERR_CODE_T gattErr;
 195:.\Generated_Source\PSoC4/BLE_eventHandler.c ****     
 196:.\Generated_Source\PSoC4/BLE_eventHandler.c ****     gattErr = CyBle_GattsWriteEventHandler(eventParam);
  51              		.loc 1 196 0
  52 0008 3C1C     		mov	r4, r7
  53 000a 0F34     		add	r4, r4, #15
  54 000c 7B68     		ldr	r3, [r7, #4]
  55 000e 181C     		mov	r0, r3
  56 0010 FFF7FEFF 		bl	CyBle_GattsWriteEventHandler
  57 0014 031C     		mov	r3, r0
  58 0016 2370     		strb	r3, [r4]
 197:.\Generated_Source\PSoC4/BLE_eventHandler.c **** #ifdef CYBLE_ANS_SERVER
 198:.\Generated_Source\PSoC4/BLE_eventHandler.c ****     if((CYBLE_GATT_ERR_NONE == gattErr) && ((cyBle_eventHandlerFlag & CYBLE_CALLBACK) != 0u))
 199:.\Generated_Source\PSoC4/BLE_eventHandler.c ****     {
 200:.\Generated_Source\PSoC4/BLE_eventHandler.c ****         gattErr = CyBle_AnssWriteEventHandler(eventParam);
 201:.\Generated_Source\PSoC4/BLE_eventHandler.c ****     }
 202:.\Generated_Source\PSoC4/BLE_eventHandler.c **** #endif /* CYBLE_ANS_SERVER */
 203:.\Generated_Source\PSoC4/BLE_eventHandler.c **** #ifdef CYBLE_BAS_SERVER
 204:.\Generated_Source\PSoC4/BLE_eventHandler.c ****     if((CYBLE_GATT_ERR_NONE == gattErr) && ((cyBle_eventHandlerFlag & CYBLE_CALLBACK) != 0u))
  59              		.loc 1 204 0
  60 0018 3B1C     		mov	r3, r7
  61 001a 0F33     		add	r3, r3, #15
  62 001c 1B78     		ldrb	r3, [r3]
  63 001e 002B     		cmp	r3, #0
  64 0020 0ED1     		bne	.L2
  65              		.loc 1 204 0 is_stmt 0 discriminator 1
  66 0022 264B     		ldr	r3, .L6
  67 0024 1B78     		ldrb	r3, [r3]
  68 0026 DBB2     		uxtb	r3, r3
  69 0028 1A1C     		mov	r2, r3
  70 002a 0123     		mov	r3, #1
  71 002c 1340     		and	r3, r2
  72 002e 07D0     		beq	.L2
 205:.\Generated_Source\PSoC4/BLE_eventHandler.c ****     {
 206:.\Generated_Source\PSoC4/BLE_eventHandler.c ****         gattErr = CyBle_BassWriteEventHandler(eventParam);
  73              		.loc 1 206 0 is_stmt 1
  74 0030 3C1C     		mov	r4, r7
  75 0032 0F34     		add	r4, r4, #15
  76 0034 7B68     		ldr	r3, [r7, #4]
  77 0036 181C     		mov	r0, r3
  78 0038 FFF7FEFF 		bl	CyBle_BassWriteEventHandler
  79 003c 031C     		mov	r3, r0
ARM GAS  C:\Users\Zachary\AppData\Local\Temp\ccNoimb2.s 			page 6


  80 003e 2370     		strb	r3, [r4]
  81              	.L2:
 207:.\Generated_Source\PSoC4/BLE_eventHandler.c ****     }
 208:.\Generated_Source\PSoC4/BLE_eventHandler.c **** #endif /* CYBLE_BAS_SERVER */
 209:.\Generated_Source\PSoC4/BLE_eventHandler.c **** #ifdef CYBLE_BLS_SERVER
 210:.\Generated_Source\PSoC4/BLE_eventHandler.c ****     if((CYBLE_GATT_ERR_NONE == gattErr) && ((cyBle_eventHandlerFlag & CYBLE_CALLBACK) != 0u))
 211:.\Generated_Source\PSoC4/BLE_eventHandler.c ****     {
 212:.\Generated_Source\PSoC4/BLE_eventHandler.c ****         gattErr = CyBle_BlssWriteEventHandler(eventParam);
 213:.\Generated_Source\PSoC4/BLE_eventHandler.c ****     }
 214:.\Generated_Source\PSoC4/BLE_eventHandler.c **** #endif /* CYBLE_BLS_SERVER */
 215:.\Generated_Source\PSoC4/BLE_eventHandler.c **** #ifdef CYBLE_CPS_SERVER
 216:.\Generated_Source\PSoC4/BLE_eventHandler.c ****     if((CYBLE_GATT_ERR_NONE == gattErr) && ((cyBle_eventHandlerFlag & CYBLE_CALLBACK) != 0u))
 217:.\Generated_Source\PSoC4/BLE_eventHandler.c ****     {
 218:.\Generated_Source\PSoC4/BLE_eventHandler.c ****         gattErr = CyBle_CpssWriteEventHandler(eventParam);
 219:.\Generated_Source\PSoC4/BLE_eventHandler.c ****     }
 220:.\Generated_Source\PSoC4/BLE_eventHandler.c **** #endif /* CYBLE_CPS_SERVER */
 221:.\Generated_Source\PSoC4/BLE_eventHandler.c **** #ifdef CYBLE_CSCS_SERVER
 222:.\Generated_Source\PSoC4/BLE_eventHandler.c ****     if((CYBLE_GATT_ERR_NONE == gattErr) && ((cyBle_eventHandlerFlag & CYBLE_CALLBACK) != 0u))
 223:.\Generated_Source\PSoC4/BLE_eventHandler.c ****     {
 224:.\Generated_Source\PSoC4/BLE_eventHandler.c ****         gattErr = CyBle_CscssWriteEventHandler(eventParam);
 225:.\Generated_Source\PSoC4/BLE_eventHandler.c ****     }
 226:.\Generated_Source\PSoC4/BLE_eventHandler.c **** #endif /* CYBLE_CSCS_SERVER */
 227:.\Generated_Source\PSoC4/BLE_eventHandler.c **** #ifdef CYBLE_CTS_SERVER
 228:.\Generated_Source\PSoC4/BLE_eventHandler.c ****     if((CYBLE_GATT_ERR_NONE == gattErr) && ((cyBle_eventHandlerFlag & CYBLE_CALLBACK) != 0u))
 229:.\Generated_Source\PSoC4/BLE_eventHandler.c ****     {
 230:.\Generated_Source\PSoC4/BLE_eventHandler.c ****         gattErr = CyBle_CtssWriteEventHandler(eventParam);
 231:.\Generated_Source\PSoC4/BLE_eventHandler.c ****     }
 232:.\Generated_Source\PSoC4/BLE_eventHandler.c **** #endif /* CYBLE_CTS_SERVER */
 233:.\Generated_Source\PSoC4/BLE_eventHandler.c **** #ifdef CYBLE_GLS_SERVER
 234:.\Generated_Source\PSoC4/BLE_eventHandler.c ****     if((CYBLE_GATT_ERR_NONE == gattErr) && ((cyBle_eventHandlerFlag & CYBLE_CALLBACK) != 0u))
 235:.\Generated_Source\PSoC4/BLE_eventHandler.c ****     {
 236:.\Generated_Source\PSoC4/BLE_eventHandler.c ****         gattErr = CyBle_GlssWriteEventHandler(eventParam);
 237:.\Generated_Source\PSoC4/BLE_eventHandler.c ****     }
 238:.\Generated_Source\PSoC4/BLE_eventHandler.c **** #endif /* CYBLE_GLS_SERVER */
 239:.\Generated_Source\PSoC4/BLE_eventHandler.c **** #ifdef CYBLE_HIDS_SERVER
 240:.\Generated_Source\PSoC4/BLE_eventHandler.c ****     if((CYBLE_GATT_ERR_NONE == gattErr) && ((cyBle_eventHandlerFlag & CYBLE_CALLBACK) != 0u))
 241:.\Generated_Source\PSoC4/BLE_eventHandler.c ****     {
 242:.\Generated_Source\PSoC4/BLE_eventHandler.c ****         gattErr = CyBle_HidssWriteEventHandler(eventParam);
 243:.\Generated_Source\PSoC4/BLE_eventHandler.c ****     }
 244:.\Generated_Source\PSoC4/BLE_eventHandler.c **** #endif /* CYBLE_HIDS_SERVER */
 245:.\Generated_Source\PSoC4/BLE_eventHandler.c **** #ifdef CYBLE_HRS_SERVER
 246:.\Generated_Source\PSoC4/BLE_eventHandler.c ****     if((CYBLE_GATT_ERR_NONE == gattErr) && ((cyBle_eventHandlerFlag & CYBLE_CALLBACK) != 0u))
 247:.\Generated_Source\PSoC4/BLE_eventHandler.c ****     {
 248:.\Generated_Source\PSoC4/BLE_eventHandler.c ****         gattErr = CyBle_HrssWriteEventHandler(eventParam);
 249:.\Generated_Source\PSoC4/BLE_eventHandler.c ****     }
 250:.\Generated_Source\PSoC4/BLE_eventHandler.c **** #endif /* CYBLE_HRS_SERVER */
 251:.\Generated_Source\PSoC4/BLE_eventHandler.c **** #ifdef CYBLE_HTS_SERVER
 252:.\Generated_Source\PSoC4/BLE_eventHandler.c ****     if((CYBLE_GATT_ERR_NONE == gattErr) && ((cyBle_eventHandlerFlag & CYBLE_CALLBACK) != 0u))
  82              		.loc 1 252 0
  83 0040 3B1C     		mov	r3, r7
  84 0042 0F33     		add	r3, r3, #15
  85 0044 1B78     		ldrb	r3, [r3]
  86 0046 002B     		cmp	r3, #0
  87 0048 0ED1     		bne	.L3
  88              		.loc 1 252 0 is_stmt 0 discriminator 1
  89 004a 1C4B     		ldr	r3, .L6
  90 004c 1B78     		ldrb	r3, [r3]
ARM GAS  C:\Users\Zachary\AppData\Local\Temp\ccNoimb2.s 			page 7


  91 004e DBB2     		uxtb	r3, r3
  92 0050 1A1C     		mov	r2, r3
  93 0052 0123     		mov	r3, #1
  94 0054 1340     		and	r3, r2
  95 0056 07D0     		beq	.L3
 253:.\Generated_Source\PSoC4/BLE_eventHandler.c ****     {
 254:.\Generated_Source\PSoC4/BLE_eventHandler.c ****         gattErr = CyBle_HtssWriteEventHandler(eventParam);
  96              		.loc 1 254 0 is_stmt 1
  97 0058 3C1C     		mov	r4, r7
  98 005a 0F34     		add	r4, r4, #15
  99 005c 7B68     		ldr	r3, [r7, #4]
 100 005e 181C     		mov	r0, r3
 101 0060 FFF7FEFF 		bl	CyBle_HtssWriteEventHandler
 102 0064 031C     		mov	r3, r0
 103 0066 2370     		strb	r3, [r4]
 104              	.L3:
 255:.\Generated_Source\PSoC4/BLE_eventHandler.c ****     }
 256:.\Generated_Source\PSoC4/BLE_eventHandler.c **** #endif /* CYBLE_HTS_SERVER */
 257:.\Generated_Source\PSoC4/BLE_eventHandler.c **** #ifdef CYBLE_LLS_SERVER
 258:.\Generated_Source\PSoC4/BLE_eventHandler.c ****     if((CYBLE_GATT_ERR_NONE == gattErr) && ((cyBle_eventHandlerFlag & CYBLE_CALLBACK) != 0u))
 259:.\Generated_Source\PSoC4/BLE_eventHandler.c ****     {
 260:.\Generated_Source\PSoC4/BLE_eventHandler.c ****         gattErr = CyBle_LlssWriteEventHandler(eventParam);
 261:.\Generated_Source\PSoC4/BLE_eventHandler.c ****     }
 262:.\Generated_Source\PSoC4/BLE_eventHandler.c **** #endif /* CYBLE_LLS_SERVER */
 263:.\Generated_Source\PSoC4/BLE_eventHandler.c **** #ifdef CYBLE_LNS_SERVER
 264:.\Generated_Source\PSoC4/BLE_eventHandler.c ****     if((CYBLE_GATT_ERR_NONE == gattErr) && ((cyBle_eventHandlerFlag & CYBLE_CALLBACK) != 0u))
 265:.\Generated_Source\PSoC4/BLE_eventHandler.c ****     {
 266:.\Generated_Source\PSoC4/BLE_eventHandler.c ****         gattErr = CyBle_LnssWriteEventHandler(eventParam);
 267:.\Generated_Source\PSoC4/BLE_eventHandler.c ****     }
 268:.\Generated_Source\PSoC4/BLE_eventHandler.c **** #endif /* CYBLE_LNS_SERVER */
 269:.\Generated_Source\PSoC4/BLE_eventHandler.c **** #ifdef CYBLE_PASS_SERVER
 270:.\Generated_Source\PSoC4/BLE_eventHandler.c ****     if((CYBLE_GATT_ERR_NONE == gattErr) && ((cyBle_eventHandlerFlag & CYBLE_CALLBACK) != 0u))
 271:.\Generated_Source\PSoC4/BLE_eventHandler.c ****     {
 272:.\Generated_Source\PSoC4/BLE_eventHandler.c ****         gattErr = CyBle_PasssWriteEventHandler(eventParam);
 273:.\Generated_Source\PSoC4/BLE_eventHandler.c ****     }
 274:.\Generated_Source\PSoC4/BLE_eventHandler.c **** #endif /* CYBLE_PASS_SERVER */
 275:.\Generated_Source\PSoC4/BLE_eventHandler.c **** #ifdef CYBLE_RSCS_SERVER
 276:.\Generated_Source\PSoC4/BLE_eventHandler.c ****     if((CYBLE_GATT_ERR_NONE == gattErr) && ((cyBle_eventHandlerFlag & CYBLE_CALLBACK) != 0u))
 277:.\Generated_Source\PSoC4/BLE_eventHandler.c ****     {
 278:.\Generated_Source\PSoC4/BLE_eventHandler.c ****         gattErr = CyBle_RscssWriteEventHandler(eventParam);
 279:.\Generated_Source\PSoC4/BLE_eventHandler.c ****     }
 280:.\Generated_Source\PSoC4/BLE_eventHandler.c **** #endif /* CYBLE_RSCS_SERVER */
 281:.\Generated_Source\PSoC4/BLE_eventHandler.c **** #ifdef CYBLE_SCPS_SERVER
 282:.\Generated_Source\PSoC4/BLE_eventHandler.c ****     if((CYBLE_GATT_ERR_NONE == gattErr) && ((cyBle_eventHandlerFlag & CYBLE_CALLBACK) != 0u))
 283:.\Generated_Source\PSoC4/BLE_eventHandler.c ****     {
 284:.\Generated_Source\PSoC4/BLE_eventHandler.c ****         gattErr = CyBle_ScpssWriteEventHandler(eventParam);
 285:.\Generated_Source\PSoC4/BLE_eventHandler.c ****     }
 286:.\Generated_Source\PSoC4/BLE_eventHandler.c **** #endif /* CYBLE_SCPS_SERVER */
 287:.\Generated_Source\PSoC4/BLE_eventHandler.c **** #ifdef CYBLE_TPS_SERVER
 288:.\Generated_Source\PSoC4/BLE_eventHandler.c ****     if((CYBLE_GATT_ERR_NONE == gattErr) && ((cyBle_eventHandlerFlag & CYBLE_CALLBACK) != 0u))
 289:.\Generated_Source\PSoC4/BLE_eventHandler.c ****     {
 290:.\Generated_Source\PSoC4/BLE_eventHandler.c ****         gattErr = CyBle_TpssWriteEventHandler(eventParam);
 291:.\Generated_Source\PSoC4/BLE_eventHandler.c ****     }
 292:.\Generated_Source\PSoC4/BLE_eventHandler.c **** #endif /* CYBLE_TPS_SERVER */
 293:.\Generated_Source\PSoC4/BLE_eventHandler.c **** #ifdef CYBLE_UDS_SERVER
 294:.\Generated_Source\PSoC4/BLE_eventHandler.c ****     if((CYBLE_GATT_ERR_NONE == gattErr) && ((cyBle_eventHandlerFlag & CYBLE_CALLBACK) != 0u))
 295:.\Generated_Source\PSoC4/BLE_eventHandler.c ****     {
ARM GAS  C:\Users\Zachary\AppData\Local\Temp\ccNoimb2.s 			page 8


 296:.\Generated_Source\PSoC4/BLE_eventHandler.c ****         gattErr = CyBle_UdssWriteEventHandler(eventParam);
 297:.\Generated_Source\PSoC4/BLE_eventHandler.c ****     }
 298:.\Generated_Source\PSoC4/BLE_eventHandler.c **** #endif /* CYBLE_UDS_SERVER */
 299:.\Generated_Source\PSoC4/BLE_eventHandler.c **** 
 300:.\Generated_Source\PSoC4/BLE_eventHandler.c ****     /* Send response when event was handled by service */
 301:.\Generated_Source\PSoC4/BLE_eventHandler.c ****     if((cyBle_eventHandlerFlag & CYBLE_CALLBACK) == 0u)
 105              		.loc 1 301 0
 106 0068 144B     		ldr	r3, .L6
 107 006a 1B78     		ldrb	r3, [r3]
 108 006c DBB2     		uxtb	r3, r3
 109 006e 1A1C     		mov	r2, r3
 110 0070 0123     		mov	r3, #1
 111 0072 1340     		and	r3, r2
 112 0074 1FD1     		bne	.L1
 302:.\Generated_Source\PSoC4/BLE_eventHandler.c ****     {
 303:.\Generated_Source\PSoC4/BLE_eventHandler.c ****         if(CYBLE_GATT_ERR_NONE != gattErr)
 113              		.loc 1 303 0
 114 0076 3B1C     		mov	r3, r7
 115 0078 0F33     		add	r3, r3, #15
 116 007a 1B78     		ldrb	r3, [r3]
 117 007c 002B     		cmp	r3, #0
 118 007e 16D0     		beq	.L5
 119              	.LBB2:
 304:.\Generated_Source\PSoC4/BLE_eventHandler.c ****         {
 305:.\Generated_Source\PSoC4/BLE_eventHandler.c ****             CYBLE_GATTS_ERR_PARAM_T err_param;
 306:.\Generated_Source\PSoC4/BLE_eventHandler.c ****             
 307:.\Generated_Source\PSoC4/BLE_eventHandler.c ****             err_param.opcode = (uint8) CYBLE_GATT_WRITE_REQ;
 120              		.loc 1 307 0
 121 0080 3B1C     		mov	r3, r7
 122 0082 0833     		add	r3, r3, #8
 123 0084 1222     		mov	r2, #18
 124 0086 9A70     		strb	r2, [r3, #2]
 308:.\Generated_Source\PSoC4/BLE_eventHandler.c ****             err_param.attrHandle = eventParam->handleValPair.attrHandle;
 125              		.loc 1 308 0
 126 0088 7B68     		ldr	r3, [r7, #4]
 127 008a 9A89     		ldrh	r2, [r3, #12]
 128 008c 3B1C     		mov	r3, r7
 129 008e 0833     		add	r3, r3, #8
 130 0090 1A80     		strh	r2, [r3]
 309:.\Generated_Source\PSoC4/BLE_eventHandler.c ****             err_param.errorCode = gattErr;
 131              		.loc 1 309 0
 132 0092 3B1C     		mov	r3, r7
 133 0094 0833     		add	r3, r3, #8
 134 0096 3A1C     		mov	r2, r7
 135 0098 0F32     		add	r2, r2, #15
 136 009a 1278     		ldrb	r2, [r2]
 137 009c DA70     		strb	r2, [r3, #3]
 310:.\Generated_Source\PSoC4/BLE_eventHandler.c **** 
 311:.\Generated_Source\PSoC4/BLE_eventHandler.c ****             /* Send Error Response */
 312:.\Generated_Source\PSoC4/BLE_eventHandler.c ****             (void)CyBle_GattsErrorRsp(eventParam->connHandle, &err_param);
 138              		.loc 1 312 0
 139 009e 7B68     		ldr	r3, [r7, #4]
 140 00a0 3A1C     		mov	r2, r7
 141 00a2 0832     		add	r2, r2, #8
 142 00a4 1868     		ldr	r0, [r3]
 143 00a6 111C     		mov	r1, r2
 144 00a8 FFF7FEFF 		bl	CyBle_GattsErrorRsp
ARM GAS  C:\Users\Zachary\AppData\Local\Temp\ccNoimb2.s 			page 9


 145              	.LBE2:
 146 00ac 03E0     		b	.L1
 147              	.L5:
 313:.\Generated_Source\PSoC4/BLE_eventHandler.c ****         }
 314:.\Generated_Source\PSoC4/BLE_eventHandler.c ****         else
 315:.\Generated_Source\PSoC4/BLE_eventHandler.c ****         {
 316:.\Generated_Source\PSoC4/BLE_eventHandler.c ****             (void)CyBle_GattsWriteRsp(eventParam->connHandle);
 148              		.loc 1 316 0
 149 00ae 7B68     		ldr	r3, [r7, #4]
 150 00b0 1868     		ldr	r0, [r3]
 151 00b2 FFF7FEFF 		bl	CyBle_GattsWriteRsp
 152              	.L1:
 317:.\Generated_Source\PSoC4/BLE_eventHandler.c ****         }
 318:.\Generated_Source\PSoC4/BLE_eventHandler.c ****     }
 319:.\Generated_Source\PSoC4/BLE_eventHandler.c **** }
 153              		.loc 1 319 0
 154 00b6 BD46     		mov	sp, r7
 155 00b8 05B0     		add	sp, sp, #20
 156              		@ sp needed
 157 00ba 90BD     		pop	{r4, r7, pc}
 158              	.L7:
 159              		.align	2
 160              	.L6:
 161 00bc 00000000 		.word	cyBle_eventHandlerFlag
 162              		.cfi_endproc
 163              	.LFE2:
 164              		.size	CyBle_WriteReqHandler, .-CyBle_WriteReqHandler
 165              		.section	.text.CyBle_ValueConfirmation,"ax",%progbits
 166              		.align	2
 167              		.code	16
 168              		.thumb_func
 169              		.type	CyBle_ValueConfirmation, %function
 170              	CyBle_ValueConfirmation:
 171              	.LFB3:
 320:.\Generated_Source\PSoC4/BLE_eventHandler.c **** 
 321:.\Generated_Source\PSoC4/BLE_eventHandler.c **** 
 322:.\Generated_Source\PSoC4/BLE_eventHandler.c **** /****************************************************************************** 
 323:.\Generated_Source\PSoC4/BLE_eventHandler.c **** ##Function Name: CyBle_ValueConfirmation
 324:.\Generated_Source\PSoC4/BLE_eventHandler.c **** *******************************************************************************
 325:.\Generated_Source\PSoC4/BLE_eventHandler.c **** 
 326:.\Generated_Source\PSoC4/BLE_eventHandler.c **** Summary:
 327:.\Generated_Source\PSoC4/BLE_eventHandler.c ****  Handles the Value Confirmation request event from the BLE stack.
 328:.\Generated_Source\PSoC4/BLE_eventHandler.c **** 
 329:.\Generated_Source\PSoC4/BLE_eventHandler.c **** Parameters:
 330:.\Generated_Source\PSoC4/BLE_eventHandler.c ****  CYBLE_CONN_HANDLE_T *eventParam - Pointer to a structure
 331:.\Generated_Source\PSoC4/BLE_eventHandler.c ****     of type 'CYBLE_CONN_HANDLE_T'
 332:.\Generated_Source\PSoC4/BLE_eventHandler.c **** 
 333:.\Generated_Source\PSoC4/BLE_eventHandler.c **** Return:
 334:.\Generated_Source\PSoC4/BLE_eventHandler.c ****  None
 335:.\Generated_Source\PSoC4/BLE_eventHandler.c **** 
 336:.\Generated_Source\PSoC4/BLE_eventHandler.c **** ******************************************************************************/
 337:.\Generated_Source\PSoC4/BLE_eventHandler.c **** static void CyBle_ValueConfirmation(const CYBLE_CONN_HANDLE_T *eventParam)
 338:.\Generated_Source\PSoC4/BLE_eventHandler.c **** {
 172              		.loc 1 338 0
 173              		.cfi_startproc
 174 0000 80B5     		push	{r7, lr}
 175              		.cfi_def_cfa_offset 8
ARM GAS  C:\Users\Zachary\AppData\Local\Temp\ccNoimb2.s 			page 10


 176              		.cfi_offset 7, -8
 177              		.cfi_offset 14, -4
 178 0002 82B0     		sub	sp, sp, #8
 179              		.cfi_def_cfa_offset 16
 180 0004 00AF     		add	r7, sp, #0
 181              		.cfi_def_cfa_register 7
 182 0006 7860     		str	r0, [r7, #4]
 339:.\Generated_Source\PSoC4/BLE_eventHandler.c ****     if(eventParam != NULL)
 183              		.loc 1 339 0
 184 0008 7B68     		ldr	r3, [r7, #4]
 185 000a 002B     		cmp	r3, #0
 186 000c 0AD0     		beq	.L8
 340:.\Generated_Source\PSoC4/BLE_eventHandler.c ****     {
 341:.\Generated_Source\PSoC4/BLE_eventHandler.c ****     #ifdef CYBLE_BLS_SERVER
 342:.\Generated_Source\PSoC4/BLE_eventHandler.c ****         CyBle_BlssConfirmationEventHandler(eventParam);
 343:.\Generated_Source\PSoC4/BLE_eventHandler.c ****     #endif /* CYBLE_BLS_SERVER */
 344:.\Generated_Source\PSoC4/BLE_eventHandler.c ****     
 345:.\Generated_Source\PSoC4/BLE_eventHandler.c ****     #ifdef CYBLE_CPS_SERVER
 346:.\Generated_Source\PSoC4/BLE_eventHandler.c ****         if((cyBle_eventHandlerFlag & CYBLE_CALLBACK) != 0u)
 347:.\Generated_Source\PSoC4/BLE_eventHandler.c ****         {
 348:.\Generated_Source\PSoC4/BLE_eventHandler.c ****             CyBle_CpssConfirmationEventHandler(eventParam);
 349:.\Generated_Source\PSoC4/BLE_eventHandler.c ****         }
 350:.\Generated_Source\PSoC4/BLE_eventHandler.c ****     #endif /* CYBLE_CPS_SERVER */
 351:.\Generated_Source\PSoC4/BLE_eventHandler.c ****     
 352:.\Generated_Source\PSoC4/BLE_eventHandler.c ****     #ifdef CYBLE_CSCS_SERVER
 353:.\Generated_Source\PSoC4/BLE_eventHandler.c ****         if((cyBle_eventHandlerFlag & CYBLE_CALLBACK) != 0u)
 354:.\Generated_Source\PSoC4/BLE_eventHandler.c ****         {
 355:.\Generated_Source\PSoC4/BLE_eventHandler.c ****             CyBle_CscssConfirmationEventHandler(eventParam);
 356:.\Generated_Source\PSoC4/BLE_eventHandler.c ****         }
 357:.\Generated_Source\PSoC4/BLE_eventHandler.c ****     #endif /* CYBLE_CSCS_SERVER */
 358:.\Generated_Source\PSoC4/BLE_eventHandler.c ****     
 359:.\Generated_Source\PSoC4/BLE_eventHandler.c ****     #ifdef CYBLE_GLS_SERVER
 360:.\Generated_Source\PSoC4/BLE_eventHandler.c ****         if((cyBle_eventHandlerFlag & CYBLE_CALLBACK) != 0u)
 361:.\Generated_Source\PSoC4/BLE_eventHandler.c ****         {
 362:.\Generated_Source\PSoC4/BLE_eventHandler.c ****             CyBle_GlssConfirmationEventHandler(eventParam);
 363:.\Generated_Source\PSoC4/BLE_eventHandler.c ****         }
 364:.\Generated_Source\PSoC4/BLE_eventHandler.c ****     #endif /* CYBLE_GLS_SERVER */
 365:.\Generated_Source\PSoC4/BLE_eventHandler.c ****     
 366:.\Generated_Source\PSoC4/BLE_eventHandler.c ****     #ifdef CYBLE_HTS_SERVER
 367:.\Generated_Source\PSoC4/BLE_eventHandler.c ****         if((cyBle_eventHandlerFlag & CYBLE_CALLBACK) != 0u)
 187              		.loc 1 367 0
 188 000e 074B     		ldr	r3, .L10
 189 0010 1B78     		ldrb	r3, [r3]
 190 0012 DBB2     		uxtb	r3, r3
 191 0014 1A1C     		mov	r2, r3
 192 0016 0123     		mov	r3, #1
 193 0018 1340     		and	r3, r2
 194 001a 03D0     		beq	.L8
 368:.\Generated_Source\PSoC4/BLE_eventHandler.c ****         {
 369:.\Generated_Source\PSoC4/BLE_eventHandler.c ****             CyBle_HtssConfirmationEventHandler(eventParam);
 195              		.loc 1 369 0
 196 001c 7B68     		ldr	r3, [r7, #4]
 197 001e 181C     		mov	r0, r3
 198 0020 FFF7FEFF 		bl	CyBle_HtssConfirmationEventHandler
 199              	.L8:
 370:.\Generated_Source\PSoC4/BLE_eventHandler.c ****         }
 371:.\Generated_Source\PSoC4/BLE_eventHandler.c ****     #endif /* CYBLE_HTS_SERVER */
ARM GAS  C:\Users\Zachary\AppData\Local\Temp\ccNoimb2.s 			page 11


 372:.\Generated_Source\PSoC4/BLE_eventHandler.c **** 
 373:.\Generated_Source\PSoC4/BLE_eventHandler.c ****     #ifdef CYBLE_LNS_SERVER
 374:.\Generated_Source\PSoC4/BLE_eventHandler.c ****         if((cyBle_eventHandlerFlag & CYBLE_CALLBACK) != 0u)
 375:.\Generated_Source\PSoC4/BLE_eventHandler.c ****         {
 376:.\Generated_Source\PSoC4/BLE_eventHandler.c ****             CyBle_LnssConfirmationEventHandler(eventParam);
 377:.\Generated_Source\PSoC4/BLE_eventHandler.c ****         }
 378:.\Generated_Source\PSoC4/BLE_eventHandler.c ****     #endif /* CYBLE_LNS_SERVER */
 379:.\Generated_Source\PSoC4/BLE_eventHandler.c ****     
 380:.\Generated_Source\PSoC4/BLE_eventHandler.c ****     #ifdef CYBLE_RSCS_SERVER
 381:.\Generated_Source\PSoC4/BLE_eventHandler.c ****         if((cyBle_eventHandlerFlag & CYBLE_CALLBACK) != 0u)
 382:.\Generated_Source\PSoC4/BLE_eventHandler.c ****         {
 383:.\Generated_Source\PSoC4/BLE_eventHandler.c ****             CyBle_RscssConfirmationEventHandler(eventParam);
 384:.\Generated_Source\PSoC4/BLE_eventHandler.c ****         }
 385:.\Generated_Source\PSoC4/BLE_eventHandler.c ****     #endif /* CYBLE_RSCS_SERVER */
 386:.\Generated_Source\PSoC4/BLE_eventHandler.c ****     
 387:.\Generated_Source\PSoC4/BLE_eventHandler.c ****     #ifdef CYBLE_UDS_SERVER
 388:.\Generated_Source\PSoC4/BLE_eventHandler.c ****         if((cyBle_eventHandlerFlag & CYBLE_CALLBACK) != 0u)
 389:.\Generated_Source\PSoC4/BLE_eventHandler.c ****         {
 390:.\Generated_Source\PSoC4/BLE_eventHandler.c ****             CyBle_UdssConfirmationEventHandler(eventParam);
 391:.\Generated_Source\PSoC4/BLE_eventHandler.c ****         }
 392:.\Generated_Source\PSoC4/BLE_eventHandler.c ****     #endif /* CYBLE_UDS_SERVER */
 393:.\Generated_Source\PSoC4/BLE_eventHandler.c ****     }
 394:.\Generated_Source\PSoC4/BLE_eventHandler.c **** }
 200              		.loc 1 394 0
 201 0024 BD46     		mov	sp, r7
 202 0026 02B0     		add	sp, sp, #8
 203              		@ sp needed
 204 0028 80BD     		pop	{r7, pc}
 205              	.L11:
 206 002a C046     		.align	2
 207              	.L10:
 208 002c 00000000 		.word	cyBle_eventHandlerFlag
 209              		.cfi_endproc
 210              	.LFE3:
 211              		.size	CyBle_ValueConfirmation, .-CyBle_ValueConfirmation
 212              		.section	.text.CyBle_GattDisconnectEventHandler,"ax",%progbits
 213              		.align	2
 214              		.code	16
 215              		.thumb_func
 216              		.type	CyBle_GattDisconnectEventHandler, %function
 217              	CyBle_GattDisconnectEventHandler:
 218              	.LFB4:
 395:.\Generated_Source\PSoC4/BLE_eventHandler.c **** 
 396:.\Generated_Source\PSoC4/BLE_eventHandler.c **** #endif /* CYBLE_GATT_ROLE_SERVER */
 397:.\Generated_Source\PSoC4/BLE_eventHandler.c **** 
 398:.\Generated_Source\PSoC4/BLE_eventHandler.c **** 
 399:.\Generated_Source\PSoC4/BLE_eventHandler.c **** #if (CYBLE_GATT_ROLE_CLIENT)
 400:.\Generated_Source\PSoC4/BLE_eventHandler.c **** 
 401:.\Generated_Source\PSoC4/BLE_eventHandler.c **** /****************************************************************************** 
 402:.\Generated_Source\PSoC4/BLE_eventHandler.c **** ##Function Name: CyBle_GattcWriteResponseEventHandler
 403:.\Generated_Source\PSoC4/BLE_eventHandler.c **** *******************************************************************************
 404:.\Generated_Source\PSoC4/BLE_eventHandler.c **** 
 405:.\Generated_Source\PSoC4/BLE_eventHandler.c **** Summary:
 406:.\Generated_Source\PSoC4/BLE_eventHandler.c ****  Handles the Write response event from the BLE stack.
 407:.\Generated_Source\PSoC4/BLE_eventHandler.c **** 
 408:.\Generated_Source\PSoC4/BLE_eventHandler.c **** Parameters:
 409:.\Generated_Source\PSoC4/BLE_eventHandler.c ****  CYBLE_CONN_HANDLE_T *eventParam - Pointer to a structure
ARM GAS  C:\Users\Zachary\AppData\Local\Temp\ccNoimb2.s 			page 12


 410:.\Generated_Source\PSoC4/BLE_eventHandler.c ****     of type 'CYBLE_CONN_HANDLE_T'
 411:.\Generated_Source\PSoC4/BLE_eventHandler.c **** 
 412:.\Generated_Source\PSoC4/BLE_eventHandler.c **** Return:
 413:.\Generated_Source\PSoC4/BLE_eventHandler.c ****  None
 414:.\Generated_Source\PSoC4/BLE_eventHandler.c **** 
 415:.\Generated_Source\PSoC4/BLE_eventHandler.c **** ******************************************************************************/
 416:.\Generated_Source\PSoC4/BLE_eventHandler.c **** static void CyBle_GattcWriteResponseEventHandler(const CYBLE_CONN_HANDLE_T *eventParam)
 417:.\Generated_Source\PSoC4/BLE_eventHandler.c **** {
 418:.\Generated_Source\PSoC4/BLE_eventHandler.c **** #ifdef CYBLE_ANS_CLIENT
 419:.\Generated_Source\PSoC4/BLE_eventHandler.c ****     CyBle_AnscWriteResponseEventHandler(eventParam);
 420:.\Generated_Source\PSoC4/BLE_eventHandler.c **** #endif /* CYBLE_ANS_CLIENT */
 421:.\Generated_Source\PSoC4/BLE_eventHandler.c **** 
 422:.\Generated_Source\PSoC4/BLE_eventHandler.c **** #ifdef CYBLE_BAS_CLIENT
 423:.\Generated_Source\PSoC4/BLE_eventHandler.c ****     if((cyBle_eventHandlerFlag & CYBLE_CALLBACK) != 0u)
 424:.\Generated_Source\PSoC4/BLE_eventHandler.c ****     {
 425:.\Generated_Source\PSoC4/BLE_eventHandler.c ****         CyBle_BascWriteResponseEventHandler(eventParam);
 426:.\Generated_Source\PSoC4/BLE_eventHandler.c ****     }
 427:.\Generated_Source\PSoC4/BLE_eventHandler.c **** #endif /* CYBLE_BAS_CLIENT */
 428:.\Generated_Source\PSoC4/BLE_eventHandler.c **** 
 429:.\Generated_Source\PSoC4/BLE_eventHandler.c **** #ifdef CYBLE_BLS_CLIENT
 430:.\Generated_Source\PSoC4/BLE_eventHandler.c ****     if((cyBle_eventHandlerFlag & CYBLE_CALLBACK) != 0u)
 431:.\Generated_Source\PSoC4/BLE_eventHandler.c ****     {
 432:.\Generated_Source\PSoC4/BLE_eventHandler.c ****         CyBle_BlscWriteResponseEventHandler(eventParam);
 433:.\Generated_Source\PSoC4/BLE_eventHandler.c ****     }
 434:.\Generated_Source\PSoC4/BLE_eventHandler.c **** #endif /* CYBLE_BLS_CLIENT */
 435:.\Generated_Source\PSoC4/BLE_eventHandler.c **** 
 436:.\Generated_Source\PSoC4/BLE_eventHandler.c **** #ifdef CYBLE_CGMS_CLIENT
 437:.\Generated_Source\PSoC4/BLE_eventHandler.c ****     if((cyBle_eventHandlerFlag & CYBLE_CALLBACK) != 0u)
 438:.\Generated_Source\PSoC4/BLE_eventHandler.c ****     {
 439:.\Generated_Source\PSoC4/BLE_eventHandler.c ****         CyBle_CgmscWriteResponseEventHandler(eventParam);
 440:.\Generated_Source\PSoC4/BLE_eventHandler.c ****     }
 441:.\Generated_Source\PSoC4/BLE_eventHandler.c **** #endif /* CYBLE_CGMS_CLIENT */
 442:.\Generated_Source\PSoC4/BLE_eventHandler.c **** 
 443:.\Generated_Source\PSoC4/BLE_eventHandler.c **** #ifdef CYBLE_CPS_CLIENT
 444:.\Generated_Source\PSoC4/BLE_eventHandler.c ****     if((cyBle_eventHandlerFlag & CYBLE_CALLBACK) != 0u)
 445:.\Generated_Source\PSoC4/BLE_eventHandler.c ****     {
 446:.\Generated_Source\PSoC4/BLE_eventHandler.c ****         CyBle_CpscWriteResponseEventHandler(eventParam);
 447:.\Generated_Source\PSoC4/BLE_eventHandler.c ****     }
 448:.\Generated_Source\PSoC4/BLE_eventHandler.c **** #endif /* CYBLE_CPS_CLIENT */
 449:.\Generated_Source\PSoC4/BLE_eventHandler.c **** 
 450:.\Generated_Source\PSoC4/BLE_eventHandler.c **** #ifdef CYBLE_CSCS_CLIENT
 451:.\Generated_Source\PSoC4/BLE_eventHandler.c ****     if((cyBle_eventHandlerFlag & CYBLE_CALLBACK) != 0u)
 452:.\Generated_Source\PSoC4/BLE_eventHandler.c ****     {
 453:.\Generated_Source\PSoC4/BLE_eventHandler.c ****         CyBle_CscscWriteResponseEventHandler(eventParam);
 454:.\Generated_Source\PSoC4/BLE_eventHandler.c ****     }
 455:.\Generated_Source\PSoC4/BLE_eventHandler.c **** #endif /* CYBLE_CSCS_CLIENT */
 456:.\Generated_Source\PSoC4/BLE_eventHandler.c **** 
 457:.\Generated_Source\PSoC4/BLE_eventHandler.c **** #ifdef CYBLE_CTS_CLIENT
 458:.\Generated_Source\PSoC4/BLE_eventHandler.c ****     if((cyBle_eventHandlerFlag & CYBLE_CALLBACK) != 0u)
 459:.\Generated_Source\PSoC4/BLE_eventHandler.c ****     {
 460:.\Generated_Source\PSoC4/BLE_eventHandler.c ****         CyBle_CtscWriteResponseEventHandler(eventParam);
 461:.\Generated_Source\PSoC4/BLE_eventHandler.c ****     }
 462:.\Generated_Source\PSoC4/BLE_eventHandler.c **** #endif /* CYBLE_CTS_CLIENT */
 463:.\Generated_Source\PSoC4/BLE_eventHandler.c **** 
 464:.\Generated_Source\PSoC4/BLE_eventHandler.c **** #ifdef CYBLE_GLS_CLIENT
 465:.\Generated_Source\PSoC4/BLE_eventHandler.c ****     if((cyBle_eventHandlerFlag & CYBLE_CALLBACK) != 0u)
 466:.\Generated_Source\PSoC4/BLE_eventHandler.c ****     {
ARM GAS  C:\Users\Zachary\AppData\Local\Temp\ccNoimb2.s 			page 13


 467:.\Generated_Source\PSoC4/BLE_eventHandler.c ****         CyBle_GlscWriteResponseEventHandler(eventParam);
 468:.\Generated_Source\PSoC4/BLE_eventHandler.c ****     }
 469:.\Generated_Source\PSoC4/BLE_eventHandler.c **** #endif /* CYBLE_GLS_CLIENT */
 470:.\Generated_Source\PSoC4/BLE_eventHandler.c **** 
 471:.\Generated_Source\PSoC4/BLE_eventHandler.c **** #ifdef CYBLE_HIDS_CLIENT
 472:.\Generated_Source\PSoC4/BLE_eventHandler.c ****     if((cyBle_eventHandlerFlag & CYBLE_CALLBACK) != 0u)
 473:.\Generated_Source\PSoC4/BLE_eventHandler.c ****     {
 474:.\Generated_Source\PSoC4/BLE_eventHandler.c ****         CyBle_HidscWriteResponseEventHandler(eventParam);
 475:.\Generated_Source\PSoC4/BLE_eventHandler.c ****     }
 476:.\Generated_Source\PSoC4/BLE_eventHandler.c **** #endif /* CYBLE_HIDS_CLIENT */
 477:.\Generated_Source\PSoC4/BLE_eventHandler.c **** 
 478:.\Generated_Source\PSoC4/BLE_eventHandler.c **** #ifdef CYBLE_HRS_CLIENT
 479:.\Generated_Source\PSoC4/BLE_eventHandler.c ****     if((cyBle_eventHandlerFlag & CYBLE_CALLBACK) != 0u)
 480:.\Generated_Source\PSoC4/BLE_eventHandler.c ****     {
 481:.\Generated_Source\PSoC4/BLE_eventHandler.c ****         CyBle_HrscWriteResponseEventHandler(eventParam);
 482:.\Generated_Source\PSoC4/BLE_eventHandler.c ****     }
 483:.\Generated_Source\PSoC4/BLE_eventHandler.c **** #endif /* CYBLE_HRS_CLIENT */
 484:.\Generated_Source\PSoC4/BLE_eventHandler.c **** 
 485:.\Generated_Source\PSoC4/BLE_eventHandler.c **** #ifdef CYBLE_HTS_CLIENT
 486:.\Generated_Source\PSoC4/BLE_eventHandler.c ****     if((cyBle_eventHandlerFlag & CYBLE_CALLBACK) != 0u)
 487:.\Generated_Source\PSoC4/BLE_eventHandler.c ****     {
 488:.\Generated_Source\PSoC4/BLE_eventHandler.c ****         CyBle_HtscWriteResponseEventHandler(eventParam);
 489:.\Generated_Source\PSoC4/BLE_eventHandler.c ****     }
 490:.\Generated_Source\PSoC4/BLE_eventHandler.c **** #endif /* CYBLE_HTS_CLIENT */
 491:.\Generated_Source\PSoC4/BLE_eventHandler.c **** 
 492:.\Generated_Source\PSoC4/BLE_eventHandler.c **** #ifdef CYBLE_LLS_CLIENT
 493:.\Generated_Source\PSoC4/BLE_eventHandler.c ****     if((cyBle_eventHandlerFlag & CYBLE_CALLBACK) != 0u)
 494:.\Generated_Source\PSoC4/BLE_eventHandler.c ****     {
 495:.\Generated_Source\PSoC4/BLE_eventHandler.c ****         CyBle_LlscWriteResponseEventHandler(eventParam);
 496:.\Generated_Source\PSoC4/BLE_eventHandler.c ****     }
 497:.\Generated_Source\PSoC4/BLE_eventHandler.c **** #endif /* CYBLE_LLS_CLIENT */
 498:.\Generated_Source\PSoC4/BLE_eventHandler.c **** 
 499:.\Generated_Source\PSoC4/BLE_eventHandler.c **** #ifdef CYBLE_LNS_CLIENT
 500:.\Generated_Source\PSoC4/BLE_eventHandler.c ****     if((cyBle_eventHandlerFlag & CYBLE_CALLBACK) != 0u)
 501:.\Generated_Source\PSoC4/BLE_eventHandler.c ****     {
 502:.\Generated_Source\PSoC4/BLE_eventHandler.c ****         CyBle_LnscWriteResponseEventHandler(eventParam);
 503:.\Generated_Source\PSoC4/BLE_eventHandler.c ****     }
 504:.\Generated_Source\PSoC4/BLE_eventHandler.c **** #endif /* CYBLE_LNS_CLIENT */
 505:.\Generated_Source\PSoC4/BLE_eventHandler.c **** 
 506:.\Generated_Source\PSoC4/BLE_eventHandler.c **** #ifdef CYBLE_PASS_CLIENT
 507:.\Generated_Source\PSoC4/BLE_eventHandler.c ****     if((cyBle_eventHandlerFlag & CYBLE_CALLBACK) != 0u)
 508:.\Generated_Source\PSoC4/BLE_eventHandler.c ****     {
 509:.\Generated_Source\PSoC4/BLE_eventHandler.c ****         CyBle_PasscWriteResponseEventHandler(eventParam);
 510:.\Generated_Source\PSoC4/BLE_eventHandler.c ****     }
 511:.\Generated_Source\PSoC4/BLE_eventHandler.c **** #endif /* CYBLE_PASS_CLIENT */
 512:.\Generated_Source\PSoC4/BLE_eventHandler.c **** 
 513:.\Generated_Source\PSoC4/BLE_eventHandler.c **** #ifdef CYBLE_RSCS_CLIENT
 514:.\Generated_Source\PSoC4/BLE_eventHandler.c ****     if((cyBle_eventHandlerFlag & CYBLE_CALLBACK) != 0u)
 515:.\Generated_Source\PSoC4/BLE_eventHandler.c ****     {
 516:.\Generated_Source\PSoC4/BLE_eventHandler.c ****         CyBle_RscscWriteResponseEventHandler(eventParam);
 517:.\Generated_Source\PSoC4/BLE_eventHandler.c ****     }
 518:.\Generated_Source\PSoC4/BLE_eventHandler.c **** #endif /* CYBLE_RSCS_CLIENT */
 519:.\Generated_Source\PSoC4/BLE_eventHandler.c **** 
 520:.\Generated_Source\PSoC4/BLE_eventHandler.c **** #ifdef CYBLE_SCPS_CLIENT
 521:.\Generated_Source\PSoC4/BLE_eventHandler.c ****     if((cyBle_eventHandlerFlag & CYBLE_CALLBACK) != 0u)
 522:.\Generated_Source\PSoC4/BLE_eventHandler.c ****     {
 523:.\Generated_Source\PSoC4/BLE_eventHandler.c ****         CyBle_ScpscWriteResponseEventHandler(eventParam);
ARM GAS  C:\Users\Zachary\AppData\Local\Temp\ccNoimb2.s 			page 14


 524:.\Generated_Source\PSoC4/BLE_eventHandler.c ****     }
 525:.\Generated_Source\PSoC4/BLE_eventHandler.c **** #endif /* CYBLE_SCPS_CLIENT */
 526:.\Generated_Source\PSoC4/BLE_eventHandler.c **** 
 527:.\Generated_Source\PSoC4/BLE_eventHandler.c **** #ifdef CYBLE_TPS_CLIENT
 528:.\Generated_Source\PSoC4/BLE_eventHandler.c ****     if((cyBle_eventHandlerFlag & CYBLE_CALLBACK) != 0u)
 529:.\Generated_Source\PSoC4/BLE_eventHandler.c ****     {
 530:.\Generated_Source\PSoC4/BLE_eventHandler.c ****         CyBle_TpscWriteResponseEventHandler(eventParam);
 531:.\Generated_Source\PSoC4/BLE_eventHandler.c ****     }
 532:.\Generated_Source\PSoC4/BLE_eventHandler.c **** #endif /* CYBLE_TPS_CLIENT */
 533:.\Generated_Source\PSoC4/BLE_eventHandler.c **** 
 534:.\Generated_Source\PSoC4/BLE_eventHandler.c **** #ifdef CYBLE_UDS_CLIENT
 535:.\Generated_Source\PSoC4/BLE_eventHandler.c ****     if((cyBle_eventHandlerFlag & CYBLE_CALLBACK) != 0u)
 536:.\Generated_Source\PSoC4/BLE_eventHandler.c ****     {
 537:.\Generated_Source\PSoC4/BLE_eventHandler.c ****         CyBle_UdscWriteResponseEventHandler(eventParam);
 538:.\Generated_Source\PSoC4/BLE_eventHandler.c ****     }
 539:.\Generated_Source\PSoC4/BLE_eventHandler.c **** #endif /* CYBLE_UDS_CLIENT */
 540:.\Generated_Source\PSoC4/BLE_eventHandler.c **** }
 541:.\Generated_Source\PSoC4/BLE_eventHandler.c **** 
 542:.\Generated_Source\PSoC4/BLE_eventHandler.c **** 
 543:.\Generated_Source\PSoC4/BLE_eventHandler.c **** /******************************************************************************    
 544:.\Generated_Source\PSoC4/BLE_eventHandler.c **** ##Function Name: CyBle_NotificationEventHandler
 545:.\Generated_Source\PSoC4/BLE_eventHandler.c **** *******************************************************************************
 546:.\Generated_Source\PSoC4/BLE_eventHandler.c **** 
 547:.\Generated_Source\PSoC4/BLE_eventHandler.c **** Summary:
 548:.\Generated_Source\PSoC4/BLE_eventHandler.c ****  Handles the Notification event from BLE stack.
 549:.\Generated_Source\PSoC4/BLE_eventHandler.c **** 
 550:.\Generated_Source\PSoC4/BLE_eventHandler.c **** Parameters:
 551:.\Generated_Source\PSoC4/BLE_eventHandler.c ****  CYBLE_GATTC_HANDLE_VALUE_NTF_PARAM_T * eventParam - event parameter
 552:.\Generated_Source\PSoC4/BLE_eventHandler.c **** 
 553:.\Generated_Source\PSoC4/BLE_eventHandler.c **** Return:
 554:.\Generated_Source\PSoC4/BLE_eventHandler.c ****  None
 555:.\Generated_Source\PSoC4/BLE_eventHandler.c **** 
 556:.\Generated_Source\PSoC4/BLE_eventHandler.c **** ******************************************************************************/
 557:.\Generated_Source\PSoC4/BLE_eventHandler.c **** static void CyBle_NotificationEventHandler(CYBLE_GATTC_HANDLE_VALUE_NTF_PARAM_T *eventParam)
 558:.\Generated_Source\PSoC4/BLE_eventHandler.c **** {
 559:.\Generated_Source\PSoC4/BLE_eventHandler.c **** #ifdef CYBLE_ANS_CLIENT
 560:.\Generated_Source\PSoC4/BLE_eventHandler.c ****     CyBle_AnscNotificationEventHandler(eventParam);
 561:.\Generated_Source\PSoC4/BLE_eventHandler.c **** #endif /* CYBLE_ANS_CLIENT */
 562:.\Generated_Source\PSoC4/BLE_eventHandler.c **** #ifdef CYBLE_BAS_CLIENT
 563:.\Generated_Source\PSoC4/BLE_eventHandler.c ****     if((cyBle_eventHandlerFlag & CYBLE_CALLBACK) != 0u)
 564:.\Generated_Source\PSoC4/BLE_eventHandler.c ****     {
 565:.\Generated_Source\PSoC4/BLE_eventHandler.c ****         CyBle_BascNotificationEventHandler(eventParam);
 566:.\Generated_Source\PSoC4/BLE_eventHandler.c ****     }
 567:.\Generated_Source\PSoC4/BLE_eventHandler.c **** #endif /* CYBLE_BAS_CLIENT */
 568:.\Generated_Source\PSoC4/BLE_eventHandler.c **** #ifdef CYBLE_BLS_CLIENT
 569:.\Generated_Source\PSoC4/BLE_eventHandler.c ****     if((cyBle_eventHandlerFlag & CYBLE_CALLBACK) != 0u)
 570:.\Generated_Source\PSoC4/BLE_eventHandler.c ****     {
 571:.\Generated_Source\PSoC4/BLE_eventHandler.c ****         CyBle_BlscNotificationEventHandler(eventParam);
 572:.\Generated_Source\PSoC4/BLE_eventHandler.c ****     }
 573:.\Generated_Source\PSoC4/BLE_eventHandler.c **** #endif /* CYBLE_BLS_CLIENT */
 574:.\Generated_Source\PSoC4/BLE_eventHandler.c **** #ifdef CYBLE_CGMS_CLIENT
 575:.\Generated_Source\PSoC4/BLE_eventHandler.c ****     if((cyBle_eventHandlerFlag & CYBLE_CALLBACK) != 0u)
 576:.\Generated_Source\PSoC4/BLE_eventHandler.c ****     {
 577:.\Generated_Source\PSoC4/BLE_eventHandler.c ****         CyBle_CgmscNotificationEventHandler(eventParam);
 578:.\Generated_Source\PSoC4/BLE_eventHandler.c ****     }
 579:.\Generated_Source\PSoC4/BLE_eventHandler.c **** #endif /* CYBLE_CGMS_CLIENT */
 580:.\Generated_Source\PSoC4/BLE_eventHandler.c **** #ifdef CYBLE_CPS_CLIENT
ARM GAS  C:\Users\Zachary\AppData\Local\Temp\ccNoimb2.s 			page 15


 581:.\Generated_Source\PSoC4/BLE_eventHandler.c ****     if((cyBle_eventHandlerFlag & CYBLE_CALLBACK) != 0u)
 582:.\Generated_Source\PSoC4/BLE_eventHandler.c ****     {
 583:.\Generated_Source\PSoC4/BLE_eventHandler.c ****         CyBle_CpscNotificationEventHandler(eventParam);
 584:.\Generated_Source\PSoC4/BLE_eventHandler.c ****     }
 585:.\Generated_Source\PSoC4/BLE_eventHandler.c **** #endif /* CYBLE_CPS_CLIENT */
 586:.\Generated_Source\PSoC4/BLE_eventHandler.c **** #ifdef CYBLE_CSCS_CLIENT
 587:.\Generated_Source\PSoC4/BLE_eventHandler.c ****     if((cyBle_eventHandlerFlag & CYBLE_CALLBACK) != 0u)
 588:.\Generated_Source\PSoC4/BLE_eventHandler.c ****     {
 589:.\Generated_Source\PSoC4/BLE_eventHandler.c ****         CyBle_CscscNotificationEventHandler(eventParam);
 590:.\Generated_Source\PSoC4/BLE_eventHandler.c ****     }
 591:.\Generated_Source\PSoC4/BLE_eventHandler.c **** #endif /* CYBLE_CSCS_CLIENT */
 592:.\Generated_Source\PSoC4/BLE_eventHandler.c **** #ifdef CYBLE_CTS_CLIENT
 593:.\Generated_Source\PSoC4/BLE_eventHandler.c ****     if((cyBle_eventHandlerFlag & CYBLE_CALLBACK) != 0u)
 594:.\Generated_Source\PSoC4/BLE_eventHandler.c ****     {
 595:.\Generated_Source\PSoC4/BLE_eventHandler.c ****         CyBle_CtscNotificationEventHandler(eventParam);
 596:.\Generated_Source\PSoC4/BLE_eventHandler.c ****     }
 597:.\Generated_Source\PSoC4/BLE_eventHandler.c **** #endif /* CYBLE_CTS_CLIENT */
 598:.\Generated_Source\PSoC4/BLE_eventHandler.c **** #ifdef CYBLE_GLS_CLIENT
 599:.\Generated_Source\PSoC4/BLE_eventHandler.c ****     if((cyBle_eventHandlerFlag & CYBLE_CALLBACK) != 0u)
 600:.\Generated_Source\PSoC4/BLE_eventHandler.c ****     {
 601:.\Generated_Source\PSoC4/BLE_eventHandler.c ****         CyBle_GlscNotificationEventHandler(eventParam);
 602:.\Generated_Source\PSoC4/BLE_eventHandler.c ****     }
 603:.\Generated_Source\PSoC4/BLE_eventHandler.c **** #endif /* CYBLE_GLS_CLIENT */
 604:.\Generated_Source\PSoC4/BLE_eventHandler.c **** #ifdef CYBLE_HIDS_CLIENT
 605:.\Generated_Source\PSoC4/BLE_eventHandler.c ****     if((cyBle_eventHandlerFlag & CYBLE_CALLBACK) != 0u)
 606:.\Generated_Source\PSoC4/BLE_eventHandler.c ****     {
 607:.\Generated_Source\PSoC4/BLE_eventHandler.c ****         CyBle_HidscNotificationEventHandler(eventParam);
 608:.\Generated_Source\PSoC4/BLE_eventHandler.c ****     }
 609:.\Generated_Source\PSoC4/BLE_eventHandler.c **** #endif /* CYBLE_HIDS_CLIENT */
 610:.\Generated_Source\PSoC4/BLE_eventHandler.c **** #ifdef CYBLE_HRS_CLIENT
 611:.\Generated_Source\PSoC4/BLE_eventHandler.c ****     if((cyBle_eventHandlerFlag & CYBLE_CALLBACK) != 0u)
 612:.\Generated_Source\PSoC4/BLE_eventHandler.c ****     {
 613:.\Generated_Source\PSoC4/BLE_eventHandler.c ****         CyBle_HrscNotificationEventHandler(eventParam);
 614:.\Generated_Source\PSoC4/BLE_eventHandler.c ****     }
 615:.\Generated_Source\PSoC4/BLE_eventHandler.c **** #endif /* CYBLE_HRS_CLIENT */
 616:.\Generated_Source\PSoC4/BLE_eventHandler.c **** #ifdef CYBLE_HTS_CLIENT
 617:.\Generated_Source\PSoC4/BLE_eventHandler.c ****     if((cyBle_eventHandlerFlag & CYBLE_CALLBACK) != 0u)
 618:.\Generated_Source\PSoC4/BLE_eventHandler.c ****     {
 619:.\Generated_Source\PSoC4/BLE_eventHandler.c ****         CyBle_HtscNotificationEventHandler(eventParam);
 620:.\Generated_Source\PSoC4/BLE_eventHandler.c ****     }
 621:.\Generated_Source\PSoC4/BLE_eventHandler.c **** #endif /* CYBLE_HTS_CLIENT */
 622:.\Generated_Source\PSoC4/BLE_eventHandler.c **** #ifdef CYBLE_LNS_CLIENT
 623:.\Generated_Source\PSoC4/BLE_eventHandler.c ****     if((cyBle_eventHandlerFlag & CYBLE_CALLBACK) != 0u)
 624:.\Generated_Source\PSoC4/BLE_eventHandler.c ****     {
 625:.\Generated_Source\PSoC4/BLE_eventHandler.c ****         CyBle_LnscNotificationEventHandler(eventParam);
 626:.\Generated_Source\PSoC4/BLE_eventHandler.c ****     }
 627:.\Generated_Source\PSoC4/BLE_eventHandler.c **** #endif /* CYBLE_LNS_CLIENT */
 628:.\Generated_Source\PSoC4/BLE_eventHandler.c **** #ifdef CYBLE_PASS_CLIENT
 629:.\Generated_Source\PSoC4/BLE_eventHandler.c ****     if((cyBle_eventHandlerFlag & CYBLE_CALLBACK) != 0u)
 630:.\Generated_Source\PSoC4/BLE_eventHandler.c ****     {
 631:.\Generated_Source\PSoC4/BLE_eventHandler.c ****         CyBle_PasscNotificationEventHandler(eventParam);
 632:.\Generated_Source\PSoC4/BLE_eventHandler.c ****     }
 633:.\Generated_Source\PSoC4/BLE_eventHandler.c **** #endif /* CYBLE_PASS_CLIENT */
 634:.\Generated_Source\PSoC4/BLE_eventHandler.c **** #ifdef CYBLE_RSCS_CLIENT
 635:.\Generated_Source\PSoC4/BLE_eventHandler.c ****     if((cyBle_eventHandlerFlag & CYBLE_CALLBACK) != 0u)
 636:.\Generated_Source\PSoC4/BLE_eventHandler.c ****     {
 637:.\Generated_Source\PSoC4/BLE_eventHandler.c ****         CyBle_RscscNotificationEventHandler(eventParam);
ARM GAS  C:\Users\Zachary\AppData\Local\Temp\ccNoimb2.s 			page 16


 638:.\Generated_Source\PSoC4/BLE_eventHandler.c ****     }
 639:.\Generated_Source\PSoC4/BLE_eventHandler.c **** #endif /* CYBLE_RSCS_CLIENT */
 640:.\Generated_Source\PSoC4/BLE_eventHandler.c **** #ifdef CYBLE_SCPS_CLIENT
 641:.\Generated_Source\PSoC4/BLE_eventHandler.c ****     if((cyBle_eventHandlerFlag & CYBLE_CALLBACK) != 0u)
 642:.\Generated_Source\PSoC4/BLE_eventHandler.c ****     {
 643:.\Generated_Source\PSoC4/BLE_eventHandler.c ****         CyBle_ScpscNotificationEventHandler(eventParam);
 644:.\Generated_Source\PSoC4/BLE_eventHandler.c ****     }
 645:.\Generated_Source\PSoC4/BLE_eventHandler.c **** #endif /* CYBLE_SCPS_CLIENT */
 646:.\Generated_Source\PSoC4/BLE_eventHandler.c **** #ifdef CYBLE_TPS_CLIENT
 647:.\Generated_Source\PSoC4/BLE_eventHandler.c ****     if((cyBle_eventHandlerFlag & CYBLE_CALLBACK) != 0u)
 648:.\Generated_Source\PSoC4/BLE_eventHandler.c ****     {
 649:.\Generated_Source\PSoC4/BLE_eventHandler.c ****         CyBle_TpscNotificationEventHandler(eventParam);
 650:.\Generated_Source\PSoC4/BLE_eventHandler.c ****     }
 651:.\Generated_Source\PSoC4/BLE_eventHandler.c **** #endif /* CYBLE_TPS_CLIENT */
 652:.\Generated_Source\PSoC4/BLE_eventHandler.c **** #ifdef CYBLE_UDS_CLIENT
 653:.\Generated_Source\PSoC4/BLE_eventHandler.c ****     if((cyBle_eventHandlerFlag & CYBLE_CALLBACK) != 0u)
 654:.\Generated_Source\PSoC4/BLE_eventHandler.c ****     {
 655:.\Generated_Source\PSoC4/BLE_eventHandler.c ****         CyBle_UdscNotificationEventHandler(eventParam);
 656:.\Generated_Source\PSoC4/BLE_eventHandler.c ****     }
 657:.\Generated_Source\PSoC4/BLE_eventHandler.c **** #endif /* CYBLE_UDS_CLIENT */
 658:.\Generated_Source\PSoC4/BLE_eventHandler.c **** }
 659:.\Generated_Source\PSoC4/BLE_eventHandler.c **** 
 660:.\Generated_Source\PSoC4/BLE_eventHandler.c **** 
 661:.\Generated_Source\PSoC4/BLE_eventHandler.c **** /******************************************************************************    
 662:.\Generated_Source\PSoC4/BLE_eventHandler.c **** ##Function Name: CyBle_IndicationEventHandler
 663:.\Generated_Source\PSoC4/BLE_eventHandler.c **** *******************************************************************************
 664:.\Generated_Source\PSoC4/BLE_eventHandler.c **** 
 665:.\Generated_Source\PSoC4/BLE_eventHandler.c **** Summary:
 666:.\Generated_Source\PSoC4/BLE_eventHandler.c ****  Handles the Indication event from BLE stack.
 667:.\Generated_Source\PSoC4/BLE_eventHandler.c **** 
 668:.\Generated_Source\PSoC4/BLE_eventHandler.c **** Parameters:
 669:.\Generated_Source\PSoC4/BLE_eventHandler.c ****  CYBLE_GATTC_HANDLE_VALUE_IND_PARAM_T * eventParam - event parameter
 670:.\Generated_Source\PSoC4/BLE_eventHandler.c **** 
 671:.\Generated_Source\PSoC4/BLE_eventHandler.c **** Return:
 672:.\Generated_Source\PSoC4/BLE_eventHandler.c ****  None
 673:.\Generated_Source\PSoC4/BLE_eventHandler.c **** 
 674:.\Generated_Source\PSoC4/BLE_eventHandler.c **** ******************************************************************************/
 675:.\Generated_Source\PSoC4/BLE_eventHandler.c **** static void CyBle_IndicationEventHandler(CYBLE_GATTC_HANDLE_VALUE_IND_PARAM_T *eventParam)
 676:.\Generated_Source\PSoC4/BLE_eventHandler.c **** {
 677:.\Generated_Source\PSoC4/BLE_eventHandler.c **** #ifdef CYBLE_BLS_CLIENT
 678:.\Generated_Source\PSoC4/BLE_eventHandler.c ****     if((cyBle_eventHandlerFlag & CYBLE_CALLBACK) != 0u)
 679:.\Generated_Source\PSoC4/BLE_eventHandler.c ****     {
 680:.\Generated_Source\PSoC4/BLE_eventHandler.c ****         CyBle_BlscIndicationEventHandler(eventParam);
 681:.\Generated_Source\PSoC4/BLE_eventHandler.c ****     }
 682:.\Generated_Source\PSoC4/BLE_eventHandler.c **** #endif /* CYBLE_BLS_CLIENT */
 683:.\Generated_Source\PSoC4/BLE_eventHandler.c **** #ifdef CYBLE_CGMS_CLIENT
 684:.\Generated_Source\PSoC4/BLE_eventHandler.c ****     if((cyBle_eventHandlerFlag & CYBLE_CALLBACK) != 0u)
 685:.\Generated_Source\PSoC4/BLE_eventHandler.c ****     {
 686:.\Generated_Source\PSoC4/BLE_eventHandler.c ****         CyBle_CgmscIndicationEventHandler(eventParam);
 687:.\Generated_Source\PSoC4/BLE_eventHandler.c ****     }
 688:.\Generated_Source\PSoC4/BLE_eventHandler.c **** #endif /* CYBLE_CGMS_CLIENT */
 689:.\Generated_Source\PSoC4/BLE_eventHandler.c **** #ifdef CYBLE_CPS_CLIENT
 690:.\Generated_Source\PSoC4/BLE_eventHandler.c ****     if((cyBle_eventHandlerFlag & CYBLE_CALLBACK) != 0u)
 691:.\Generated_Source\PSoC4/BLE_eventHandler.c ****     {
 692:.\Generated_Source\PSoC4/BLE_eventHandler.c ****         CyBle_CpscIndicationEventHandler(eventParam);
 693:.\Generated_Source\PSoC4/BLE_eventHandler.c ****     }
 694:.\Generated_Source\PSoC4/BLE_eventHandler.c **** #endif /* CYBLE_CPS_CLIENT */
ARM GAS  C:\Users\Zachary\AppData\Local\Temp\ccNoimb2.s 			page 17


 695:.\Generated_Source\PSoC4/BLE_eventHandler.c **** #ifdef CYBLE_CSCS_CLIENT
 696:.\Generated_Source\PSoC4/BLE_eventHandler.c ****     if((cyBle_eventHandlerFlag & CYBLE_CALLBACK) != 0u)
 697:.\Generated_Source\PSoC4/BLE_eventHandler.c ****     {
 698:.\Generated_Source\PSoC4/BLE_eventHandler.c ****         CyBle_CscscIndicationEventHandler(eventParam);
 699:.\Generated_Source\PSoC4/BLE_eventHandler.c ****     }
 700:.\Generated_Source\PSoC4/BLE_eventHandler.c **** #endif /* CYBLE_CSCS_CLIENT */
 701:.\Generated_Source\PSoC4/BLE_eventHandler.c **** #ifdef CYBLE_GLS_CLIENT
 702:.\Generated_Source\PSoC4/BLE_eventHandler.c ****     if((cyBle_eventHandlerFlag & CYBLE_CALLBACK) != 0u)
 703:.\Generated_Source\PSoC4/BLE_eventHandler.c ****     {
 704:.\Generated_Source\PSoC4/BLE_eventHandler.c ****         CyBle_GlscIndicationEventHandler(eventParam);
 705:.\Generated_Source\PSoC4/BLE_eventHandler.c ****     }
 706:.\Generated_Source\PSoC4/BLE_eventHandler.c **** #endif /* CYBLE_GLS_CLIENT */
 707:.\Generated_Source\PSoC4/BLE_eventHandler.c **** #ifdef CYBLE_HTS_CLIENT
 708:.\Generated_Source\PSoC4/BLE_eventHandler.c ****     if((cyBle_eventHandlerFlag & CYBLE_CALLBACK) != 0u)
 709:.\Generated_Source\PSoC4/BLE_eventHandler.c ****     {
 710:.\Generated_Source\PSoC4/BLE_eventHandler.c ****         CyBle_HtscIndicationEventHandler(eventParam);
 711:.\Generated_Source\PSoC4/BLE_eventHandler.c ****     }
 712:.\Generated_Source\PSoC4/BLE_eventHandler.c **** #endif /* CYBLE_HTS_CLIENT */
 713:.\Generated_Source\PSoC4/BLE_eventHandler.c **** #ifdef CYBLE_LNS_CLIENT
 714:.\Generated_Source\PSoC4/BLE_eventHandler.c ****     if((cyBle_eventHandlerFlag & CYBLE_CALLBACK) != 0u)
 715:.\Generated_Source\PSoC4/BLE_eventHandler.c ****     {
 716:.\Generated_Source\PSoC4/BLE_eventHandler.c ****         CyBle_LnscIndicationEventHandler(eventParam);
 717:.\Generated_Source\PSoC4/BLE_eventHandler.c ****     }
 718:.\Generated_Source\PSoC4/BLE_eventHandler.c **** #endif /* CYBLE_LNS_CLIENT */
 719:.\Generated_Source\PSoC4/BLE_eventHandler.c **** #ifdef CYBLE_RSCS_CLIENT
 720:.\Generated_Source\PSoC4/BLE_eventHandler.c ****     if((cyBle_eventHandlerFlag & CYBLE_CALLBACK) != 0u)
 721:.\Generated_Source\PSoC4/BLE_eventHandler.c ****     {
 722:.\Generated_Source\PSoC4/BLE_eventHandler.c ****         CyBle_RscscIndicationEventHandler(eventParam);
 723:.\Generated_Source\PSoC4/BLE_eventHandler.c ****     }
 724:.\Generated_Source\PSoC4/BLE_eventHandler.c **** #endif /* CYBLE_RSCS_CLIENT */
 725:.\Generated_Source\PSoC4/BLE_eventHandler.c **** #ifdef CYBLE_UDS_CLIENT
 726:.\Generated_Source\PSoC4/BLE_eventHandler.c ****     if((cyBle_eventHandlerFlag & CYBLE_CALLBACK) != 0u)
 727:.\Generated_Source\PSoC4/BLE_eventHandler.c ****     {
 728:.\Generated_Source\PSoC4/BLE_eventHandler.c ****         CyBle_UdscIndicationEventHandler(eventParam);
 729:.\Generated_Source\PSoC4/BLE_eventHandler.c ****     }
 730:.\Generated_Source\PSoC4/BLE_eventHandler.c **** #endif /* CYBLE_UDS_CLIENT */
 731:.\Generated_Source\PSoC4/BLE_eventHandler.c **** }
 732:.\Generated_Source\PSoC4/BLE_eventHandler.c **** 
 733:.\Generated_Source\PSoC4/BLE_eventHandler.c **** 
 734:.\Generated_Source\PSoC4/BLE_eventHandler.c **** 
 735:.\Generated_Source\PSoC4/BLE_eventHandler.c **** /******************************************************************************    
 736:.\Generated_Source\PSoC4/BLE_eventHandler.c **** ##Function Name: CyBle_ReadResponseEventHandler
 737:.\Generated_Source\PSoC4/BLE_eventHandler.c **** *******************************************************************************
 738:.\Generated_Source\PSoC4/BLE_eventHandler.c **** 
 739:.\Generated_Source\PSoC4/BLE_eventHandler.c **** Summary:
 740:.\Generated_Source\PSoC4/BLE_eventHandler.c ****  Handles the Read Response event from BLE stack.
 741:.\Generated_Source\PSoC4/BLE_eventHandler.c **** 
 742:.\Generated_Source\PSoC4/BLE_eventHandler.c **** Parameters:
 743:.\Generated_Source\PSoC4/BLE_eventHandler.c ****  CYBLE_GATTC_READ_RSP_PARAM_T * eventParam - event parameter
 744:.\Generated_Source\PSoC4/BLE_eventHandler.c **** 
 745:.\Generated_Source\PSoC4/BLE_eventHandler.c **** Return:
 746:.\Generated_Source\PSoC4/BLE_eventHandler.c ****  None
 747:.\Generated_Source\PSoC4/BLE_eventHandler.c **** 
 748:.\Generated_Source\PSoC4/BLE_eventHandler.c **** ******************************************************************************/
 749:.\Generated_Source\PSoC4/BLE_eventHandler.c **** static void CyBle_ReadResponseEventHandler(CYBLE_GATTC_READ_RSP_PARAM_T *eventParam)
 750:.\Generated_Source\PSoC4/BLE_eventHandler.c **** {
 751:.\Generated_Source\PSoC4/BLE_eventHandler.c **** #ifdef CYBLE_ANS_CLIENT
ARM GAS  C:\Users\Zachary\AppData\Local\Temp\ccNoimb2.s 			page 18


 752:.\Generated_Source\PSoC4/BLE_eventHandler.c ****     CyBle_AnscReadResponseEventHandler(eventParam);
 753:.\Generated_Source\PSoC4/BLE_eventHandler.c **** #endif /* CYBLE_ANS_CLIENT */
 754:.\Generated_Source\PSoC4/BLE_eventHandler.c **** #ifdef CYBLE_BAS_CLIENT
 755:.\Generated_Source\PSoC4/BLE_eventHandler.c ****     if((cyBle_eventHandlerFlag & CYBLE_CALLBACK) != 0u)
 756:.\Generated_Source\PSoC4/BLE_eventHandler.c ****     {
 757:.\Generated_Source\PSoC4/BLE_eventHandler.c ****         CyBle_BascReadResponseEventHandler(eventParam);
 758:.\Generated_Source\PSoC4/BLE_eventHandler.c ****     }
 759:.\Generated_Source\PSoC4/BLE_eventHandler.c **** #endif /* CYBLE_BAS_CLIENT */
 760:.\Generated_Source\PSoC4/BLE_eventHandler.c **** #ifdef CYBLE_BLS_CLIENT
 761:.\Generated_Source\PSoC4/BLE_eventHandler.c ****     if((cyBle_eventHandlerFlag & CYBLE_CALLBACK) != 0u)
 762:.\Generated_Source\PSoC4/BLE_eventHandler.c ****     {
 763:.\Generated_Source\PSoC4/BLE_eventHandler.c ****         CyBle_BlscReadResponseEventHandler(eventParam);
 764:.\Generated_Source\PSoC4/BLE_eventHandler.c ****     }
 765:.\Generated_Source\PSoC4/BLE_eventHandler.c **** #endif /* CYBLE_BLS_CLIENT */
 766:.\Generated_Source\PSoC4/BLE_eventHandler.c **** #ifdef CYBLE_CGMS_CLIENT
 767:.\Generated_Source\PSoC4/BLE_eventHandler.c ****     if((cyBle_eventHandlerFlag & CYBLE_CALLBACK) != 0u)
 768:.\Generated_Source\PSoC4/BLE_eventHandler.c ****     {
 769:.\Generated_Source\PSoC4/BLE_eventHandler.c ****         CyBle_CgmscReadResponseEventHandler(eventParam);
 770:.\Generated_Source\PSoC4/BLE_eventHandler.c ****     }
 771:.\Generated_Source\PSoC4/BLE_eventHandler.c **** #endif /* CYBLE_CGMS_CLIENT */
 772:.\Generated_Source\PSoC4/BLE_eventHandler.c **** #ifdef CYBLE_CPS_CLIENT
 773:.\Generated_Source\PSoC4/BLE_eventHandler.c ****     if((cyBle_eventHandlerFlag & CYBLE_CALLBACK) != 0u)
 774:.\Generated_Source\PSoC4/BLE_eventHandler.c ****     {
 775:.\Generated_Source\PSoC4/BLE_eventHandler.c ****         CyBle_CpscReadResponseEventHandler(eventParam);
 776:.\Generated_Source\PSoC4/BLE_eventHandler.c ****     }
 777:.\Generated_Source\PSoC4/BLE_eventHandler.c **** #endif /* CYBLE_CPS_CLIENT */
 778:.\Generated_Source\PSoC4/BLE_eventHandler.c **** #ifdef CYBLE_CSCS_CLIENT
 779:.\Generated_Source\PSoC4/BLE_eventHandler.c ****     if((cyBle_eventHandlerFlag & CYBLE_CALLBACK) != 0u)
 780:.\Generated_Source\PSoC4/BLE_eventHandler.c ****     {
 781:.\Generated_Source\PSoC4/BLE_eventHandler.c ****         CyBle_CscscReadResponseEventHandler(eventParam);
 782:.\Generated_Source\PSoC4/BLE_eventHandler.c ****     }
 783:.\Generated_Source\PSoC4/BLE_eventHandler.c **** #endif /* CYBLE_CSCS_CLIENT */
 784:.\Generated_Source\PSoC4/BLE_eventHandler.c **** #ifdef CYBLE_CTS_CLIENT
 785:.\Generated_Source\PSoC4/BLE_eventHandler.c ****     if((cyBle_eventHandlerFlag & CYBLE_CALLBACK) != 0u)
 786:.\Generated_Source\PSoC4/BLE_eventHandler.c ****     {
 787:.\Generated_Source\PSoC4/BLE_eventHandler.c ****         CyBle_CtscReadResponseEventHandler(eventParam);
 788:.\Generated_Source\PSoC4/BLE_eventHandler.c ****     }
 789:.\Generated_Source\PSoC4/BLE_eventHandler.c **** #endif /* CYBLE_BAS_CLIENT */
 790:.\Generated_Source\PSoC4/BLE_eventHandler.c **** #ifdef CYBLE_DIS_CLIENT
 791:.\Generated_Source\PSoC4/BLE_eventHandler.c ****     if((cyBle_eventHandlerFlag & CYBLE_CALLBACK) != 0u)
 792:.\Generated_Source\PSoC4/BLE_eventHandler.c ****     {
 793:.\Generated_Source\PSoC4/BLE_eventHandler.c ****         CyBle_DiscReadResponseEventHandler(eventParam);
 794:.\Generated_Source\PSoC4/BLE_eventHandler.c ****     }
 795:.\Generated_Source\PSoC4/BLE_eventHandler.c **** #endif /* CYBLE_DIS_CLIENT */
 796:.\Generated_Source\PSoC4/BLE_eventHandler.c **** #ifdef CYBLE_GLS_CLIENT
 797:.\Generated_Source\PSoC4/BLE_eventHandler.c ****     if((cyBle_eventHandlerFlag & CYBLE_CALLBACK) != 0u)
 798:.\Generated_Source\PSoC4/BLE_eventHandler.c ****     {
 799:.\Generated_Source\PSoC4/BLE_eventHandler.c ****         CyBle_GlscReadResponseEventHandler(eventParam);
 800:.\Generated_Source\PSoC4/BLE_eventHandler.c ****     }
 801:.\Generated_Source\PSoC4/BLE_eventHandler.c **** #endif /* CYBLE_GLS_CLIENT */
 802:.\Generated_Source\PSoC4/BLE_eventHandler.c **** #ifdef CYBLE_HIDS_CLIENT
 803:.\Generated_Source\PSoC4/BLE_eventHandler.c ****     if((cyBle_eventHandlerFlag & CYBLE_CALLBACK) != 0u)
 804:.\Generated_Source\PSoC4/BLE_eventHandler.c ****     {
 805:.\Generated_Source\PSoC4/BLE_eventHandler.c ****         CyBle_HidscReadResponseEventHandler(eventParam);
 806:.\Generated_Source\PSoC4/BLE_eventHandler.c ****     }
 807:.\Generated_Source\PSoC4/BLE_eventHandler.c **** #endif /* CYBLE_HIDS_CLIENT */
 808:.\Generated_Source\PSoC4/BLE_eventHandler.c **** #ifdef CYBLE_HRS_CLIENT
ARM GAS  C:\Users\Zachary\AppData\Local\Temp\ccNoimb2.s 			page 19


 809:.\Generated_Source\PSoC4/BLE_eventHandler.c ****     if((cyBle_eventHandlerFlag & CYBLE_CALLBACK) != 0u)
 810:.\Generated_Source\PSoC4/BLE_eventHandler.c ****     {
 811:.\Generated_Source\PSoC4/BLE_eventHandler.c ****         CyBle_HrscReadResponseEventHandler(eventParam);
 812:.\Generated_Source\PSoC4/BLE_eventHandler.c ****     }
 813:.\Generated_Source\PSoC4/BLE_eventHandler.c **** #endif /* CYBLE_HRS_CLIENT */
 814:.\Generated_Source\PSoC4/BLE_eventHandler.c **** #ifdef CYBLE_HTS_CLIENT
 815:.\Generated_Source\PSoC4/BLE_eventHandler.c ****     if((cyBle_eventHandlerFlag & CYBLE_CALLBACK) != 0u)
 816:.\Generated_Source\PSoC4/BLE_eventHandler.c ****     {
 817:.\Generated_Source\PSoC4/BLE_eventHandler.c ****         CyBle_HtscReadResponseEventHandler(eventParam);
 818:.\Generated_Source\PSoC4/BLE_eventHandler.c ****     }
 819:.\Generated_Source\PSoC4/BLE_eventHandler.c **** #endif /* CYBLE_HTS_CLIENT */
 820:.\Generated_Source\PSoC4/BLE_eventHandler.c **** #ifdef CYBLE_LLS_CLIENT
 821:.\Generated_Source\PSoC4/BLE_eventHandler.c ****     if((cyBle_eventHandlerFlag & CYBLE_CALLBACK) != 0u)
 822:.\Generated_Source\PSoC4/BLE_eventHandler.c ****     {
 823:.\Generated_Source\PSoC4/BLE_eventHandler.c ****         CyBle_LlscReadResponseEventHandler(eventParam);
 824:.\Generated_Source\PSoC4/BLE_eventHandler.c ****     }
 825:.\Generated_Source\PSoC4/BLE_eventHandler.c **** #endif /* CYBLE_LLS_CLIENT */
 826:.\Generated_Source\PSoC4/BLE_eventHandler.c **** #ifdef CYBLE_LNS_CLIENT
 827:.\Generated_Source\PSoC4/BLE_eventHandler.c ****     if((cyBle_eventHandlerFlag & CYBLE_CALLBACK) != 0u)
 828:.\Generated_Source\PSoC4/BLE_eventHandler.c ****     {
 829:.\Generated_Source\PSoC4/BLE_eventHandler.c ****         CyBle_LnscReadResponseEventHandler(eventParam);
 830:.\Generated_Source\PSoC4/BLE_eventHandler.c ****     }
 831:.\Generated_Source\PSoC4/BLE_eventHandler.c **** #endif /* CYBLE_LNS_CLIENT */
 832:.\Generated_Source\PSoC4/BLE_eventHandler.c **** #ifdef CYBLE_NDCS_CLIENT
 833:.\Generated_Source\PSoC4/BLE_eventHandler.c ****     if((cyBle_eventHandlerFlag & CYBLE_CALLBACK) != 0u)
 834:.\Generated_Source\PSoC4/BLE_eventHandler.c ****     {
 835:.\Generated_Source\PSoC4/BLE_eventHandler.c ****         CyBle_NdcscReadResponseEventHandler(eventParam);
 836:.\Generated_Source\PSoC4/BLE_eventHandler.c ****     }
 837:.\Generated_Source\PSoC4/BLE_eventHandler.c **** #endif /* CYBLE_NDCS_CLIENT */
 838:.\Generated_Source\PSoC4/BLE_eventHandler.c **** #ifdef CYBLE_PASS_CLIENT
 839:.\Generated_Source\PSoC4/BLE_eventHandler.c ****     if((cyBle_eventHandlerFlag & CYBLE_CALLBACK) != 0u)
 840:.\Generated_Source\PSoC4/BLE_eventHandler.c ****     {
 841:.\Generated_Source\PSoC4/BLE_eventHandler.c ****         CyBle_PasscReadResponseEventHandler(eventParam);
 842:.\Generated_Source\PSoC4/BLE_eventHandler.c ****     }
 843:.\Generated_Source\PSoC4/BLE_eventHandler.c **** #endif /* CYBLE_PASS_CLIENT */
 844:.\Generated_Source\PSoC4/BLE_eventHandler.c **** #ifdef CYBLE_RSCS_CLIENT
 845:.\Generated_Source\PSoC4/BLE_eventHandler.c ****     if((cyBle_eventHandlerFlag & CYBLE_CALLBACK) != 0u)
 846:.\Generated_Source\PSoC4/BLE_eventHandler.c ****     {
 847:.\Generated_Source\PSoC4/BLE_eventHandler.c ****         CyBle_RscscReadResponseEventHandler(eventParam);
 848:.\Generated_Source\PSoC4/BLE_eventHandler.c ****     }
 849:.\Generated_Source\PSoC4/BLE_eventHandler.c **** #endif /* CYBLE_RSCS_CLIENT */
 850:.\Generated_Source\PSoC4/BLE_eventHandler.c **** #ifdef CYBLE_RTUS_CLIENT
 851:.\Generated_Source\PSoC4/BLE_eventHandler.c ****     if((cyBle_eventHandlerFlag & CYBLE_CALLBACK) != 0u)
 852:.\Generated_Source\PSoC4/BLE_eventHandler.c ****     {
 853:.\Generated_Source\PSoC4/BLE_eventHandler.c ****         CyBle_RtuscReadResponseEventHandler(eventParam);
 854:.\Generated_Source\PSoC4/BLE_eventHandler.c ****     }
 855:.\Generated_Source\PSoC4/BLE_eventHandler.c **** #endif /* CYBLE_RTUS_CLIENT */
 856:.\Generated_Source\PSoC4/BLE_eventHandler.c **** #ifdef CYBLE_SCPS_CLIENT
 857:.\Generated_Source\PSoC4/BLE_eventHandler.c ****     if((cyBle_eventHandlerFlag & CYBLE_CALLBACK) != 0u)
 858:.\Generated_Source\PSoC4/BLE_eventHandler.c ****     {
 859:.\Generated_Source\PSoC4/BLE_eventHandler.c ****         CyBle_ScpscReadResponseEventHandler(eventParam);
 860:.\Generated_Source\PSoC4/BLE_eventHandler.c ****     }
 861:.\Generated_Source\PSoC4/BLE_eventHandler.c **** #endif /* CYBLE_SCPS_CLIENT */
 862:.\Generated_Source\PSoC4/BLE_eventHandler.c **** #ifdef CYBLE_TPS_CLIENT
 863:.\Generated_Source\PSoC4/BLE_eventHandler.c ****     if((cyBle_eventHandlerFlag & CYBLE_CALLBACK) != 0u)
 864:.\Generated_Source\PSoC4/BLE_eventHandler.c ****     {
 865:.\Generated_Source\PSoC4/BLE_eventHandler.c ****         CyBle_TpscReadResponseEventHandler(eventParam);
ARM GAS  C:\Users\Zachary\AppData\Local\Temp\ccNoimb2.s 			page 20


 866:.\Generated_Source\PSoC4/BLE_eventHandler.c ****     }
 867:.\Generated_Source\PSoC4/BLE_eventHandler.c **** #endif /* CYBLE_TPS_CLIENT */
 868:.\Generated_Source\PSoC4/BLE_eventHandler.c **** #ifdef CYBLE_UDS_CLIENT
 869:.\Generated_Source\PSoC4/BLE_eventHandler.c ****     if((cyBle_eventHandlerFlag & CYBLE_CALLBACK) != 0u)
 870:.\Generated_Source\PSoC4/BLE_eventHandler.c ****     {
 871:.\Generated_Source\PSoC4/BLE_eventHandler.c ****         CyBle_UdscReadResponseEventHandler(eventParam);
 872:.\Generated_Source\PSoC4/BLE_eventHandler.c ****     }
 873:.\Generated_Source\PSoC4/BLE_eventHandler.c **** #endif /* CYBLE_UDS_CLIENT */
 874:.\Generated_Source\PSoC4/BLE_eventHandler.c **** }
 875:.\Generated_Source\PSoC4/BLE_eventHandler.c **** #endif /* CYBLE_GATT_ROLE_CLIENT */
 876:.\Generated_Source\PSoC4/BLE_eventHandler.c **** 
 877:.\Generated_Source\PSoC4/BLE_eventHandler.c **** 
 878:.\Generated_Source\PSoC4/BLE_eventHandler.c **** /****************************************************************************** 
 879:.\Generated_Source\PSoC4/BLE_eventHandler.c **** ##Function Name: CyBle_DisconnectEventHandler
 880:.\Generated_Source\PSoC4/BLE_eventHandler.c **** *******************************************************************************
 881:.\Generated_Source\PSoC4/BLE_eventHandler.c **** 
 882:.\Generated_Source\PSoC4/BLE_eventHandler.c **** Summary:
 883:.\Generated_Source\PSoC4/BLE_eventHandler.c ****  Handles the GATT Disconnection event from the BLE stack.
 884:.\Generated_Source\PSoC4/BLE_eventHandler.c **** 
 885:.\Generated_Source\PSoC4/BLE_eventHandler.c **** Parameters:
 886:.\Generated_Source\PSoC4/BLE_eventHandler.c ****  None
 887:.\Generated_Source\PSoC4/BLE_eventHandler.c **** 
 888:.\Generated_Source\PSoC4/BLE_eventHandler.c **** Return:
 889:.\Generated_Source\PSoC4/BLE_eventHandler.c ****  None
 890:.\Generated_Source\PSoC4/BLE_eventHandler.c **** 
 891:.\Generated_Source\PSoC4/BLE_eventHandler.c **** ******************************************************************************/
 892:.\Generated_Source\PSoC4/BLE_eventHandler.c **** static void CyBle_GattDisconnectEventHandler(void)
 893:.\Generated_Source\PSoC4/BLE_eventHandler.c **** {
 219              		.loc 1 893 0
 220              		.cfi_startproc
 221 0000 80B5     		push	{r7, lr}
 222              		.cfi_def_cfa_offset 8
 223              		.cfi_offset 7, -8
 224              		.cfi_offset 14, -4
 225 0002 00AF     		add	r7, sp, #0
 226              		.cfi_def_cfa_register 7
 894:.\Generated_Source\PSoC4/BLE_eventHandler.c ****     cyBle_connHandle.attId = 0u;
 227              		.loc 1 894 0
 228 0004 034B     		ldr	r3, .L13
 229 0006 0022     		mov	r2, #0
 230 0008 5A70     		strb	r2, [r3, #1]
 895:.\Generated_Source\PSoC4/BLE_eventHandler.c ****     cyBle_connHandle.bdHandle = 0u;
 231              		.loc 1 895 0
 232 000a 024B     		ldr	r3, .L13
 233 000c 0022     		mov	r2, #0
 234 000e 1A70     		strb	r2, [r3]
 896:.\Generated_Source\PSoC4/BLE_eventHandler.c ****     
 897:.\Generated_Source\PSoC4/BLE_eventHandler.c ****     #if (CYBLE_GATT_ROLE_CLIENT)
 898:.\Generated_Source\PSoC4/BLE_eventHandler.c ****         if(CYBLE_CLIENT_STATE_DISCOVERED == CyBle_GetClientState())
 899:.\Generated_Source\PSoC4/BLE_eventHandler.c ****         {
 900:.\Generated_Source\PSoC4/BLE_eventHandler.c ****             CyBle_SetClientState(CYBLE_CLIENT_STATE_DISCONNECTED_DISCOVERED);
 901:.\Generated_Source\PSoC4/BLE_eventHandler.c ****         }
 902:.\Generated_Source\PSoC4/BLE_eventHandler.c ****         else
 903:.\Generated_Source\PSoC4/BLE_eventHandler.c ****         {
 904:.\Generated_Source\PSoC4/BLE_eventHandler.c ****             CyBle_SetClientState(CYBLE_CLIENT_STATE_DISCONNECTED);
 905:.\Generated_Source\PSoC4/BLE_eventHandler.c ****         }
 906:.\Generated_Source\PSoC4/BLE_eventHandler.c ****     #endif /* CYBLE_GATT_ROLE_CLIENT */
ARM GAS  C:\Users\Zachary\AppData\Local\Temp\ccNoimb2.s 			page 21


 907:.\Generated_Source\PSoC4/BLE_eventHandler.c ****         
 908:.\Generated_Source\PSoC4/BLE_eventHandler.c ****     #ifdef CYBLE_CPS_SERVER
 909:.\Generated_Source\PSoC4/BLE_eventHandler.c ****         #if CYBLE_GAP_ROLE_BROADCASTER
 910:.\Generated_Source\PSoC4/BLE_eventHandler.c ****             CyBle_CpssDisconnectEventHandler();
 911:.\Generated_Source\PSoC4/BLE_eventHandler.c ****         #endif /* CYBLE_GAP_ROLE_BROADCASTER */
 912:.\Generated_Source\PSoC4/BLE_eventHandler.c ****     #endif /* CYBLE_CPS_SERVER */
 913:.\Generated_Source\PSoC4/BLE_eventHandler.c **** 
 914:.\Generated_Source\PSoC4/BLE_eventHandler.c ****     #ifdef CYBLE_CPS_CLIENT
 915:.\Generated_Source\PSoC4/BLE_eventHandler.c ****         CyBle_CpscDisconnectEventHandler();
 916:.\Generated_Source\PSoC4/BLE_eventHandler.c ****     #endif /* CYBLE_CPS_CLIENT */
 917:.\Generated_Source\PSoC4/BLE_eventHandler.c **** 
 918:.\Generated_Source\PSoC4/BLE_eventHandler.c ****     #ifdef CYBLE_IAS_SERVER
 919:.\Generated_Source\PSoC4/BLE_eventHandler.c ****         CyBle_IassDisconnectEventHandler();
 920:.\Generated_Source\PSoC4/BLE_eventHandler.c ****     #endif /* CYBLE_IAS_SERVER */
 921:.\Generated_Source\PSoC4/BLE_eventHandler.c ****     
 922:.\Generated_Source\PSoC4/BLE_eventHandler.c ****     #ifdef CYBLE_GLS_SERVER
 923:.\Generated_Source\PSoC4/BLE_eventHandler.c ****         CyBle_GlsInit();
 924:.\Generated_Source\PSoC4/BLE_eventHandler.c ****     #endif /* CYBLE_GLS_SERVER */
 925:.\Generated_Source\PSoC4/BLE_eventHandler.c ****     
 926:.\Generated_Source\PSoC4/BLE_eventHandler.c ****     #ifdef CYBLE_LNS_SERVER
 927:.\Generated_Source\PSoC4/BLE_eventHandler.c ****         CyBle_LnsInit();
 928:.\Generated_Source\PSoC4/BLE_eventHandler.c ****     #endif /* CYBLE_LNS_SERVER */
 929:.\Generated_Source\PSoC4/BLE_eventHandler.c ****     
 930:.\Generated_Source\PSoC4/BLE_eventHandler.c ****     #ifdef CYBLE_UDS_SERVER
 931:.\Generated_Source\PSoC4/BLE_eventHandler.c ****         CyBle_UdsInit();
 932:.\Generated_Source\PSoC4/BLE_eventHandler.c ****     #endif /* CYBLE_UDS_SERVER */
 933:.\Generated_Source\PSoC4/BLE_eventHandler.c **** }
 235              		.loc 1 933 0
 236 0010 BD46     		mov	sp, r7
 237              		@ sp needed
 238 0012 80BD     		pop	{r7, pc}
 239              	.L14:
 240              		.align	2
 241              	.L13:
 242 0014 00000000 		.word	cyBle_connHandle
 243              		.cfi_endproc
 244              	.LFE4:
 245              		.size	CyBle_GattDisconnectEventHandler, .-CyBle_GattDisconnectEventHandler
 246              		.section	.text.CyBle_TimeOutEventHandler,"ax",%progbits
 247              		.align	2
 248              		.code	16
 249              		.thumb_func
 250              		.type	CyBle_TimeOutEventHandler, %function
 251              	CyBle_TimeOutEventHandler:
 252              	.LFB5:
 934:.\Generated_Source\PSoC4/BLE_eventHandler.c **** 
 935:.\Generated_Source\PSoC4/BLE_eventHandler.c **** 
 936:.\Generated_Source\PSoC4/BLE_eventHandler.c **** /****************************************************************************** 
 937:.\Generated_Source\PSoC4/BLE_eventHandler.c **** ##Function Name: CyBle_TimeOutEventHandler
 938:.\Generated_Source\PSoC4/BLE_eventHandler.c **** *******************************************************************************
 939:.\Generated_Source\PSoC4/BLE_eventHandler.c **** 
 940:.\Generated_Source\PSoC4/BLE_eventHandler.c **** Summary:
 941:.\Generated_Source\PSoC4/BLE_eventHandler.c ****  Handles the CYBLE_EVT_TIMEOUT event from the BLE stack.
 942:.\Generated_Source\PSoC4/BLE_eventHandler.c **** 
 943:.\Generated_Source\PSoC4/BLE_eventHandler.c **** Parameters:
 944:.\Generated_Source\PSoC4/BLE_eventHandler.c ****  *eventParam - The pointer to a structure of type CYBLE_TO_REASON_CODE_T.
 945:.\Generated_Source\PSoC4/BLE_eventHandler.c **** 
ARM GAS  C:\Users\Zachary\AppData\Local\Temp\ccNoimb2.s 			page 22


 946:.\Generated_Source\PSoC4/BLE_eventHandler.c **** Return:
 947:.\Generated_Source\PSoC4/BLE_eventHandler.c ****  None
 948:.\Generated_Source\PSoC4/BLE_eventHandler.c **** 
 949:.\Generated_Source\PSoC4/BLE_eventHandler.c **** ******************************************************************************/
 950:.\Generated_Source\PSoC4/BLE_eventHandler.c **** static void CyBle_TimeOutEventHandler(const CYBLE_TO_REASON_CODE_T *eventParam)
 951:.\Generated_Source\PSoC4/BLE_eventHandler.c **** {
 253              		.loc 1 951 0
 254              		.cfi_startproc
 255 0000 80B5     		push	{r7, lr}
 256              		.cfi_def_cfa_offset 8
 257              		.cfi_offset 7, -8
 258              		.cfi_offset 14, -4
 259 0002 82B0     		sub	sp, sp, #8
 260              		.cfi_def_cfa_offset 16
 261 0004 00AF     		add	r7, sp, #0
 262              		.cfi_def_cfa_register 7
 263 0006 7860     		str	r0, [r7, #4]
 952:.\Generated_Source\PSoC4/BLE_eventHandler.c ****     if(*eventParam == CYBLE_GATT_RSP_TO)
 953:.\Generated_Source\PSoC4/BLE_eventHandler.c ****     {
 954:.\Generated_Source\PSoC4/BLE_eventHandler.c ****     #if (CYBLE_GATT_ROLE_CLIENT)
 955:.\Generated_Source\PSoC4/BLE_eventHandler.c ****         if(0u != (cyBle_eventHandlerFlag & CYBLE_AUTO_DISCOVERY))
 956:.\Generated_Source\PSoC4/BLE_eventHandler.c ****         {
 957:.\Generated_Source\PSoC4/BLE_eventHandler.c ****             switch(CyBle_GetClientState())
 958:.\Generated_Source\PSoC4/BLE_eventHandler.c ****             {
 959:.\Generated_Source\PSoC4/BLE_eventHandler.c ****                 case CYBLE_CLIENT_STATE_SRVC_DISCOVERING:
 960:.\Generated_Source\PSoC4/BLE_eventHandler.c ****                     CyBle_ApplCallback(CYBLE_EVT_GATTC_SRVC_DISCOVERY_FAILED, NULL);
 961:.\Generated_Source\PSoC4/BLE_eventHandler.c ****                     break;
 962:.\Generated_Source\PSoC4/BLE_eventHandler.c ****                 case CYBLE_CLIENT_STATE_INCL_DISCOVERING:
 963:.\Generated_Source\PSoC4/BLE_eventHandler.c ****                     CyBle_ApplCallback(CYBLE_EVT_GATTC_INCL_DISCOVERY_FAILED, NULL);
 964:.\Generated_Source\PSoC4/BLE_eventHandler.c ****                     break;
 965:.\Generated_Source\PSoC4/BLE_eventHandler.c ****                 case CYBLE_CLIENT_STATE_CHAR_DISCOVERING:
 966:.\Generated_Source\PSoC4/BLE_eventHandler.c ****                     CyBle_ApplCallback(CYBLE_EVT_GATTC_CHAR_DISCOVERY_FAILED, NULL);
 967:.\Generated_Source\PSoC4/BLE_eventHandler.c ****                     break;
 968:.\Generated_Source\PSoC4/BLE_eventHandler.c ****                 case CYBLE_CLIENT_STATE_DESCR_DISCOVERING:
 969:.\Generated_Source\PSoC4/BLE_eventHandler.c ****                     CyBle_ApplCallback(CYBLE_EVT_GATTC_DESCR_DISCOVERY_FAILED, NULL);
 970:.\Generated_Source\PSoC4/BLE_eventHandler.c ****                     break;
 971:.\Generated_Source\PSoC4/BLE_eventHandler.c ****                 default:        /* Other states should not be set in Auto discovery mode */
 972:.\Generated_Source\PSoC4/BLE_eventHandler.c ****                     break;
 973:.\Generated_Source\PSoC4/BLE_eventHandler.c ****             }
 974:.\Generated_Source\PSoC4/BLE_eventHandler.c ****             cyBle_eventHandlerFlag &= (uint8)~CYBLE_AUTO_DISCOVERY;
 975:.\Generated_Source\PSoC4/BLE_eventHandler.c ****             CyBle_SetClientState(CYBLE_CLIENT_STATE_CONNECTED);
 976:.\Generated_Source\PSoC4/BLE_eventHandler.c ****         }
 977:.\Generated_Source\PSoC4/BLE_eventHandler.c ****     #endif /* CYBLE_GATT_ROLE_CLIENT */
 978:.\Generated_Source\PSoC4/BLE_eventHandler.c ****     #ifdef CYBLE_CPS_SERVER
 979:.\Generated_Source\PSoC4/BLE_eventHandler.c ****         CyBle_CpssTimeOutEventHandler();
 980:.\Generated_Source\PSoC4/BLE_eventHandler.c ****     #endif /* CYBLE_CPS_SERVER */
 981:.\Generated_Source\PSoC4/BLE_eventHandler.c ****     }
 982:.\Generated_Source\PSoC4/BLE_eventHandler.c ****     
 983:.\Generated_Source\PSoC4/BLE_eventHandler.c ****     /* Connection procedure timeout */
 984:.\Generated_Source\PSoC4/BLE_eventHandler.c ****     if(*eventParam == CYBLE_GENERIC_TO)
 985:.\Generated_Source\PSoC4/BLE_eventHandler.c ****     {
 986:.\Generated_Source\PSoC4/BLE_eventHandler.c ****     #if(CYBLE_GAP_ROLE_CENTRAL)
 987:.\Generated_Source\PSoC4/BLE_eventHandler.c ****         if(CYBLE_STATE_CONNECTING == CyBle_GetState())
 988:.\Generated_Source\PSoC4/BLE_eventHandler.c ****         {
 989:.\Generated_Source\PSoC4/BLE_eventHandler.c ****             (void)CyBle_GapcCancelDeviceConnection();
 990:.\Generated_Source\PSoC4/BLE_eventHandler.c ****         }
 991:.\Generated_Source\PSoC4/BLE_eventHandler.c ****     #endif /* CYBLE_GAP_ROLE_CENTRAL */
ARM GAS  C:\Users\Zachary\AppData\Local\Temp\ccNoimb2.s 			page 23


 992:.\Generated_Source\PSoC4/BLE_eventHandler.c ****     }
 993:.\Generated_Source\PSoC4/BLE_eventHandler.c **** }
 264              		.loc 1 993 0
 265 0008 BD46     		mov	sp, r7
 266 000a 02B0     		add	sp, sp, #8
 267              		@ sp needed
 268 000c 80BD     		pop	{r7, pc}
 269              		.cfi_endproc
 270              	.LFE5:
 271              		.size	CyBle_TimeOutEventHandler, .-CyBle_TimeOutEventHandler
 272              		.section	.text.CyBle_GattConnectReqHandler,"ax",%progbits
 273              		.align	2
 274              		.code	16
 275              		.thumb_func
 276              		.type	CyBle_GattConnectReqHandler, %function
 277              	CyBle_GattConnectReqHandler:
 278              	.LFB6:
 994:.\Generated_Source\PSoC4/BLE_eventHandler.c **** 
 995:.\Generated_Source\PSoC4/BLE_eventHandler.c **** 
 996:.\Generated_Source\PSoC4/BLE_eventHandler.c **** /****************************************************************************** 
 997:.\Generated_Source\PSoC4/BLE_eventHandler.c **** ##Function Name: CyBle_GattConnectReqHandler
 998:.\Generated_Source\PSoC4/BLE_eventHandler.c **** *******************************************************************************
 999:.\Generated_Source\PSoC4/BLE_eventHandler.c **** 
1000:.\Generated_Source\PSoC4/BLE_eventHandler.c **** Summary:
1001:.\Generated_Source\PSoC4/BLE_eventHandler.c ****  Handles the GATT connect event from the BLE stack.
1002:.\Generated_Source\PSoC4/BLE_eventHandler.c **** 
1003:.\Generated_Source\PSoC4/BLE_eventHandler.c **** Parameters:
1004:.\Generated_Source\PSoC4/BLE_eventHandler.c ****  None
1005:.\Generated_Source\PSoC4/BLE_eventHandler.c **** 
1006:.\Generated_Source\PSoC4/BLE_eventHandler.c **** Return:
1007:.\Generated_Source\PSoC4/BLE_eventHandler.c ****  None
1008:.\Generated_Source\PSoC4/BLE_eventHandler.c **** 
1009:.\Generated_Source\PSoC4/BLE_eventHandler.c **** ******************************************************************************/
1010:.\Generated_Source\PSoC4/BLE_eventHandler.c **** static void CyBle_GattConnectReqHandler(void)
1011:.\Generated_Source\PSoC4/BLE_eventHandler.c **** {
 279              		.loc 1 1011 0
 280              		.cfi_startproc
 281 0000 80B5     		push	{r7, lr}
 282              		.cfi_def_cfa_offset 8
 283              		.cfi_offset 7, -8
 284              		.cfi_offset 14, -4
 285 0002 00AF     		add	r7, sp, #0
 286              		.cfi_def_cfa_register 7
1012:.\Generated_Source\PSoC4/BLE_eventHandler.c ****     #ifdef CYBLE_CPS_SERVER
1013:.\Generated_Source\PSoC4/BLE_eventHandler.c ****         CyBle_CpssConnectEventHandler();
1014:.\Generated_Source\PSoC4/BLE_eventHandler.c ****     #endif /* CYBLE_CPS_SERVER */
1015:.\Generated_Source\PSoC4/BLE_eventHandler.c ****     
1016:.\Generated_Source\PSoC4/BLE_eventHandler.c ****     #ifdef CYBLE_CSCS_SERVER
1017:.\Generated_Source\PSoC4/BLE_eventHandler.c ****             CyBle_CscsInit();
1018:.\Generated_Source\PSoC4/BLE_eventHandler.c ****     #endif /* CYBLE_CSCS_SERVER */
1019:.\Generated_Source\PSoC4/BLE_eventHandler.c ****     
1020:.\Generated_Source\PSoC4/BLE_eventHandler.c ****     #ifdef CYBLE_LLS_SERVER
1021:.\Generated_Source\PSoC4/BLE_eventHandler.c ****         CyBle_LlssConnectEventHandler();
1022:.\Generated_Source\PSoC4/BLE_eventHandler.c ****     #endif /* CYBLE_LLS_SERVER */
1023:.\Generated_Source\PSoC4/BLE_eventHandler.c ****     
1024:.\Generated_Source\PSoC4/BLE_eventHandler.c ****     #ifdef CYBLE_HIDS_SERVER
1025:.\Generated_Source\PSoC4/BLE_eventHandler.c ****         CyBle_HidssOnDeviceConnected();
ARM GAS  C:\Users\Zachary\AppData\Local\Temp\ccNoimb2.s 			page 24


1026:.\Generated_Source\PSoC4/BLE_eventHandler.c ****     #endif /* CYBLE_HIDS_SERVER */
1027:.\Generated_Source\PSoC4/BLE_eventHandler.c **** 
1028:.\Generated_Source\PSoC4/BLE_eventHandler.c ****     #ifdef CYBLE_RSCS_SERVER
1029:.\Generated_Source\PSoC4/BLE_eventHandler.c ****         CyBle_RscsInit();
1030:.\Generated_Source\PSoC4/BLE_eventHandler.c ****     #endif /* CYBLE_RSCS_SERVER */
1031:.\Generated_Source\PSoC4/BLE_eventHandler.c **** }
 287              		.loc 1 1031 0
 288 0004 BD46     		mov	sp, r7
 289              		@ sp needed
 290 0006 80BD     		pop	{r7, pc}
 291              		.cfi_endproc
 292              	.LFE6:
 293              		.size	CyBle_GattConnectReqHandler, .-CyBle_GattConnectReqHandler
 294              		.section	.text.CyBle_IsDeviceAddressValid,"ax",%progbits
 295              		.align	2
 296              		.code	16
 297              		.thumb_func
 298              		.type	CyBle_IsDeviceAddressValid, %function
 299              	CyBle_IsDeviceAddressValid:
 300              	.LFB7:
1032:.\Generated_Source\PSoC4/BLE_eventHandler.c **** 
1033:.\Generated_Source\PSoC4/BLE_eventHandler.c **** 
1034:.\Generated_Source\PSoC4/BLE_eventHandler.c **** #if (CYBLE_GATT_ROLE_SERVER || CYBLE_GATT_ROLE_CLIENT)
1035:.\Generated_Source\PSoC4/BLE_eventHandler.c **** 
1036:.\Generated_Source\PSoC4/BLE_eventHandler.c **** /****************************************************************************** 
1037:.\Generated_Source\PSoC4/BLE_eventHandler.c **** ##Function Name: CyBle_IsDeviceAddressValid
1038:.\Generated_Source\PSoC4/BLE_eventHandler.c **** *******************************************************************************
1039:.\Generated_Source\PSoC4/BLE_eventHandler.c **** 
1040:.\Generated_Source\PSoC4/BLE_eventHandler.c **** Summary:
1041:.\Generated_Source\PSoC4/BLE_eventHandler.c ****  This function verifies that BLE public address has been programmed to SFLASH 
1042:.\Generated_Source\PSoC4/BLE_eventHandler.c ****  during manufacture.
1043:.\Generated_Source\PSoC4/BLE_eventHandler.c **** 
1044:.\Generated_Source\PSoC4/BLE_eventHandler.c **** Parameters:
1045:.\Generated_Source\PSoC4/BLE_eventHandler.c ****  CYBLE_GAP_BD_ADDR_T *sflashDeviceAddress: the pointer to the BD address of 
1046:.\Generated_Source\PSoC4/BLE_eventHandler.c ****                                            type CYBLE_GAP_BD_ADDR_T. 
1047:.\Generated_Source\PSoC4/BLE_eventHandler.c **** 
1048:.\Generated_Source\PSoC4/BLE_eventHandler.c **** Return:
1049:.\Generated_Source\PSoC4/BLE_eventHandler.c ****  Non zero value when a device address differs from the default SFLASH content.
1050:.\Generated_Source\PSoC4/BLE_eventHandler.c **** 
1051:.\Generated_Source\PSoC4/BLE_eventHandler.c **** ******************************************************************************/
1052:.\Generated_Source\PSoC4/BLE_eventHandler.c **** static uint8 CyBle_IsDeviceAddressValid(const CYBLE_GAP_BD_ADDR_T *sflashDeviceAddress)
1053:.\Generated_Source\PSoC4/BLE_eventHandler.c **** {
 301              		.loc 1 1053 0
 302              		.cfi_startproc
 303 0000 80B5     		push	{r7, lr}
 304              		.cfi_def_cfa_offset 8
 305              		.cfi_offset 7, -8
 306              		.cfi_offset 14, -4
 307 0002 84B0     		sub	sp, sp, #16
 308              		.cfi_def_cfa_offset 24
 309 0004 00AF     		add	r7, sp, #0
 310              		.cfi_def_cfa_register 7
 311 0006 7860     		str	r0, [r7, #4]
1054:.\Generated_Source\PSoC4/BLE_eventHandler.c ****     uint8 i;
1055:.\Generated_Source\PSoC4/BLE_eventHandler.c ****     uint8 sflashAddressValid = 0u;
 312              		.loc 1 1055 0
 313 0008 3B1C     		mov	r3, r7
ARM GAS  C:\Users\Zachary\AppData\Local\Temp\ccNoimb2.s 			page 25


 314 000a 0E33     		add	r3, r3, #14
 315 000c 0022     		mov	r2, #0
 316 000e 1A70     		strb	r2, [r3]
1056:.\Generated_Source\PSoC4/BLE_eventHandler.c ****     
1057:.\Generated_Source\PSoC4/BLE_eventHandler.c ****     if(sflashDeviceAddress -> type == CYBLE_GAP_ADDR_TYPE_PUBLIC)  
 317              		.loc 1 1057 0
 318 0010 7B68     		ldr	r3, [r7, #4]
 319 0012 9B79     		ldrb	r3, [r3, #6]
 320 0014 002B     		cmp	r3, #0
 321 0016 1CD1     		bne	.L18
1058:.\Generated_Source\PSoC4/BLE_eventHandler.c ****     {
1059:.\Generated_Source\PSoC4/BLE_eventHandler.c ****         for(i = 0u; i < CYBLE_GAP_BD_ADDR_SIZE; i++)
 322              		.loc 1 1059 0
 323 0018 3B1C     		mov	r3, r7
 324 001a 0F33     		add	r3, r3, #15
 325 001c 0022     		mov	r2, #0
 326 001e 1A70     		strb	r2, [r3]
 327 0020 12E0     		b	.L19
 328              	.L21:
1060:.\Generated_Source\PSoC4/BLE_eventHandler.c ****         {
1061:.\Generated_Source\PSoC4/BLE_eventHandler.c ****             if(sflashDeviceAddress->bdAddr[i] != 0u)
 329              		.loc 1 1061 0
 330 0022 3B1C     		mov	r3, r7
 331 0024 0F33     		add	r3, r3, #15
 332 0026 1B78     		ldrb	r3, [r3]
 333 0028 7A68     		ldr	r2, [r7, #4]
 334 002a D35C     		ldrb	r3, [r2, r3]
 335 002c 002B     		cmp	r3, #0
 336 002e 04D0     		beq	.L20
1062:.\Generated_Source\PSoC4/BLE_eventHandler.c ****             {
1063:.\Generated_Source\PSoC4/BLE_eventHandler.c ****                 sflashAddressValid = 1u;
 337              		.loc 1 1063 0
 338 0030 3B1C     		mov	r3, r7
 339 0032 0E33     		add	r3, r3, #14
 340 0034 0122     		mov	r2, #1
 341 0036 1A70     		strb	r2, [r3]
1064:.\Generated_Source\PSoC4/BLE_eventHandler.c ****                 break;
 342              		.loc 1 1064 0
 343 0038 0BE0     		b	.L18
 344              	.L20:
1059:.\Generated_Source\PSoC4/BLE_eventHandler.c ****         for(i = 0u; i < CYBLE_GAP_BD_ADDR_SIZE; i++)
 345              		.loc 1 1059 0
 346 003a 3B1C     		mov	r3, r7
 347 003c 0F33     		add	r3, r3, #15
 348 003e 1A78     		ldrb	r2, [r3]
 349 0040 3B1C     		mov	r3, r7
 350 0042 0F33     		add	r3, r3, #15
 351 0044 0132     		add	r2, r2, #1
 352 0046 1A70     		strb	r2, [r3]
 353              	.L19:
1059:.\Generated_Source\PSoC4/BLE_eventHandler.c ****         for(i = 0u; i < CYBLE_GAP_BD_ADDR_SIZE; i++)
 354              		.loc 1 1059 0 is_stmt 0 discriminator 1
 355 0048 3B1C     		mov	r3, r7
 356 004a 0F33     		add	r3, r3, #15
 357 004c 1B78     		ldrb	r3, [r3]
 358 004e 052B     		cmp	r3, #5
 359 0050 E7D9     		bls	.L21
ARM GAS  C:\Users\Zachary\AppData\Local\Temp\ccNoimb2.s 			page 26


 360              	.L18:
1065:.\Generated_Source\PSoC4/BLE_eventHandler.c ****             }
1066:.\Generated_Source\PSoC4/BLE_eventHandler.c ****         }
1067:.\Generated_Source\PSoC4/BLE_eventHandler.c ****     }
1068:.\Generated_Source\PSoC4/BLE_eventHandler.c ****     return (sflashAddressValid);
 361              		.loc 1 1068 0 is_stmt 1
 362 0052 3B1C     		mov	r3, r7
 363 0054 0E33     		add	r3, r3, #14
 364 0056 1B78     		ldrb	r3, [r3]
1069:.\Generated_Source\PSoC4/BLE_eventHandler.c **** }
 365              		.loc 1 1069 0
 366 0058 181C     		mov	r0, r3
 367 005a BD46     		mov	sp, r7
 368 005c 04B0     		add	sp, sp, #16
 369              		@ sp needed
 370 005e 80BD     		pop	{r7, pc}
 371              		.cfi_endproc
 372              	.LFE7:
 373              		.size	CyBle_IsDeviceAddressValid, .-CyBle_IsDeviceAddressValid
 374              		.section	.text.CyBle_L2Cap_ConnParamUpdateRspEventHandler,"ax",%progbits
 375              		.align	2
 376              		.code	16
 377              		.thumb_func
 378              		.type	CyBle_L2Cap_ConnParamUpdateRspEventHandler, %function
 379              	CyBle_L2Cap_ConnParamUpdateRspEventHandler:
 380              	.LFB8:
1070:.\Generated_Source\PSoC4/BLE_eventHandler.c **** #endif /* CYBLE_GATT_ROLE_SERVER || CYBLE_GATT_ROLE_CLIENT */
1071:.\Generated_Source\PSoC4/BLE_eventHandler.c **** 
1072:.\Generated_Source\PSoC4/BLE_eventHandler.c **** 
1073:.\Generated_Source\PSoC4/BLE_eventHandler.c **** /****************************************************************************** 
1074:.\Generated_Source\PSoC4/BLE_eventHandler.c **** ##Function Name: CyBle_L2Cap_ConnParamUpdateRspHandler
1075:.\Generated_Source\PSoC4/BLE_eventHandler.c **** *******************************************************************************
1076:.\Generated_Source\PSoC4/BLE_eventHandler.c **** 
1077:.\Generated_Source\PSoC4/BLE_eventHandler.c **** Summary:
1078:.\Generated_Source\PSoC4/BLE_eventHandler.c ****  Handles the L2CAP connection parameter response event from
1079:.\Generated_Source\PSoC4/BLE_eventHandler.c ****  the BLE stack.
1080:.\Generated_Source\PSoC4/BLE_eventHandler.c **** 
1081:.\Generated_Source\PSoC4/BLE_eventHandler.c **** Parameters:
1082:.\Generated_Source\PSoC4/BLE_eventHandler.c ****  uint16 response:
1083:.\Generated_Source\PSoC4/BLE_eventHandler.c ****      * Accepted = 0x0000
1084:.\Generated_Source\PSoC4/BLE_eventHandler.c ****      * Rejected = 0x0001
1085:.\Generated_Source\PSoC4/BLE_eventHandler.c **** 
1086:.\Generated_Source\PSoC4/BLE_eventHandler.c **** Return:
1087:.\Generated_Source\PSoC4/BLE_eventHandler.c ****  None
1088:.\Generated_Source\PSoC4/BLE_eventHandler.c **** 
1089:.\Generated_Source\PSoC4/BLE_eventHandler.c **** ******************************************************************************/
1090:.\Generated_Source\PSoC4/BLE_eventHandler.c **** static void CyBle_L2Cap_ConnParamUpdateRspEventHandler(uint16 response)
1091:.\Generated_Source\PSoC4/BLE_eventHandler.c **** {
 381              		.loc 1 1091 0
 382              		.cfi_startproc
 383 0000 80B5     		push	{r7, lr}
 384              		.cfi_def_cfa_offset 8
 385              		.cfi_offset 7, -8
 386              		.cfi_offset 14, -4
 387 0002 82B0     		sub	sp, sp, #8
 388              		.cfi_def_cfa_offset 16
 389 0004 00AF     		add	r7, sp, #0
ARM GAS  C:\Users\Zachary\AppData\Local\Temp\ccNoimb2.s 			page 27


 390              		.cfi_def_cfa_register 7
 391 0006 021C     		mov	r2, r0
 392 0008 BB1D     		add	r3, r7, #6
 393 000a 1A80     		strh	r2, [r3]
1092:.\Generated_Source\PSoC4/BLE_eventHandler.c ****     #ifdef CYBLE_CPS_SERVER
1093:.\Generated_Source\PSoC4/BLE_eventHandler.c ****         CyBle_CpssConnParamUpdateRspEventHandler(response);
1094:.\Generated_Source\PSoC4/BLE_eventHandler.c ****     #endif /* CYBLE_CPS_SERVER */
1095:.\Generated_Source\PSoC4/BLE_eventHandler.c ****     
1096:.\Generated_Source\PSoC4/BLE_eventHandler.c ****     /* Unreferenced variable warning workaround */
1097:.\Generated_Source\PSoC4/BLE_eventHandler.c ****     if(response != 0u)
1098:.\Generated_Source\PSoC4/BLE_eventHandler.c ****     {
1099:.\Generated_Source\PSoC4/BLE_eventHandler.c ****     }
1100:.\Generated_Source\PSoC4/BLE_eventHandler.c **** }
 394              		.loc 1 1100 0
 395 000c BD46     		mov	sp, r7
 396 000e 02B0     		add	sp, sp, #8
 397              		@ sp needed
 398 0010 80BD     		pop	{r7, pc}
 399              		.cfi_endproc
 400              	.LFE8:
 401              		.size	CyBle_L2Cap_ConnParamUpdateRspEventHandler, .-CyBle_L2Cap_ConnParamUpdateRspEventHandler
 402 0012 C046     		.section	.text.CyBle_GapConnUpdateCompleteEventHandler,"ax",%progbits
 403              		.align	2
 404              		.code	16
 405              		.thumb_func
 406              		.type	CyBle_GapConnUpdateCompleteEventHandler, %function
 407              	CyBle_GapConnUpdateCompleteEventHandler:
 408              	.LFB9:
1101:.\Generated_Source\PSoC4/BLE_eventHandler.c **** 
1102:.\Generated_Source\PSoC4/BLE_eventHandler.c **** 
1103:.\Generated_Source\PSoC4/BLE_eventHandler.c **** /****************************************************************************** 
1104:.\Generated_Source\PSoC4/BLE_eventHandler.c **** ##Function Name: CyBle_GapConnUpdateCompleteEventHandler
1105:.\Generated_Source\PSoC4/BLE_eventHandler.c **** *******************************************************************************
1106:.\Generated_Source\PSoC4/BLE_eventHandler.c **** 
1107:.\Generated_Source\PSoC4/BLE_eventHandler.c **** Summary:
1108:.\Generated_Source\PSoC4/BLE_eventHandler.c ****  Handles the CYBLE_EVT_GAP_CONNECTION_UPDATE_COMPLETE event from
1109:.\Generated_Source\PSoC4/BLE_eventHandler.c ****  the BLE stack.
1110:.\Generated_Source\PSoC4/BLE_eventHandler.c **** 
1111:.\Generated_Source\PSoC4/BLE_eventHandler.c **** Parameters:
1112:.\Generated_Source\PSoC4/BLE_eventHandler.c ****  *eventParam: The pointer to the data structure specified by the event.
1113:.\Generated_Source\PSoC4/BLE_eventHandler.c **** 
1114:.\Generated_Source\PSoC4/BLE_eventHandler.c **** Return:
1115:.\Generated_Source\PSoC4/BLE_eventHandler.c ****  None
1116:.\Generated_Source\PSoC4/BLE_eventHandler.c **** 
1117:.\Generated_Source\PSoC4/BLE_eventHandler.c **** ******************************************************************************/
1118:.\Generated_Source\PSoC4/BLE_eventHandler.c **** static void CyBle_GapConnUpdateCompleteEventHandler(const CYBLE_GAP_CONN_PARAM_UPDATED_IN_CONTROLLE
1119:.\Generated_Source\PSoC4/BLE_eventHandler.c **** {
 409              		.loc 1 1119 0
 410              		.cfi_startproc
 411 0000 80B5     		push	{r7, lr}
 412              		.cfi_def_cfa_offset 8
 413              		.cfi_offset 7, -8
 414              		.cfi_offset 14, -4
 415 0002 82B0     		sub	sp, sp, #8
 416              		.cfi_def_cfa_offset 16
 417 0004 00AF     		add	r7, sp, #0
 418              		.cfi_def_cfa_register 7
ARM GAS  C:\Users\Zachary\AppData\Local\Temp\ccNoimb2.s 			page 28


 419 0006 7860     		str	r0, [r7, #4]
1120:.\Generated_Source\PSoC4/BLE_eventHandler.c ****     #ifdef CYBLE_CPS_SERVER
1121:.\Generated_Source\PSoC4/BLE_eventHandler.c ****         CyBle_CpssConnUpdateCompleteEventHandler(eventParam);
1122:.\Generated_Source\PSoC4/BLE_eventHandler.c ****     #endif /* CYBLE_CPS_SERVER */
1123:.\Generated_Source\PSoC4/BLE_eventHandler.c ****     
1124:.\Generated_Source\PSoC4/BLE_eventHandler.c ****     /* Unreferenced variable warning workaround */
1125:.\Generated_Source\PSoC4/BLE_eventHandler.c ****     if(eventParam != 0u)
1126:.\Generated_Source\PSoC4/BLE_eventHandler.c ****     {
1127:.\Generated_Source\PSoC4/BLE_eventHandler.c ****     }
1128:.\Generated_Source\PSoC4/BLE_eventHandler.c **** }
 420              		.loc 1 1128 0
 421 0008 BD46     		mov	sp, r7
 422 000a 02B0     		add	sp, sp, #8
 423              		@ sp needed
 424 000c 80BD     		pop	{r7, pc}
 425              		.cfi_endproc
 426              	.LFE9:
 427              		.size	CyBle_GapConnUpdateCompleteEventHandler, .-CyBle_GapConnUpdateCompleteEventHandler
 428              		.section	.text.CyBle_EventHandler,"ax",%progbits
 429              		.align	2
 430              		.global	CyBle_EventHandler
 431              		.code	16
 432              		.thumb_func
 433              		.type	CyBle_EventHandler, %function
 434              	CyBle_EventHandler:
 435              	.LFB10:
1129:.\Generated_Source\PSoC4/BLE_eventHandler.c **** 
1130:.\Generated_Source\PSoC4/BLE_eventHandler.c **** 
1131:.\Generated_Source\PSoC4/BLE_eventHandler.c **** /****************************************************************************** 
1132:.\Generated_Source\PSoC4/BLE_eventHandler.c **** ##Function Name: CyBle_EventHandler
1133:.\Generated_Source\PSoC4/BLE_eventHandler.c **** *******************************************************************************
1134:.\Generated_Source\PSoC4/BLE_eventHandler.c **** 
1135:.\Generated_Source\PSoC4/BLE_eventHandler.c **** Summary:
1136:.\Generated_Source\PSoC4/BLE_eventHandler.c ****  Handles the events from the BLE stack
1137:.\Generated_Source\PSoC4/BLE_eventHandler.c **** 
1138:.\Generated_Source\PSoC4/BLE_eventHandler.c **** Parameters:
1139:.\Generated_Source\PSoC4/BLE_eventHandler.c ****  eventCode:    the event code
1140:.\Generated_Source\PSoC4/BLE_eventHandler.c ****  *eventParam:  the event parameters
1141:.\Generated_Source\PSoC4/BLE_eventHandler.c **** 
1142:.\Generated_Source\PSoC4/BLE_eventHandler.c **** Return:
1143:.\Generated_Source\PSoC4/BLE_eventHandler.c ****  None.
1144:.\Generated_Source\PSoC4/BLE_eventHandler.c **** 
1145:.\Generated_Source\PSoC4/BLE_eventHandler.c **** ******************************************************************************/
1146:.\Generated_Source\PSoC4/BLE_eventHandler.c **** void CyBle_EventHandler(uint8 eventCode, void *eventParam)
1147:.\Generated_Source\PSoC4/BLE_eventHandler.c **** {
 436              		.loc 1 1147 0
 437              		.cfi_startproc
 438 0000 80B5     		push	{r7, lr}
 439              		.cfi_def_cfa_offset 8
 440              		.cfi_offset 7, -8
 441              		.cfi_offset 14, -4
 442 0002 84B0     		sub	sp, sp, #16
 443              		.cfi_def_cfa_offset 24
 444 0004 00AF     		add	r7, sp, #0
 445              		.cfi_def_cfa_register 7
 446 0006 021C     		mov	r2, r0
 447 0008 3960     		str	r1, [r7]
ARM GAS  C:\Users\Zachary\AppData\Local\Temp\ccNoimb2.s 			page 29


 448 000a FB1D     		add	r3, r7, #7
 449 000c 1A70     		strb	r2, [r3]
1148:.\Generated_Source\PSoC4/BLE_eventHandler.c ****     cyBle_eventHandlerFlag |= CYBLE_CALLBACK;
 450              		.loc 1 1148 0
 451 000e 9F4B     		ldr	r3, .L55
 452 0010 1B78     		ldrb	r3, [r3]
 453 0012 DBB2     		uxtb	r3, r3
 454 0014 0122     		mov	r2, #1
 455 0016 1343     		orr	r3, r2
 456 0018 DAB2     		uxtb	r2, r3
 457 001a 9C4B     		ldr	r3, .L55
 458 001c 1A70     		strb	r2, [r3]
1149:.\Generated_Source\PSoC4/BLE_eventHandler.c **** 
1150:.\Generated_Source\PSoC4/BLE_eventHandler.c ****     /* Common Profile event handling */
1151:.\Generated_Source\PSoC4/BLE_eventHandler.c ****     switch(eventCode)
 459              		.loc 1 1151 0
 460 001e FB1D     		add	r3, r7, #7
 461 0020 1B78     		ldrb	r3, [r3]
 462 0022 712B     		cmp	r3, #113
 463 0024 00D9     		bls	.LCB390
 464 0026 16E1     		b	.L54	@long jump
 465              	.LCB390:
 466 0028 9A00     		lsl	r2, r3, #2
 467 002a 994B     		ldr	r3, .L55+4
 468 002c D318     		add	r3, r2, r3
 469 002e 1B68     		ldr	r3, [r3]
 470 0030 9F46     		mov	pc, r3
 471              		.section	.rodata
 472              		.align	2
 473              	.L28:
 474 0000 56020000 		.word	.L54
 475 0004 32000000 		.word	.L27
 476 0008 C4000000 		.word	.L29
 477 000c 56020000 		.word	.L54
 478 0010 56020000 		.word	.L54
 479 0014 CE000000 		.word	.L30
 480 0018 56020000 		.word	.L54
 481 001c 56020000 		.word	.L54
 482 0020 56020000 		.word	.L54
 483 0024 56020000 		.word	.L54
 484 0028 56020000 		.word	.L54
 485 002c 56020000 		.word	.L54
 486 0030 56020000 		.word	.L54
 487 0034 56020000 		.word	.L54
 488 0038 56020000 		.word	.L54
 489 003c 56020000 		.word	.L54
 490 0040 56020000 		.word	.L54
 491 0044 56020000 		.word	.L54
 492 0048 56020000 		.word	.L54
 493 004c 56020000 		.word	.L54
 494 0050 56020000 		.word	.L54
 495 0054 56020000 		.word	.L54
 496 0058 56020000 		.word	.L54
 497 005c 56020000 		.word	.L54
 498 0060 56020000 		.word	.L54
 499 0064 56020000 		.word	.L54
 500 0068 56020000 		.word	.L54
ARM GAS  C:\Users\Zachary\AppData\Local\Temp\ccNoimb2.s 			page 30


 501 006c 56020000 		.word	.L54
 502 0070 56020000 		.word	.L54
 503 0074 56020000 		.word	.L54
 504 0078 56020000 		.word	.L54
 505 007c 56020000 		.word	.L54
 506 0080 56020000 		.word	.L54
 507 0084 D8000000 		.word	.L31
 508 0088 56020000 		.word	.L54
 509 008c 56020000 		.word	.L54
 510 0090 56020000 		.word	.L54
 511 0094 56020000 		.word	.L54
 512 0098 28010000 		.word	.L32
 513 009c 10010000 		.word	.L33
 514 00a0 20010000 		.word	.L34
 515 00a4 56020000 		.word	.L54
 516 00a8 06010000 		.word	.L35
 517 00ac 56020000 		.word	.L54
 518 00b0 56020000 		.word	.L54
 519 00b4 56020000 		.word	.L54
 520 00b8 56020000 		.word	.L54
 521 00bc 56020000 		.word	.L54
 522 00c0 56020000 		.word	.L54
 523 00c4 56020000 		.word	.L54
 524 00c8 56020000 		.word	.L54
 525 00cc 56020000 		.word	.L54
 526 00d0 56020000 		.word	.L54
 527 00d4 56020000 		.word	.L54
 528 00d8 56020000 		.word	.L54
 529 00dc 56020000 		.word	.L54
 530 00e0 56020000 		.word	.L54
 531 00e4 56020000 		.word	.L54
 532 00e8 56020000 		.word	.L54
 533 00ec 56020000 		.word	.L54
 534 00f0 56020000 		.word	.L54
 535 00f4 56020000 		.word	.L54
 536 00f8 56020000 		.word	.L54
 537 00fc 56020000 		.word	.L54
 538 0100 56020000 		.word	.L54
 539 0104 C2010000 		.word	.L36
 540 0108 00020000 		.word	.L37
 541 010c 06020000 		.word	.L38
 542 0110 56020000 		.word	.L54
 543 0114 56020000 		.word	.L54
 544 0118 56020000 		.word	.L54
 545 011c 56020000 		.word	.L54
 546 0120 56020000 		.word	.L54
 547 0124 56020000 		.word	.L54
 548 0128 56020000 		.word	.L54
 549 012c 56020000 		.word	.L54
 550 0130 42020000 		.word	.L39
 551 0134 56020000 		.word	.L54
 552 0138 56020000 		.word	.L54
 553 013c 56020000 		.word	.L54
 554 0140 56020000 		.word	.L54
 555 0144 56020000 		.word	.L54
 556 0148 56020000 		.word	.L54
 557 014c 56020000 		.word	.L54
ARM GAS  C:\Users\Zachary\AppData\Local\Temp\ccNoimb2.s 			page 31


 558 0150 4C020000 		.word	.L41
 559 0154 56020000 		.word	.L54
 560 0158 56020000 		.word	.L54
 561 015c 56020000 		.word	.L54
 562 0160 56020000 		.word	.L54
 563 0164 56020000 		.word	.L54
 564 0168 56020000 		.word	.L54
 565 016c 56020000 		.word	.L54
 566 0170 56020000 		.word	.L54
 567 0174 56020000 		.word	.L54
 568 0178 56020000 		.word	.L54
 569 017c 56020000 		.word	.L54
 570 0180 56020000 		.word	.L54
 571 0184 56020000 		.word	.L54
 572 0188 56020000 		.word	.L54
 573 018c 56020000 		.word	.L54
 574 0190 56020000 		.word	.L54
 575 0194 56020000 		.word	.L54
 576 0198 56020000 		.word	.L54
 577 019c 56020000 		.word	.L54
 578 01a0 56020000 		.word	.L54
 579 01a4 56020000 		.word	.L54
 580 01a8 56020000 		.word	.L54
 581 01ac 56020000 		.word	.L54
 582 01b0 56020000 		.word	.L54
 583 01b4 56020000 		.word	.L54
 584 01b8 56020000 		.word	.L54
 585 01bc 56020000 		.word	.L54
 586 01c0 56020000 		.word	.L54
 587 01c4 B6010000 		.word	.L42
 588              		.section	.text.CyBle_EventHandler
 589              	.L27:
 590              	.LBB3:
1152:.\Generated_Source\PSoC4/BLE_eventHandler.c ****     {
1153:.\Generated_Source\PSoC4/BLE_eventHandler.c ****         /**********************************************************
1154:.\Generated_Source\PSoC4/BLE_eventHandler.c ****         ##General events
1155:.\Generated_Source\PSoC4/BLE_eventHandler.c ****         ***********************************************************/
1156:.\Generated_Source\PSoC4/BLE_eventHandler.c ****         case CYBLE_EVT_STACK_ON:
1157:.\Generated_Source\PSoC4/BLE_eventHandler.c ****         #if(CYBLE_MODE_PROFILE)
1158:.\Generated_Source\PSoC4/BLE_eventHandler.c ****         {
1159:.\Generated_Source\PSoC4/BLE_eventHandler.c ****             CYBLE_BLESS_PWR_IN_DB_T bleSsPowerLevel;
1160:.\Generated_Source\PSoC4/BLE_eventHandler.c ****             
1161:.\Generated_Source\PSoC4/BLE_eventHandler.c ****             /* Set Tx Power Level for advertising and connection channels */
1162:.\Generated_Source\PSoC4/BLE_eventHandler.c ****             bleSsPowerLevel.blePwrLevelInDbm = CYBLE_TX_POWER_LEVEL;
 591              		.loc 1 1162 0
 592 0032 3B1C     		mov	r3, r7
 593 0034 0C33     		add	r3, r3, #12
 594 0036 0722     		mov	r2, #7
 595 0038 1A70     		strb	r2, [r3]
1163:.\Generated_Source\PSoC4/BLE_eventHandler.c ****             bleSsPowerLevel.bleSsChId = CYBLE_LL_ADV_CH_TYPE;
 596              		.loc 1 1163 0
 597 003a 3B1C     		mov	r3, r7
 598 003c 0C33     		add	r3, r3, #12
 599 003e 0022     		mov	r2, #0
 600 0040 5A70     		strb	r2, [r3, #1]
1164:.\Generated_Source\PSoC4/BLE_eventHandler.c ****             (void) CyBle_SetTxPowerLevel (&bleSsPowerLevel);
 601              		.loc 1 1164 0
ARM GAS  C:\Users\Zachary\AppData\Local\Temp\ccNoimb2.s 			page 32


 602 0042 3B1C     		mov	r3, r7
 603 0044 0C33     		add	r3, r3, #12
 604 0046 181C     		mov	r0, r3
 605 0048 FFF7FEFF 		bl	CyBle_SetTxPowerLevel
1165:.\Generated_Source\PSoC4/BLE_eventHandler.c ****             bleSsPowerLevel.blePwrLevelInDbm = CYBLE_TX_POWER_LEVEL;
 606              		.loc 1 1165 0
 607 004c 3B1C     		mov	r3, r7
 608 004e 0C33     		add	r3, r3, #12
 609 0050 0722     		mov	r2, #7
 610 0052 1A70     		strb	r2, [r3]
1166:.\Generated_Source\PSoC4/BLE_eventHandler.c ****             bleSsPowerLevel.bleSsChId = CYBLE_LL_CONN_CH_TYPE;
 611              		.loc 1 1166 0
 612 0054 3B1C     		mov	r3, r7
 613 0056 0C33     		add	r3, r3, #12
 614 0058 0122     		mov	r2, #1
 615 005a 5A70     		strb	r2, [r3, #1]
1167:.\Generated_Source\PSoC4/BLE_eventHandler.c ****             (void) CyBle_SetTxPowerLevel (&bleSsPowerLevel);
 616              		.loc 1 1167 0
 617 005c 3B1C     		mov	r3, r7
 618 005e 0C33     		add	r3, r3, #12
 619 0060 181C     		mov	r0, r3
 620 0062 FFF7FEFF 		bl	CyBle_SetTxPowerLevel
 621              	.LBE3:
1168:.\Generated_Source\PSoC4/BLE_eventHandler.c ****         }
1169:.\Generated_Source\PSoC4/BLE_eventHandler.c ****         #endif /* CYBLE_MODE_PROFILE */
1170:.\Generated_Source\PSoC4/BLE_eventHandler.c ****         #if (CYBLE_GATT_ROLE_SERVER || CYBLE_GATT_ROLE_CLIENT)
1171:.\Generated_Source\PSoC4/BLE_eventHandler.c ****             /* Set device Address  */
1172:.\Generated_Source\PSoC4/BLE_eventHandler.c ****             if(CyBle_IsDeviceAddressValid(cyBle_sflashDeviceAddress) != 0u)
 622              		.loc 1 1172 0
 623 0066 8B4B     		ldr	r3, .L55+8
 624 0068 1B68     		ldr	r3, [r3]
 625 006a 181C     		mov	r0, r3
 626 006c FFF7FEFF 		bl	CyBle_IsDeviceAddressValid
 627 0070 031C     		mov	r3, r0
 628 0072 002B     		cmp	r3, #0
 629 0074 11D0     		beq	.L43
1173:.\Generated_Source\PSoC4/BLE_eventHandler.c ****             {
1174:.\Generated_Source\PSoC4/BLE_eventHandler.c ****                 (void) CyBle_SetDeviceAddress(cyBle_sflashDeviceAddress);
 630              		.loc 1 1174 0
 631 0076 874B     		ldr	r3, .L55+8
 632 0078 1B68     		ldr	r3, [r3]
 633 007a 181C     		mov	r0, r3
 634 007c FFF7FEFF 		bl	CyBle_SetDeviceAddress
1175:.\Generated_Source\PSoC4/BLE_eventHandler.c ****                 #if(CYBLE_GAP_ROLE_PERIPHERAL || CYBLE_GAP_ROLE_BROADCASTER)
1176:.\Generated_Source\PSoC4/BLE_eventHandler.c ****                     CyBle_ChangeAdDeviceAddress(cyBle_sflashDeviceAddress, 0u);
 635              		.loc 1 1176 0
 636 0080 844B     		ldr	r3, .L55+8
 637 0082 1B68     		ldr	r3, [r3]
 638 0084 181C     		mov	r0, r3
 639 0086 0021     		mov	r1, #0
 640 0088 FFF7FEFF 		bl	CyBle_ChangeAdDeviceAddress
1177:.\Generated_Source\PSoC4/BLE_eventHandler.c ****                     CyBle_ChangeAdDeviceAddress(cyBle_sflashDeviceAddress, 1u);
 641              		.loc 1 1177 0
 642 008c 814B     		ldr	r3, .L55+8
 643 008e 1B68     		ldr	r3, [r3]
 644 0090 181C     		mov	r0, r3
 645 0092 0121     		mov	r1, #1
ARM GAS  C:\Users\Zachary\AppData\Local\Temp\ccNoimb2.s 			page 33


 646 0094 FFF7FEFF 		bl	CyBle_ChangeAdDeviceAddress
 647 0098 0DE0     		b	.L44
 648              	.L43:
1178:.\Generated_Source\PSoC4/BLE_eventHandler.c ****                 #endif /* CYBLE_GAP_ROLE_PERIPHERAL || CYBLE_GAP_ROLE_BROADCASTER */    
1179:.\Generated_Source\PSoC4/BLE_eventHandler.c ****             }
1180:.\Generated_Source\PSoC4/BLE_eventHandler.c ****             else
1181:.\Generated_Source\PSoC4/BLE_eventHandler.c ****             {
1182:.\Generated_Source\PSoC4/BLE_eventHandler.c ****             #if (SILICON_GENERATED_DEVICE_ADDRESS != 0u)
1183:.\Generated_Source\PSoC4/BLE_eventHandler.c ****                 cyBle_deviceAddress.bdAddr[0] = CYBLE_SFLASH_DIE_X_REG;
1184:.\Generated_Source\PSoC4/BLE_eventHandler.c ****                 cyBle_deviceAddress.bdAddr[1] = CYBLE_SFLASH_DIE_Y_REG;
1185:.\Generated_Source\PSoC4/BLE_eventHandler.c ****                 cyBle_deviceAddress.bdAddr[2] = CYBLE_SFLASH_DIE_WAFER_REG;
1186:.\Generated_Source\PSoC4/BLE_eventHandler.c ****             #endif /* SILICON_GENERATED_DEVICE_ADDRESS != 0u */
1187:.\Generated_Source\PSoC4/BLE_eventHandler.c ****                 (void) CyBle_SetDeviceAddress(&cyBle_deviceAddress);
 649              		.loc 1 1187 0
 650 009a 7F4B     		ldr	r3, .L55+12
 651 009c 181C     		mov	r0, r3
 652 009e FFF7FEFF 		bl	CyBle_SetDeviceAddress
1188:.\Generated_Source\PSoC4/BLE_eventHandler.c ****                 #if(CYBLE_GAP_ROLE_PERIPHERAL || CYBLE_GAP_ROLE_BROADCASTER)
1189:.\Generated_Source\PSoC4/BLE_eventHandler.c ****                     CyBle_ChangeAdDeviceAddress(&cyBle_deviceAddress, 0u);
 653              		.loc 1 1189 0
 654 00a2 7D4B     		ldr	r3, .L55+12
 655 00a4 181C     		mov	r0, r3
 656 00a6 0021     		mov	r1, #0
 657 00a8 FFF7FEFF 		bl	CyBle_ChangeAdDeviceAddress
1190:.\Generated_Source\PSoC4/BLE_eventHandler.c ****                     CyBle_ChangeAdDeviceAddress(&cyBle_deviceAddress, 1u);
 658              		.loc 1 1190 0
 659 00ac 7A4B     		ldr	r3, .L55+12
 660 00ae 181C     		mov	r0, r3
 661 00b0 0121     		mov	r1, #1
 662 00b2 FFF7FEFF 		bl	CyBle_ChangeAdDeviceAddress
 663              	.L44:
1191:.\Generated_Source\PSoC4/BLE_eventHandler.c ****                 #endif /* CYBLE_GAP_ROLE_PERIPHERAL || CYBLE_GAP_ROLE_BROADCASTER */    
1192:.\Generated_Source\PSoC4/BLE_eventHandler.c ****             }
1193:.\Generated_Source\PSoC4/BLE_eventHandler.c ****             /* Set device IO Capability  */
1194:.\Generated_Source\PSoC4/BLE_eventHandler.c ****             (void) CyBle_GapSetIoCap(CYBLE_IO_CAPABILITY);    
 664              		.loc 1 1194 0
 665 00b6 0320     		mov	r0, #3
 666 00b8 FFF7FEFF 		bl	CyBle_GapSetIoCap
1195:.\Generated_Source\PSoC4/BLE_eventHandler.c ****         #endif /* CYBLE_GATT_ROLE_SERVER || CYBLE_GATT_ROLE_CLIENT */
1196:.\Generated_Source\PSoC4/BLE_eventHandler.c ****             CyBle_SetState(CYBLE_STATE_DISCONNECTED);
 667              		.loc 1 1196 0
 668 00bc 774B     		ldr	r3, .L55+16
 669 00be 0422     		mov	r2, #4
 670 00c0 1A70     		strb	r2, [r3]
1197:.\Generated_Source\PSoC4/BLE_eventHandler.c ****             break;
 671              		.loc 1 1197 0
 672 00c2 C9E0     		b	.L45
 673              	.L29:
1198:.\Generated_Source\PSoC4/BLE_eventHandler.c ****         case CYBLE_EVT_TIMEOUT:
1199:.\Generated_Source\PSoC4/BLE_eventHandler.c ****             CyBle_TimeOutEventHandler((CYBLE_TO_REASON_CODE_T *)eventParam);
 674              		.loc 1 1199 0
 675 00c4 3B68     		ldr	r3, [r7]
 676 00c6 181C     		mov	r0, r3
 677 00c8 FFF7FEFF 		bl	CyBle_TimeOutEventHandler
1200:.\Generated_Source\PSoC4/BLE_eventHandler.c ****             break;
 678              		.loc 1 1200 0
 679 00cc C4E0     		b	.L45
ARM GAS  C:\Users\Zachary\AppData\Local\Temp\ccNoimb2.s 			page 34


 680              	.L30:
1201:.\Generated_Source\PSoC4/BLE_eventHandler.c ****     	case CYBLE_EVT_STACK_BUSY_STATUS:
1202:.\Generated_Source\PSoC4/BLE_eventHandler.c ****             cyBle_busyStatus = *(uint8 *)eventParam;
 681              		.loc 1 1202 0
 682 00ce 3B68     		ldr	r3, [r7]
 683 00d0 1A78     		ldrb	r2, [r3]
 684 00d2 734B     		ldr	r3, .L55+20
 685 00d4 1A70     		strb	r2, [r3]
1203:.\Generated_Source\PSoC4/BLE_eventHandler.c ****             break;
 686              		.loc 1 1203 0
 687 00d6 BFE0     		b	.L45
 688              	.L31:
1204:.\Generated_Source\PSoC4/BLE_eventHandler.c **** 
1205:.\Generated_Source\PSoC4/BLE_eventHandler.c ****         /**********************************************************
1206:.\Generated_Source\PSoC4/BLE_eventHandler.c ****         ##GAP events
1207:.\Generated_Source\PSoC4/BLE_eventHandler.c ****         ***********************************************************/
1208:.\Generated_Source\PSoC4/BLE_eventHandler.c ****         case CYBLE_EVT_GAP_AUTH_REQ:
1209:.\Generated_Source\PSoC4/BLE_eventHandler.c ****         #if(CYBLE_MODE_PROFILE)
1210:.\Generated_Source\PSoC4/BLE_eventHandler.c ****             if(0u == (cyBle_eventHandlerFlag & CYBLE_DISABLE_AUTOMATIC_AUTH))
 689              		.loc 1 1210 0
 690 00d8 6C4B     		ldr	r3, .L55
 691 00da 1B78     		ldrb	r3, [r3]
 692 00dc DBB2     		uxtb	r3, r3
 693 00de 1A1C     		mov	r2, r3
 694 00e0 2023     		mov	r3, #32
 695 00e2 1340     		and	r3, r2
 696 00e4 0ED1     		bne	.L46
1211:.\Generated_Source\PSoC4/BLE_eventHandler.c ****             {
1212:.\Generated_Source\PSoC4/BLE_eventHandler.c ****                 /* If the responding device does not support pairing then the responding 
1213:.\Generated_Source\PSoC4/BLE_eventHandler.c ****                    device shall respond using the Pairing Failed message with the error 
1214:.\Generated_Source\PSoC4/BLE_eventHandler.c ****                    code "Pairing Not Supported" otherwise it responds with a Pairing 
1215:.\Generated_Source\PSoC4/BLE_eventHandler.c ****                    Response message.
1216:.\Generated_Source\PSoC4/BLE_eventHandler.c ****                 */
1217:.\Generated_Source\PSoC4/BLE_eventHandler.c ****                 if(cyBle_authInfo.security == (CYBLE_GAP_SEC_MODE_1 | CYBLE_GAP_SEC_LEVEL_1))
 697              		.loc 1 1217 0
 698 00e6 6F4B     		ldr	r3, .L55+24
 699 00e8 1B78     		ldrb	r3, [r3]
 700 00ea 102B     		cmp	r3, #16
 701 00ec 02D1     		bne	.L47
1218:.\Generated_Source\PSoC4/BLE_eventHandler.c ****                 {
1219:.\Generated_Source\PSoC4/BLE_eventHandler.c ****                     cyBle_authInfo.authErr = CYBLE_GAP_AUTH_ERROR_PAIRING_NOT_SUPPORTED;
 702              		.loc 1 1219 0
 703 00ee 6D4B     		ldr	r3, .L55+24
 704 00f0 0522     		mov	r2, #5
 705 00f2 DA70     		strb	r2, [r3, #3]
 706              	.L47:
1220:.\Generated_Source\PSoC4/BLE_eventHandler.c ****                 }    
1221:.\Generated_Source\PSoC4/BLE_eventHandler.c ****             #if(CYBLE_GAP_ROLE_PERIPHERAL)
1222:.\Generated_Source\PSoC4/BLE_eventHandler.c ****                 (void)CyBle_GappAuthReqReply(cyBle_connHandle.bdHandle, &cyBle_authInfo);
 707              		.loc 1 1222 0
 708 00f4 6C4B     		ldr	r3, .L55+28
 709 00f6 1A78     		ldrb	r2, [r3]
 710 00f8 6A4B     		ldr	r3, .L55+24
 711 00fa 101C     		mov	r0, r2
 712 00fc 191C     		mov	r1, r3
 713 00fe FFF7FEFF 		bl	CyBle_GappAuthReqReply
1223:.\Generated_Source\PSoC4/BLE_eventHandler.c ****             #endif /* CYBLE_GAP_ROLE_PERIPHERAL */
ARM GAS  C:\Users\Zachary\AppData\Local\Temp\ccNoimb2.s 			page 35


1224:.\Generated_Source\PSoC4/BLE_eventHandler.c ****             #if (CYBLE_GAP_ROLE_CENTRAL)
1225:.\Generated_Source\PSoC4/BLE_eventHandler.c ****                 (void)CyBle_GapAuthReq(cyBle_connHandle.bdHandle, &cyBle_authInfo);
1226:.\Generated_Source\PSoC4/BLE_eventHandler.c ****             #endif /* CYBLE_GAP_ROLE_CENTRAL */
1227:.\Generated_Source\PSoC4/BLE_eventHandler.c ****             }
1228:.\Generated_Source\PSoC4/BLE_eventHandler.c ****         #endif /* CYBLE_MODE_PROFILE */
1229:.\Generated_Source\PSoC4/BLE_eventHandler.c ****             break;
 714              		.loc 1 1229 0
 715 0102 A9E0     		b	.L45
 716              	.L46:
 717 0104 A8E0     		b	.L45
 718              	.L35:
1230:.\Generated_Source\PSoC4/BLE_eventHandler.c **** 
1231:.\Generated_Source\PSoC4/BLE_eventHandler.c ****         case CYBLE_EVT_GAP_CONNECTION_UPDATE_COMPLETE:
1232:.\Generated_Source\PSoC4/BLE_eventHandler.c ****             CyBle_GapConnUpdateCompleteEventHandler((const CYBLE_GAP_CONN_PARAM_UPDATED_IN_CONTROLL
 719              		.loc 1 1232 0
 720 0106 3B68     		ldr	r3, [r7]
 721 0108 181C     		mov	r0, r3
 722 010a FFF7FEFF 		bl	CyBle_GapConnUpdateCompleteEventHandler
1233:.\Generated_Source\PSoC4/BLE_eventHandler.c ****             break;
 723              		.loc 1 1233 0
 724 010e A3E0     		b	.L45
 725              	.L33:
1234:.\Generated_Source\PSoC4/BLE_eventHandler.c ****             
1235:.\Generated_Source\PSoC4/BLE_eventHandler.c ****         case CYBLE_EVT_GAP_DEVICE_CONNECTED:
1236:.\Generated_Source\PSoC4/BLE_eventHandler.c ****             CyBle_GapConnUpdateCompleteEventHandler((const CYBLE_GAP_CONN_PARAM_UPDATED_IN_CONTROLL
 726              		.loc 1 1236 0
 727 0110 3B68     		ldr	r3, [r7]
 728 0112 181C     		mov	r0, r3
 729 0114 FFF7FEFF 		bl	CyBle_GapConnUpdateCompleteEventHandler
1237:.\Generated_Source\PSoC4/BLE_eventHandler.c ****             #if(CYBLE_GAP_ROLE_CENTRAL)
1238:.\Generated_Source\PSoC4/BLE_eventHandler.c ****                 if(cyBle_connectingTimeout != 0u)
1239:.\Generated_Source\PSoC4/BLE_eventHandler.c ****                 {
1240:.\Generated_Source\PSoC4/BLE_eventHandler.c ****                    (void)CyBle_StopTimer();
1241:.\Generated_Source\PSoC4/BLE_eventHandler.c ****                 }
1242:.\Generated_Source\PSoC4/BLE_eventHandler.c ****             #endif /* CYBLE_GAP_ROLE_CENTRAL */
1243:.\Generated_Source\PSoC4/BLE_eventHandler.c ****             CyBle_SetState(CYBLE_STATE_CONNECTED);
 730              		.loc 1 1243 0
 731 0118 604B     		ldr	r3, .L55+16
 732 011a 0222     		mov	r2, #2
 733 011c 1A70     		strb	r2, [r3]
1244:.\Generated_Source\PSoC4/BLE_eventHandler.c ****             break;
 734              		.loc 1 1244 0
 735 011e 9BE0     		b	.L45
 736              	.L34:
1245:.\Generated_Source\PSoC4/BLE_eventHandler.c **** 
1246:.\Generated_Source\PSoC4/BLE_eventHandler.c ****         case CYBLE_EVT_GAP_DEVICE_DISCONNECTED:
1247:.\Generated_Source\PSoC4/BLE_eventHandler.c ****             CyBle_SetState(CYBLE_STATE_DISCONNECTED);
 737              		.loc 1 1247 0
 738 0120 5E4B     		ldr	r3, .L55+16
 739 0122 0422     		mov	r2, #4
 740 0124 1A70     		strb	r2, [r3]
1248:.\Generated_Source\PSoC4/BLE_eventHandler.c ****             break;
 741              		.loc 1 1248 0
 742 0126 97E0     		b	.L45
 743              	.L32:
1249:.\Generated_Source\PSoC4/BLE_eventHandler.c ****         #if(CYBLE_GAP_ROLE_PERIPHERAL || CYBLE_GAP_ROLE_BROADCASTER)
1250:.\Generated_Source\PSoC4/BLE_eventHandler.c ****             
ARM GAS  C:\Users\Zachary\AppData\Local\Temp\ccNoimb2.s 			page 36


1251:.\Generated_Source\PSoC4/BLE_eventHandler.c ****         case CYBLE_EVT_GAPP_ADVERTISEMENT_START_STOP:
1252:.\Generated_Source\PSoC4/BLE_eventHandler.c ****             #ifdef CYBLE_CPS_SERVER
1253:.\Generated_Source\PSoC4/BLE_eventHandler.c ****                 #if(CYBLE_GAP_ROLE_BROADCASTER)
1254:.\Generated_Source\PSoC4/BLE_eventHandler.c ****                     CyBle_CpssAdvertisementStartStopEventHandler();
1255:.\Generated_Source\PSoC4/BLE_eventHandler.c ****                 #endif /* CYBLE_GAP_ROLE_BROADCASTER */
1256:.\Generated_Source\PSoC4/BLE_eventHandler.c ****             #endif /* CYBLE_CPS_SERVER */
1257:.\Generated_Source\PSoC4/BLE_eventHandler.c ****             
1258:.\Generated_Source\PSoC4/BLE_eventHandler.c ****             if((CYBLE_STATE_CONNECTED != CyBle_GetState()) && ((cyBle_eventHandlerFlag & CYBLE_CALL
 744              		.loc 1 1258 0
 745 0128 5C4B     		ldr	r3, .L55+16
 746 012a 1B78     		ldrb	r3, [r3]
 747 012c 022B     		cmp	r3, #2
 748 012e 41D0     		beq	.L48
 749              		.loc 1 1258 0 is_stmt 0 discriminator 1
 750 0130 564B     		ldr	r3, .L55
 751 0132 1B78     		ldrb	r3, [r3]
 752 0134 DBB2     		uxtb	r3, r3
 753 0136 1A1C     		mov	r2, r3
 754 0138 0123     		mov	r3, #1
 755 013a 1340     		and	r3, r2
 756 013c 3AD0     		beq	.L48
1259:.\Generated_Source\PSoC4/BLE_eventHandler.c ****             {
1260:.\Generated_Source\PSoC4/BLE_eventHandler.c ****                 /* After CyBle_GappStartAdvertisement first event indicates that advertising has be
1261:.\Generated_Source\PSoC4/BLE_eventHandler.c ****                 if(0u != (cyBle_eventHandlerFlag & CYBLE_START_FLAG))
 757              		.loc 1 1261 0 is_stmt 1
 758 013e 534B     		ldr	r3, .L55
 759 0140 1B78     		ldrb	r3, [r3]
 760 0142 DBB2     		uxtb	r3, r3
 761 0144 1A1C     		mov	r2, r3
 762 0146 0423     		mov	r3, #4
 763 0148 1340     		and	r3, r2
 764 014a 0BD0     		beq	.L49
1262:.\Generated_Source\PSoC4/BLE_eventHandler.c ****                 {
1263:.\Generated_Source\PSoC4/BLE_eventHandler.c ****                     CyBle_SetState(CYBLE_STATE_ADVERTISING);
 765              		.loc 1 1263 0
 766 014c 534B     		ldr	r3, .L55+16
 767 014e 0322     		mov	r2, #3
 768 0150 1A70     		strb	r2, [r3]
1264:.\Generated_Source\PSoC4/BLE_eventHandler.c ****                     cyBle_eventHandlerFlag &= (uint8)~CYBLE_START_FLAG;
 769              		.loc 1 1264 0
 770 0152 4E4B     		ldr	r3, .L55
 771 0154 1B78     		ldrb	r3, [r3]
 772 0156 DBB2     		uxtb	r3, r3
 773 0158 0422     		mov	r2, #4
 774 015a 9343     		bic	r3, r2
 775 015c DAB2     		uxtb	r2, r3
 776 015e 4B4B     		ldr	r3, .L55
 777 0160 1A70     		strb	r2, [r3]
 778 0162 27E0     		b	.L48
 779              	.L49:
1265:.\Generated_Source\PSoC4/BLE_eventHandler.c ****                 }
1266:.\Generated_Source\PSoC4/BLE_eventHandler.c ****                 /* When application initiated stop advertisement */
1267:.\Generated_Source\PSoC4/BLE_eventHandler.c ****                 else if(0u != (cyBle_eventHandlerFlag & CYBLE_STOP_FLAG))
 780              		.loc 1 1267 0
 781 0164 494B     		ldr	r3, .L55
 782 0166 1B78     		ldrb	r3, [r3]
 783 0168 DBB2     		uxtb	r3, r3
ARM GAS  C:\Users\Zachary\AppData\Local\Temp\ccNoimb2.s 			page 37


 784 016a 1A1C     		mov	r2, r3
 785 016c 0823     		mov	r3, #8
 786 016e 1340     		and	r3, r2
 787 0170 0BD0     		beq	.L50
1268:.\Generated_Source\PSoC4/BLE_eventHandler.c ****                 {
1269:.\Generated_Source\PSoC4/BLE_eventHandler.c ****                     CyBle_SetState(CYBLE_STATE_DISCONNECTED);  
 788              		.loc 1 1269 0
 789 0172 4A4B     		ldr	r3, .L55+16
 790 0174 0422     		mov	r2, #4
 791 0176 1A70     		strb	r2, [r3]
1270:.\Generated_Source\PSoC4/BLE_eventHandler.c ****                     cyBle_eventHandlerFlag &= (uint8)~CYBLE_STOP_FLAG;
 792              		.loc 1 1270 0
 793 0178 444B     		ldr	r3, .L55
 794 017a 1B78     		ldrb	r3, [r3]
 795 017c DBB2     		uxtb	r3, r3
 796 017e 0822     		mov	r2, #8
 797 0180 9343     		bic	r3, r2
 798 0182 DAB2     		uxtb	r2, r3
 799 0184 414B     		ldr	r3, .L55
 800 0186 1A70     		strb	r2, [r3]
 801 0188 14E0     		b	.L48
 802              	.L50:
1271:.\Generated_Source\PSoC4/BLE_eventHandler.c ****                 }
1272:.\Generated_Source\PSoC4/BLE_eventHandler.c ****                 else /* Following event indicates that advertising has been stopped */
1273:.\Generated_Source\PSoC4/BLE_eventHandler.c ****                 {
1274:.\Generated_Source\PSoC4/BLE_eventHandler.c ****                     if(CYBLE_STATE_ADVERTISING == CyBle_GetState())
 803              		.loc 1 1274 0
 804 018a 444B     		ldr	r3, .L55+16
 805 018c 1B78     		ldrb	r3, [r3]
 806 018e 032B     		cmp	r3, #3
 807 0190 10D1     		bne	.L48
1275:.\Generated_Source\PSoC4/BLE_eventHandler.c ****                     {
1276:.\Generated_Source\PSoC4/BLE_eventHandler.c ****                         CyBle_SetState(CYBLE_STATE_DISCONNECTED);
 808              		.loc 1 1276 0
 809 0192 424B     		ldr	r3, .L55+16
 810 0194 0422     		mov	r2, #4
 811 0196 1A70     		strb	r2, [r3]
1277:.\Generated_Source\PSoC4/BLE_eventHandler.c ****                     #if (CYBLE_SLOW_ADV_ENABLED != 0u)
1278:.\Generated_Source\PSoC4/BLE_eventHandler.c ****                         if(cyBle_advertisingIntervalType == CYBLE_ADVERTISING_FAST)
 812              		.loc 1 1278 0
 813 0198 444B     		ldr	r3, .L55+32
 814 019a 1B78     		ldrb	r3, [r3]
 815 019c 002B     		cmp	r3, #0
 816 019e 09D1     		bne	.L48
1279:.\Generated_Source\PSoC4/BLE_eventHandler.c ****                         {
1280:.\Generated_Source\PSoC4/BLE_eventHandler.c ****                             /* When fast advertising time out occur: Start slow advertising */
1281:.\Generated_Source\PSoC4/BLE_eventHandler.c ****                             if(CYBLE_ERROR_OK == CyBle_GappStartAdvertisement(CYBLE_ADVERTISING_SLO
 817              		.loc 1 1281 0
 818 01a0 0120     		mov	r0, #1
 819 01a2 FFF7FEFF 		bl	CyBle_GappStartAdvertisement
 820 01a6 031C     		mov	r3, r0
 821 01a8 002B     		cmp	r3, #0
 822 01aa 03D1     		bne	.L48
1282:.\Generated_Source\PSoC4/BLE_eventHandler.c ****                             {
1283:.\Generated_Source\PSoC4/BLE_eventHandler.c ****                                 CyBle_SetState(CYBLE_STATE_ADVERTISING);
 823              		.loc 1 1283 0
 824 01ac 3B4B     		ldr	r3, .L55+16
ARM GAS  C:\Users\Zachary\AppData\Local\Temp\ccNoimb2.s 			page 38


 825 01ae 0322     		mov	r2, #3
 826 01b0 1A70     		strb	r2, [r3]
1284:.\Generated_Source\PSoC4/BLE_eventHandler.c ****                             }
1285:.\Generated_Source\PSoC4/BLE_eventHandler.c ****                         }
1286:.\Generated_Source\PSoC4/BLE_eventHandler.c ****                     #endif /* CYBLE_SLOW_ADV_ENABLED */
1287:.\Generated_Source\PSoC4/BLE_eventHandler.c ****                     }
1288:.\Generated_Source\PSoC4/BLE_eventHandler.c ****                 }
1289:.\Generated_Source\PSoC4/BLE_eventHandler.c ****             }
1290:.\Generated_Source\PSoC4/BLE_eventHandler.c ****             break;
 827              		.loc 1 1290 0
 828 01b2 51E0     		b	.L45
 829              	.L48:
 830 01b4 50E0     		b	.L45
 831              	.L42:
1291:.\Generated_Source\PSoC4/BLE_eventHandler.c ****         #endif /* CYBLE_GAP_ROLE_PERIPHERAL || CYBLE_GAP_ROLE_BROADCASTER */
1292:.\Generated_Source\PSoC4/BLE_eventHandler.c ****         
1293:.\Generated_Source\PSoC4/BLE_eventHandler.c ****         #if(CYBLE_GAP_ROLE_CENTRAL || CYBLE_GAP_ROLE_OBSERVER)    
1294:.\Generated_Source\PSoC4/BLE_eventHandler.c ****         case CYBLE_EVT_GAPC_SCAN_START_STOP:
1295:.\Generated_Source\PSoC4/BLE_eventHandler.c ****             #ifdef CYBLE_CPS_CLIENT
1296:.\Generated_Source\PSoC4/BLE_eventHandler.c ****                 CyBle_CpscScanStartStopEventHandler();
1297:.\Generated_Source\PSoC4/BLE_eventHandler.c ****             #endif /* CYBLE_CPS_CLIENT */
1298:.\Generated_Source\PSoC4/BLE_eventHandler.c ****             
1299:.\Generated_Source\PSoC4/BLE_eventHandler.c ****             if((CYBLE_STATE_CONNECTED != CyBle_GetState()) && ((cyBle_eventHandlerFlag & CYBLE_CALL
1300:.\Generated_Source\PSoC4/BLE_eventHandler.c ****             {
1301:.\Generated_Source\PSoC4/BLE_eventHandler.c ****                 /* After CyBle_GapcStartScan first event indicates that scanning has been started *
1302:.\Generated_Source\PSoC4/BLE_eventHandler.c ****                 if(0u != (cyBle_eventHandlerFlag & CYBLE_START_FLAG))
1303:.\Generated_Source\PSoC4/BLE_eventHandler.c ****                 {
1304:.\Generated_Source\PSoC4/BLE_eventHandler.c ****                     CyBle_SetState(CYBLE_STATE_SCANNING);
1305:.\Generated_Source\PSoC4/BLE_eventHandler.c ****                     cyBle_eventHandlerFlag &= (uint8)~CYBLE_START_FLAG;
1306:.\Generated_Source\PSoC4/BLE_eventHandler.c ****                 }
1307:.\Generated_Source\PSoC4/BLE_eventHandler.c ****                 /* When application initiated stop scanning */
1308:.\Generated_Source\PSoC4/BLE_eventHandler.c ****                 else if(0u != (cyBle_eventHandlerFlag & CYBLE_STOP_FLAG))
1309:.\Generated_Source\PSoC4/BLE_eventHandler.c ****                 {
1310:.\Generated_Source\PSoC4/BLE_eventHandler.c ****                     CyBle_SetState(CYBLE_STATE_DISCONNECTED);  
1311:.\Generated_Source\PSoC4/BLE_eventHandler.c ****                     cyBle_eventHandlerFlag &= (uint8)~CYBLE_STOP_FLAG;
1312:.\Generated_Source\PSoC4/BLE_eventHandler.c ****                 }
1313:.\Generated_Source\PSoC4/BLE_eventHandler.c ****                 else /* Following event indicates that scanning has been stopped by stack */
1314:.\Generated_Source\PSoC4/BLE_eventHandler.c ****                 {
1315:.\Generated_Source\PSoC4/BLE_eventHandler.c ****                     if(CYBLE_STATE_SCANNING == CyBle_GetState())
1316:.\Generated_Source\PSoC4/BLE_eventHandler.c ****                     {
1317:.\Generated_Source\PSoC4/BLE_eventHandler.c ****                         CyBle_SetState(CYBLE_STATE_DISCONNECTED);  
1318:.\Generated_Source\PSoC4/BLE_eventHandler.c ****                     #if (CYBLE_SLOW_SCAN_ENABLED != 0u)
1319:.\Generated_Source\PSoC4/BLE_eventHandler.c ****                         if(cyBle_scanningIntervalType == CYBLE_SCANNING_FAST)
1320:.\Generated_Source\PSoC4/BLE_eventHandler.c ****                         {
1321:.\Generated_Source\PSoC4/BLE_eventHandler.c ****                             /* When fast scanning time out occur: Start slow scanning */
1322:.\Generated_Source\PSoC4/BLE_eventHandler.c ****                             if(CYBLE_ERROR_OK == CyBle_GapcStartScan(CYBLE_SCANNING_SLOW))
1323:.\Generated_Source\PSoC4/BLE_eventHandler.c ****                             {
1324:.\Generated_Source\PSoC4/BLE_eventHandler.c ****                                 CyBle_SetState(CYBLE_STATE_SCANNING);
1325:.\Generated_Source\PSoC4/BLE_eventHandler.c ****                             }
1326:.\Generated_Source\PSoC4/BLE_eventHandler.c ****                         }
1327:.\Generated_Source\PSoC4/BLE_eventHandler.c ****                     #endif /* CYBLE_SLOW_ADV_ENABLED */
1328:.\Generated_Source\PSoC4/BLE_eventHandler.c ****                     }
1329:.\Generated_Source\PSoC4/BLE_eventHandler.c ****                 }
1330:.\Generated_Source\PSoC4/BLE_eventHandler.c ****             }
1331:.\Generated_Source\PSoC4/BLE_eventHandler.c ****             break;
1332:.\Generated_Source\PSoC4/BLE_eventHandler.c ****         #endif /* CYBLE_GAP_ROLE_CENTRAL || CYBLE_GAP_ROLE_OBSERVER */
1333:.\Generated_Source\PSoC4/BLE_eventHandler.c **** 
ARM GAS  C:\Users\Zachary\AppData\Local\Temp\ccNoimb2.s 			page 39


1334:.\Generated_Source\PSoC4/BLE_eventHandler.c ****         /**********************************************************
1335:.\Generated_Source\PSoC4/BLE_eventHandler.c ****         ##L2AP events 
1336:.\Generated_Source\PSoC4/BLE_eventHandler.c ****         ***********************************************************/
1337:.\Generated_Source\PSoC4/BLE_eventHandler.c ****         case CYBLE_EVT_L2CAP_CONN_PARAM_UPDATE_RSP:
1338:.\Generated_Source\PSoC4/BLE_eventHandler.c ****             CyBle_L2Cap_ConnParamUpdateRspEventHandler(*(uint16 *)eventParam);
 832              		.loc 1 1338 0
 833 01b6 3B68     		ldr	r3, [r7]
 834 01b8 1B88     		ldrh	r3, [r3]
 835 01ba 181C     		mov	r0, r3
 836 01bc FFF7FEFF 		bl	CyBle_L2Cap_ConnParamUpdateRspEventHandler
1339:.\Generated_Source\PSoC4/BLE_eventHandler.c ****             break;
 837              		.loc 1 1339 0
 838 01c0 4AE0     		b	.L45
 839              	.L36:
1340:.\Generated_Source\PSoC4/BLE_eventHandler.c ****         
1341:.\Generated_Source\PSoC4/BLE_eventHandler.c ****         /**********************************************************
1342:.\Generated_Source\PSoC4/BLE_eventHandler.c ****         ##GATT events
1343:.\Generated_Source\PSoC4/BLE_eventHandler.c ****         ***********************************************************/        
1344:.\Generated_Source\PSoC4/BLE_eventHandler.c ****         case CYBLE_EVT_GATT_CONNECT_IND:
1345:.\Generated_Source\PSoC4/BLE_eventHandler.c ****             cyBle_connHandle = *(CYBLE_CONN_HANDLE_T *)eventParam;
 840              		.loc 1 1345 0
 841 01c2 394A     		ldr	r2, .L55+28
 842 01c4 3B68     		ldr	r3, [r7]
 843 01c6 111C     		mov	r1, r2
 844 01c8 1A1C     		mov	r2, r3
 845 01ca 0223     		mov	r3, #2
 846 01cc 081C     		mov	r0, r1
 847 01ce 111C     		mov	r1, r2
 848 01d0 1A1C     		mov	r2, r3
 849 01d2 FFF7FEFF 		bl	memcpy
1346:.\Generated_Source\PSoC4/BLE_eventHandler.c ****             
1347:.\Generated_Source\PSoC4/BLE_eventHandler.c ****         #if((CYBLE_GATT_ROLE_SERVER) && (CYBLE_GATT_DB_CCCD_COUNT != 0u))
1348:.\Generated_Source\PSoC4/BLE_eventHandler.c ****             /* Init CCCD values in RAM */
1349:.\Generated_Source\PSoC4/BLE_eventHandler.c ****         	(void) memcpy (cyBle_attValuesCCCD, cyBle_attValuesCCCDFlashMemory[cyBle_connHandle.bdHand
 850              		.loc 1 1349 0
 851 01d6 344B     		ldr	r3, .L55+28
 852 01d8 1B78     		ldrb	r3, [r3]
 853 01da 1A1C     		mov	r2, r3
 854 01dc 131C     		mov	r3, r2
 855 01de 5B00     		lsl	r3, r3, #1
 856 01e0 9B18     		add	r3, r3, r2
 857 01e2 5B00     		lsl	r3, r3, #1
 858 01e4 324A     		ldr	r2, .L55+36
 859 01e6 9B18     		add	r3, r3, r2
 860 01e8 324A     		ldr	r2, .L55+40
 861 01ea 111C     		mov	r1, r2
 862 01ec 1A1C     		mov	r2, r3
 863 01ee 0623     		mov	r3, #6
 864 01f0 081C     		mov	r0, r1
 865 01f2 111C     		mov	r1, r2
 866 01f4 1A1C     		mov	r2, r3
 867 01f6 FFF7FEFF 		bl	memcpy
1350:.\Generated_Source\PSoC4/BLE_eventHandler.c ****                             CYBLE_GATT_DB_CCCD_COUNT);
1351:.\Generated_Source\PSoC4/BLE_eventHandler.c ****         #endif /* CYBLE_GATT_ROLE_SERVER */
1352:.\Generated_Source\PSoC4/BLE_eventHandler.c ****         
1353:.\Generated_Source\PSoC4/BLE_eventHandler.c ****         #if (CYBLE_GATT_ROLE_CLIENT)
1354:.\Generated_Source\PSoC4/BLE_eventHandler.c ****             CyBle_SetClientState(CYBLE_CLIENT_STATE_CONNECTED);
ARM GAS  C:\Users\Zachary\AppData\Local\Temp\ccNoimb2.s 			page 40


1355:.\Generated_Source\PSoC4/BLE_eventHandler.c ****         #endif /* CYBLE_GATT_ROLE_CLIENT */
1356:.\Generated_Source\PSoC4/BLE_eventHandler.c ****         
1357:.\Generated_Source\PSoC4/BLE_eventHandler.c ****             CyBle_GattConnectReqHandler();
 868              		.loc 1 1357 0
 869 01fa FFF7FEFF 		bl	CyBle_GattConnectReqHandler
1358:.\Generated_Source\PSoC4/BLE_eventHandler.c ****             break;
 870              		.loc 1 1358 0
 871 01fe 2BE0     		b	.L45
 872              	.L37:
1359:.\Generated_Source\PSoC4/BLE_eventHandler.c **** 
1360:.\Generated_Source\PSoC4/BLE_eventHandler.c ****         case CYBLE_EVT_GATT_DISCONNECT_IND:
1361:.\Generated_Source\PSoC4/BLE_eventHandler.c ****             CyBle_GattDisconnectEventHandler();
 873              		.loc 1 1361 0
 874 0200 FFF7FEFF 		bl	CyBle_GattDisconnectEventHandler
1362:.\Generated_Source\PSoC4/BLE_eventHandler.c ****             break;
 875              		.loc 1 1362 0
 876 0204 28E0     		b	.L45
 877              	.L38:
 878              	.LBB4:
1363:.\Generated_Source\PSoC4/BLE_eventHandler.c **** 
1364:.\Generated_Source\PSoC4/BLE_eventHandler.c ****     #if((CYBLE_GATT_ROLE_SERVER) || (CYBLE_GATT_ROLE_CLIENT))
1365:.\Generated_Source\PSoC4/BLE_eventHandler.c ****         case CYBLE_EVT_GATTS_XCNHG_MTU_REQ:
1366:.\Generated_Source\PSoC4/BLE_eventHandler.c ****             {
1367:.\Generated_Source\PSoC4/BLE_eventHandler.c ****                 uint16 cyBle_mtuSize;
1368:.\Generated_Source\PSoC4/BLE_eventHandler.c ****                 if(CYBLE_GATT_MTU > ((CYBLE_GATT_XCHG_MTU_PARAM_T *)eventParam)->mtu)
 879              		.loc 1 1368 0
 880 0206 3B68     		ldr	r3, [r7]
 881 0208 5B88     		ldrh	r3, [r3, #2]
 882 020a 162B     		cmp	r3, #22
 883 020c 05D8     		bhi	.L51
1369:.\Generated_Source\PSoC4/BLE_eventHandler.c ****                 {
1370:.\Generated_Source\PSoC4/BLE_eventHandler.c ****                     cyBle_mtuSize = ((CYBLE_GATT_XCHG_MTU_PARAM_T *)eventParam)->mtu;
 884              		.loc 1 1370 0
 885 020e 3B1C     		mov	r3, r7
 886 0210 0E33     		add	r3, r3, #14
 887 0212 3A68     		ldr	r2, [r7]
 888 0214 5288     		ldrh	r2, [r2, #2]
 889 0216 1A80     		strh	r2, [r3]
 890 0218 03E0     		b	.L52
 891              	.L51:
1371:.\Generated_Source\PSoC4/BLE_eventHandler.c ****                 }
1372:.\Generated_Source\PSoC4/BLE_eventHandler.c ****                 else
1373:.\Generated_Source\PSoC4/BLE_eventHandler.c ****                 {
1374:.\Generated_Source\PSoC4/BLE_eventHandler.c ****                     cyBle_mtuSize = CYBLE_GATT_MTU;
 892              		.loc 1 1374 0
 893 021a 3B1C     		mov	r3, r7
 894 021c 0E33     		add	r3, r3, #14
 895 021e 1722     		mov	r2, #23
 896 0220 1A80     		strh	r2, [r3]
 897              	.L52:
1375:.\Generated_Source\PSoC4/BLE_eventHandler.c ****                 }
1376:.\Generated_Source\PSoC4/BLE_eventHandler.c ****                 (void)CyBle_GattsExchangeMtuRsp(((CYBLE_GATT_XCHG_MTU_PARAM_T *)eventParam)->connHa
 898              		.loc 1 1376 0
 899 0222 3B68     		ldr	r3, [r7]
 900 0224 3A1C     		mov	r2, r7
 901 0226 0E32     		add	r2, r2, #14
 902 0228 1288     		ldrh	r2, [r2]
ARM GAS  C:\Users\Zachary\AppData\Local\Temp\ccNoimb2.s 			page 41


 903 022a 1988     		ldrh	r1, [r3]
 904 022c 0023     		mov	r3, #0
 905 022e 0904     		lsl	r1, r1, #16
 906 0230 090C     		lsr	r1, r1, #16
 907 0232 1B0C     		lsr	r3, r3, #16
 908 0234 1B04     		lsl	r3, r3, #16
 909 0236 0B43     		orr	r3, r1
 910 0238 181C     		mov	r0, r3
 911 023a 111C     		mov	r1, r2
 912 023c FFF7FEFF 		bl	CyBle_GattsExchangeMtuRsp
 913              	.LBE4:
1377:.\Generated_Source\PSoC4/BLE_eventHandler.c ****             }
1378:.\Generated_Source\PSoC4/BLE_eventHandler.c ****             break;
 914              		.loc 1 1378 0
 915 0240 0AE0     		b	.L45
 916              	.L39:
1379:.\Generated_Source\PSoC4/BLE_eventHandler.c ****     #endif /* CYBLE_GATT_ROLE_SERVER || CYBLE_GATT_ROLE_CLIENT */
1380:.\Generated_Source\PSoC4/BLE_eventHandler.c ****     
1381:.\Generated_Source\PSoC4/BLE_eventHandler.c ****     #if (CYBLE_GATT_ROLE_CLIENT)
1382:.\Generated_Source\PSoC4/BLE_eventHandler.c ****         case CYBLE_EVT_GAPC_SCAN_PROGRESS_RESULT:
1383:.\Generated_Source\PSoC4/BLE_eventHandler.c ****         #ifdef CYBLE_CPS_CLIENT
1384:.\Generated_Source\PSoC4/BLE_eventHandler.c ****                 CyBle_CpscScanProcessEventHandler((CYBLE_GAPC_ADV_REPORT_T *)eventParam);
1385:.\Generated_Source\PSoC4/BLE_eventHandler.c ****         #endif /* CYBLE_CPS_CLIENT */
1386:.\Generated_Source\PSoC4/BLE_eventHandler.c ****             break;
1387:.\Generated_Source\PSoC4/BLE_eventHandler.c ****     #endif /* CYBLE_GATT_ROLE_CLIENT */
1388:.\Generated_Source\PSoC4/BLE_eventHandler.c **** 
1389:.\Generated_Source\PSoC4/BLE_eventHandler.c ****     #if(CYBLE_GATT_ROLE_SERVER)
1390:.\Generated_Source\PSoC4/BLE_eventHandler.c ****         case CYBLE_EVT_GATTS_WRITE_REQ:
1391:.\Generated_Source\PSoC4/BLE_eventHandler.c ****             CyBle_WriteReqHandler((CYBLE_GATTS_WRITE_REQ_PARAM_T *)eventParam);
 917              		.loc 1 1391 0
 918 0242 3B68     		ldr	r3, [r7]
 919 0244 181C     		mov	r0, r3
 920 0246 FFF7FEFF 		bl	CyBle_WriteReqHandler
1392:.\Generated_Source\PSoC4/BLE_eventHandler.c ****             break;
 921              		.loc 1 1392 0
 922 024a 05E0     		b	.L45
 923              	.L41:
1393:.\Generated_Source\PSoC4/BLE_eventHandler.c **** 
1394:.\Generated_Source\PSoC4/BLE_eventHandler.c ****         case CYBLE_EVT_GATTS_WRITE_CMD_REQ:
1395:.\Generated_Source\PSoC4/BLE_eventHandler.c ****         #ifdef CYBLE_IAS_SERVER
1396:.\Generated_Source\PSoC4/BLE_eventHandler.c ****             if((cyBle_eventHandlerFlag & CYBLE_CALLBACK) != 0u)
1397:.\Generated_Source\PSoC4/BLE_eventHandler.c ****             {
1398:.\Generated_Source\PSoC4/BLE_eventHandler.c ****                 (void)CyBle_IassWriteCmdEventHandler((CYBLE_GATTS_WRITE_REQ_PARAM_T *)eventParam);
1399:.\Generated_Source\PSoC4/BLE_eventHandler.c ****             }
1400:.\Generated_Source\PSoC4/BLE_eventHandler.c ****         #endif /* CYBLE_IAS_SERVER */
1401:.\Generated_Source\PSoC4/BLE_eventHandler.c ****         #ifdef CYBLE_HIDS_SERVER
1402:.\Generated_Source\PSoC4/BLE_eventHandler.c ****             if((cyBle_eventHandlerFlag & CYBLE_CALLBACK) != 0u)
1403:.\Generated_Source\PSoC4/BLE_eventHandler.c ****             {
1404:.\Generated_Source\PSoC4/BLE_eventHandler.c ****                 (void)CyBle_HidssWriteEventHandler((CYBLE_GATTS_WRITE_REQ_PARAM_T *)eventParam);
1405:.\Generated_Source\PSoC4/BLE_eventHandler.c ****             }
1406:.\Generated_Source\PSoC4/BLE_eventHandler.c ****         #endif /* CYBLE_HIDS_SERVER */
1407:.\Generated_Source\PSoC4/BLE_eventHandler.c ****         #ifdef CYBLE_PASS_SERVER
1408:.\Generated_Source\PSoC4/BLE_eventHandler.c ****             if((cyBle_eventHandlerFlag & CYBLE_CALLBACK) != 0u)
1409:.\Generated_Source\PSoC4/BLE_eventHandler.c ****             {
1410:.\Generated_Source\PSoC4/BLE_eventHandler.c ****                 (void)CyBle_PasssWriteCmdEventHandler((CYBLE_GATTS_WRITE_REQ_PARAM_T *)eventParam);
1411:.\Generated_Source\PSoC4/BLE_eventHandler.c ****             }
1412:.\Generated_Source\PSoC4/BLE_eventHandler.c ****         #endif /* CYBLE_PASS_SERVER */
ARM GAS  C:\Users\Zachary\AppData\Local\Temp\ccNoimb2.s 			page 42


1413:.\Generated_Source\PSoC4/BLE_eventHandler.c ****         #ifdef CYBLE_RTUS_SERVER
1414:.\Generated_Source\PSoC4/BLE_eventHandler.c ****             if((cyBle_eventHandlerFlag & CYBLE_CALLBACK) != 0u)
1415:.\Generated_Source\PSoC4/BLE_eventHandler.c ****             {
1416:.\Generated_Source\PSoC4/BLE_eventHandler.c ****                 (void)CyBle_RtussWriteCmdEventHandler((CYBLE_GATTS_WRITE_REQ_PARAM_T *)eventParam);
1417:.\Generated_Source\PSoC4/BLE_eventHandler.c ****             }
1418:.\Generated_Source\PSoC4/BLE_eventHandler.c ****         #endif /* CYBLE_RTUS_SERVER */
1419:.\Generated_Source\PSoC4/BLE_eventHandler.c ****         #ifdef CYBLE_SCPS_SERVER
1420:.\Generated_Source\PSoC4/BLE_eventHandler.c ****             if((cyBle_eventHandlerFlag & CYBLE_CALLBACK) != 0u)
1421:.\Generated_Source\PSoC4/BLE_eventHandler.c ****             {
1422:.\Generated_Source\PSoC4/BLE_eventHandler.c ****                 (void)CyBle_ScpssWriteEventHandler((CYBLE_GATTS_WRITE_REQ_PARAM_T *)eventParam);
1423:.\Generated_Source\PSoC4/BLE_eventHandler.c ****             }
1424:.\Generated_Source\PSoC4/BLE_eventHandler.c ****         #endif /* CYBLE_SCPS_SERVER */
1425:.\Generated_Source\PSoC4/BLE_eventHandler.c ****             break;
1426:.\Generated_Source\PSoC4/BLE_eventHandler.c ****             
1427:.\Generated_Source\PSoC4/BLE_eventHandler.c ****         case CYBLE_EVT_GATTS_HANDLE_VALUE_CNF:
1428:.\Generated_Source\PSoC4/BLE_eventHandler.c ****             CyBle_ValueConfirmation((CYBLE_CONN_HANDLE_T *)eventParam);
 924              		.loc 1 1428 0
 925 024c 3B68     		ldr	r3, [r7]
 926 024e 181C     		mov	r0, r3
 927 0250 FFF7FEFF 		bl	CyBle_ValueConfirmation
1429:.\Generated_Source\PSoC4/BLE_eventHandler.c ****             break;
 928              		.loc 1 1429 0
 929 0254 00E0     		b	.L45
 930              	.L54:
1430:.\Generated_Source\PSoC4/BLE_eventHandler.c ****             
1431:.\Generated_Source\PSoC4/BLE_eventHandler.c ****     #endif /* CYBLE_GATT_ROLE_SERVER */
1432:.\Generated_Source\PSoC4/BLE_eventHandler.c **** 
1433:.\Generated_Source\PSoC4/BLE_eventHandler.c ****     #if (CYBLE_GATT_ROLE_CLIENT)
1434:.\Generated_Source\PSoC4/BLE_eventHandler.c ****         
1435:.\Generated_Source\PSoC4/BLE_eventHandler.c ****         case CYBLE_EVT_GATTC_READ_BY_GROUP_TYPE_RSP:
1436:.\Generated_Source\PSoC4/BLE_eventHandler.c ****             CyBle_ReadByGroupEventHandler((CYBLE_GATTC_READ_BY_GRP_RSP_PARAM_T *)eventParam);
1437:.\Generated_Source\PSoC4/BLE_eventHandler.c ****             break;
1438:.\Generated_Source\PSoC4/BLE_eventHandler.c **** 
1439:.\Generated_Source\PSoC4/BLE_eventHandler.c ****         case CYBLE_EVT_GATTC_READ_BY_TYPE_RSP:
1440:.\Generated_Source\PSoC4/BLE_eventHandler.c ****             CyBle_ReadByTypeEventHandler((CYBLE_GATTC_READ_BY_TYPE_RSP_PARAM_T *)eventParam);
1441:.\Generated_Source\PSoC4/BLE_eventHandler.c ****             break;
1442:.\Generated_Source\PSoC4/BLE_eventHandler.c **** 
1443:.\Generated_Source\PSoC4/BLE_eventHandler.c ****         case CYBLE_EVT_GATTC_FIND_INFO_RSP:
1444:.\Generated_Source\PSoC4/BLE_eventHandler.c ****             CyBle_FindInfoEventHandler((CYBLE_GATTC_FIND_INFO_RSP_PARAM_T *)eventParam);
1445:.\Generated_Source\PSoC4/BLE_eventHandler.c ****             break;
1446:.\Generated_Source\PSoC4/BLE_eventHandler.c **** 
1447:.\Generated_Source\PSoC4/BLE_eventHandler.c ****         case CYBLE_EVT_GATTC_ERROR_RSP:
1448:.\Generated_Source\PSoC4/BLE_eventHandler.c ****             CyBle_ErrorResponseEventHandler((CYBLE_GATTC_ERR_RSP_PARAM_T *)eventParam);
1449:.\Generated_Source\PSoC4/BLE_eventHandler.c ****             break;
1450:.\Generated_Source\PSoC4/BLE_eventHandler.c **** 
1451:.\Generated_Source\PSoC4/BLE_eventHandler.c ****         case CYBLE_EVT_GATTC_HANDLE_VALUE_NTF:
1452:.\Generated_Source\PSoC4/BLE_eventHandler.c ****             CyBle_NotificationEventHandler((CYBLE_GATTC_HANDLE_VALUE_NTF_PARAM_T *)eventParam);
1453:.\Generated_Source\PSoC4/BLE_eventHandler.c ****             break;
1454:.\Generated_Source\PSoC4/BLE_eventHandler.c **** 
1455:.\Generated_Source\PSoC4/BLE_eventHandler.c ****         case CYBLE_EVT_GATTC_HANDLE_VALUE_IND:
1456:.\Generated_Source\PSoC4/BLE_eventHandler.c ****             CyBle_GattcIndicationEventHandler((CYBLE_GATTC_HANDLE_VALUE_IND_PARAM_T *)eventParam);
1457:.\Generated_Source\PSoC4/BLE_eventHandler.c ****             CyBle_IndicationEventHandler((CYBLE_GATTC_HANDLE_VALUE_IND_PARAM_T *)eventParam);
1458:.\Generated_Source\PSoC4/BLE_eventHandler.c ****         
1459:.\Generated_Source\PSoC4/BLE_eventHandler.c ****             /* Respond with a Handle Value Confirmation when request handled */
1460:.\Generated_Source\PSoC4/BLE_eventHandler.c ****             if((cyBle_eventHandlerFlag & CYBLE_CALLBACK) == 0u)
1461:.\Generated_Source\PSoC4/BLE_eventHandler.c ****             {
1462:.\Generated_Source\PSoC4/BLE_eventHandler.c ****                 (void)CyBle_GattcConfirmation(((CYBLE_GATTC_HANDLE_VALUE_IND_PARAM_T *)eventParam)-
ARM GAS  C:\Users\Zachary\AppData\Local\Temp\ccNoimb2.s 			page 43


1463:.\Generated_Source\PSoC4/BLE_eventHandler.c ****             }
1464:.\Generated_Source\PSoC4/BLE_eventHandler.c ****             break;
1465:.\Generated_Source\PSoC4/BLE_eventHandler.c ****         
1466:.\Generated_Source\PSoC4/BLE_eventHandler.c ****         case CYBLE_EVT_GATTC_READ_RSP:
1467:.\Generated_Source\PSoC4/BLE_eventHandler.c ****             CyBle_ReadResponseEventHandler((CYBLE_GATTC_READ_RSP_PARAM_T *)eventParam);
1468:.\Generated_Source\PSoC4/BLE_eventHandler.c ****             break;
1469:.\Generated_Source\PSoC4/BLE_eventHandler.c **** 
1470:.\Generated_Source\PSoC4/BLE_eventHandler.c ****         case CYBLE_EVT_GATTC_WRITE_RSP:
1471:.\Generated_Source\PSoC4/BLE_eventHandler.c ****             CyBle_GattcWriteResponseEventHandler((CYBLE_CONN_HANDLE_T *)eventParam);
1472:.\Generated_Source\PSoC4/BLE_eventHandler.c ****             break;
1473:.\Generated_Source\PSoC4/BLE_eventHandler.c ****             
1474:.\Generated_Source\PSoC4/BLE_eventHandler.c ****     #endif /* CYBLE_GATT_ROLE_CLIENT */
1475:.\Generated_Source\PSoC4/BLE_eventHandler.c **** 
1476:.\Generated_Source\PSoC4/BLE_eventHandler.c ****     #if((CYBLE_GAP_ROLE_PERIPHERAL || CYBLE_GAP_ROLE_CENTRAL) && (CYBLE_BONDING_REQUIREMENT == CYBL
1477:.\Generated_Source\PSoC4/BLE_eventHandler.c **** 
1478:.\Generated_Source\PSoC4/BLE_eventHandler.c ****         case CYBLE_EVT_PENDING_FLASH_WRITE:
1479:.\Generated_Source\PSoC4/BLE_eventHandler.c ****             cyBle_pendingFlashWrite |= CYBLE_PENDING_STACK_FLASH_WRITE_BIT;
1480:.\Generated_Source\PSoC4/BLE_eventHandler.c ****             break;
1481:.\Generated_Source\PSoC4/BLE_eventHandler.c ****         
1482:.\Generated_Source\PSoC4/BLE_eventHandler.c ****     #endif  /* (CYBLE_BONDING_REQUIREMENT == CYBLE_BONDING_YES) */
1483:.\Generated_Source\PSoC4/BLE_eventHandler.c ****     
1484:.\Generated_Source\PSoC4/BLE_eventHandler.c ****         default:
1485:.\Generated_Source\PSoC4/BLE_eventHandler.c ****             break;
 931              		.loc 1 1485 0
 932 0256 C046     		mov	r8, r8
 933              	.L45:
1486:.\Generated_Source\PSoC4/BLE_eventHandler.c ****     }
1487:.\Generated_Source\PSoC4/BLE_eventHandler.c **** 
1488:.\Generated_Source\PSoC4/BLE_eventHandler.c ****     if(0u != (cyBle_eventHandlerFlag & (CYBLE_CALLBACK | CYBLE_ENABLE_ALL_EVENTS))) 
 934              		.loc 1 1488 0
 935 0258 0C4B     		ldr	r3, .L55
 936 025a 1B78     		ldrb	r3, [r3]
 937 025c DBB2     		uxtb	r3, r3
 938 025e 1A1C     		mov	r2, r3
 939 0260 1123     		mov	r3, #17
 940 0262 1340     		and	r3, r2
 941 0264 0FD0     		beq	.L25
1489:.\Generated_Source\PSoC4/BLE_eventHandler.c ****     {
1490:.\Generated_Source\PSoC4/BLE_eventHandler.c ****         cyBle_eventHandlerFlag &= (uint8)~CYBLE_CALLBACK;
 942              		.loc 1 1490 0
 943 0266 094B     		ldr	r3, .L55
 944 0268 1B78     		ldrb	r3, [r3]
 945 026a DBB2     		uxtb	r3, r3
 946 026c 0122     		mov	r2, #1
 947 026e 9343     		bic	r3, r2
 948 0270 DAB2     		uxtb	r2, r3
 949 0272 064B     		ldr	r3, .L55
 950 0274 1A70     		strb	r2, [r3]
1491:.\Generated_Source\PSoC4/BLE_eventHandler.c ****         CyBle_ApplCallback((uint32)eventCode, eventParam);
 951              		.loc 1 1491 0
 952 0276 104B     		ldr	r3, .L55+44
 953 0278 1B68     		ldr	r3, [r3]
 954 027a FA1D     		add	r2, r7, #7
 955 027c 1178     		ldrb	r1, [r2]
 956 027e 3A68     		ldr	r2, [r7]
 957 0280 081C     		mov	r0, r1
 958 0282 111C     		mov	r1, r2
ARM GAS  C:\Users\Zachary\AppData\Local\Temp\ccNoimb2.s 			page 44


 959 0284 9847     		blx	r3
 960              	.L25:
1492:.\Generated_Source\PSoC4/BLE_eventHandler.c ****     }
1493:.\Generated_Source\PSoC4/BLE_eventHandler.c **** 
1494:.\Generated_Source\PSoC4/BLE_eventHandler.c **** }
 961              		.loc 1 1494 0
 962 0286 BD46     		mov	sp, r7
 963 0288 04B0     		add	sp, sp, #16
 964              		@ sp needed
 965 028a 80BD     		pop	{r7, pc}
 966              	.L56:
 967              		.align	2
 968              	.L55:
 969 028c 00000000 		.word	cyBle_eventHandlerFlag
 970 0290 00000000 		.word	.L28
 971 0294 00000000 		.word	cyBle_sflashDeviceAddress
 972 0298 00000000 		.word	cyBle_deviceAddress
 973 029c 00000000 		.word	cyBle_state
 974 02a0 00000000 		.word	cyBle_busyStatus
 975 02a4 00000000 		.word	cyBle_authInfo
 976 02a8 00000000 		.word	cyBle_connHandle
 977 02ac 00000000 		.word	cyBle_advertisingIntervalType
 978 02b0 00000000 		.word	cyBle_attValuesCCCDFlashMemory
 979 02b4 00000000 		.word	cyBle_attValuesCCCD
 980 02b8 00000000 		.word	CyBle_ApplCallback
 981              		.cfi_endproc
 982              	.LFE10:
 983              		.size	CyBle_EventHandler, .-CyBle_EventHandler
 984              		.text
 985              	.Letext0:
 986              		.file 2 ".\\Generated_Source\\PSoC4\\cytypes.h"
 987              		.file 3 ".\\Generated_Source\\PSoC4\\BLE_Stack.h"
 988              		.file 4 ".\\Generated_Source\\PSoC4\\BLE_StackHostMain.h"
 989              		.file 5 ".\\Generated_Source\\PSoC4\\BLE_StackGap.h"
 990              		.file 6 ".\\Generated_Source\\PSoC4\\BLE_StackGatt.h"
 991              		.file 7 ".\\Generated_Source\\PSoC4\\BLE_StackGattServer.h"
 992              		.file 8 ".\\Generated_Source\\PSoC4\\BLE.h"
 993              		.file 9 ".\\Generated_Source\\PSoC4\\BLE_dis.h"
 994              		.file 10 ".\\Generated_Source\\PSoC4\\BLE_hts.h"
 995              		.file 11 ".\\Generated_Source\\PSoC4\\BLE_eventHandler.h"
 996              		.file 12 ".\\Generated_Source\\PSoC4\\BLE_gatt.h"