ARM GAS  C:\Users\Zachary\AppData\Local\Temp\ccv8jLse.s 			page 1


   1              		.cpu cortex-m0
   2              		.fpu softvfp
   3              		.eabi_attribute 20, 1
   4              		.eabi_attribute 21, 1
   5              		.eabi_attribute 23, 3
   6              		.eabi_attribute 24, 1
   7              		.eabi_attribute 25, 1
   8              		.eabi_attribute 26, 1
   9              		.eabi_attribute 30, 6
  10              		.eabi_attribute 34, 0
  11              		.eabi_attribute 18, 4
  12              		.code	16
  13              		.file	"BLE_hts.c"
  14              		.text
  15              	.Ltext0:
  16              		.cfi_sections	.debug_frame
  17              		.bss
  18              		.align	2
  19              	CyBle_HtsApplCallback:
  20 0000 00000000 		.space	4
  21              		.global	cyBle_htss
  22              		.section	.rodata
  23              		.align	2
  24              		.type	cyBle_htss, %object
  25              		.size	cyBle_htss, 26
  26              	cyBle_htss:
  27 0000 0C00     		.short	12
  28 0002 0E00     		.short	14
  29 0004 0F00     		.short	15
  30 0006 0000     		.short	0
  31 0008 1100     		.short	17
  32 000a 0000     		.short	0
  33 000c 0000     		.short	0
  34 000e 0000     		.short	0
  35 0010 0000     		.short	0
  36 0012 0000     		.short	0
  37 0014 1300     		.short	19
  38 0016 0000     		.short	0
  39 0018 1400     		.short	20
  40 001a 0000     		.bss
  41              		.align	1
  42              	cyBle_htssReqHandle:
  43 0004 0000     		.space	2
  44 0006 0000     		.section	.text.CyBle_HtsInit,"ax",%progbits
  45              		.align	2
  46              		.global	CyBle_HtsInit
  47              		.code	16
  48              		.thumb_func
  49              		.type	CyBle_HtsInit, %function
  50              	CyBle_HtsInit:
  51              	.LFB2:
  52              		.file 1 ".\\Generated_Source\\PSoC4\\BLE_hts.c"
   1:.\Generated_Source\PSoC4/BLE_hts.c **** /*******************************************************************************
   2:.\Generated_Source\PSoC4/BLE_hts.c **** File Name: CYBLE_hts.c
   3:.\Generated_Source\PSoC4/BLE_hts.c **** Version 1.20
   4:.\Generated_Source\PSoC4/BLE_hts.c **** 
   5:.\Generated_Source\PSoC4/BLE_hts.c **** Description:
ARM GAS  C:\Users\Zachary\AppData\Local\Temp\ccv8jLse.s 			page 2


   6:.\Generated_Source\PSoC4/BLE_hts.c ****  Contains the source code for Health Thermometer Service.
   7:.\Generated_Source\PSoC4/BLE_hts.c **** 
   8:.\Generated_Source\PSoC4/BLE_hts.c **** ********************************************************************************
   9:.\Generated_Source\PSoC4/BLE_hts.c **** Copyright 2014-2015, Cypress Semiconductor Corporation.  All rights reserved.
  10:.\Generated_Source\PSoC4/BLE_hts.c **** You may use this file only in accordance with the license, terms, conditions,
  11:.\Generated_Source\PSoC4/BLE_hts.c **** disclaimers, and limitations in the end user license agreement accompanying
  12:.\Generated_Source\PSoC4/BLE_hts.c **** the software package with which this file was provided.
  13:.\Generated_Source\PSoC4/BLE_hts.c **** *******************************************************************************/
  14:.\Generated_Source\PSoC4/BLE_hts.c **** 
  15:.\Generated_Source\PSoC4/BLE_hts.c **** 
  16:.\Generated_Source\PSoC4/BLE_hts.c **** #include "BLE_eventHandler.h"
  17:.\Generated_Source\PSoC4/BLE_hts.c **** 
  18:.\Generated_Source\PSoC4/BLE_hts.c **** static CYBLE_CALLBACK_T CyBle_HtsApplCallback = NULL;
  19:.\Generated_Source\PSoC4/BLE_hts.c **** 
  20:.\Generated_Source\PSoC4/BLE_hts.c **** #ifdef CYBLE_HTS_SERVER
  21:.\Generated_Source\PSoC4/BLE_hts.c **** 
  22:.\Generated_Source\PSoC4/BLE_hts.c **** const CYBLE_HTSS_T cyBle_htss =
  23:.\Generated_Source\PSoC4/BLE_hts.c **** {
  24:.\Generated_Source\PSoC4/BLE_hts.c ****     0x000Cu,    /* Handle of the HTS service */
  25:.\Generated_Source\PSoC4/BLE_hts.c ****     {
  26:.\Generated_Source\PSoC4/BLE_hts.c ****         
  27:.\Generated_Source\PSoC4/BLE_hts.c ****         /* Temperature Measurement characteristic */
  28:.\Generated_Source\PSoC4/BLE_hts.c ****         {
  29:.\Generated_Source\PSoC4/BLE_hts.c ****             0x000Eu, /* Handle of the Temperature Measurement characteristic */ 
  30:.\Generated_Source\PSoC4/BLE_hts.c ****             
  31:.\Generated_Source\PSoC4/BLE_hts.c ****             /* Array of Descriptors handles */
  32:.\Generated_Source\PSoC4/BLE_hts.c ****             {
  33:.\Generated_Source\PSoC4/BLE_hts.c ****                 0x000Fu, /* Handle of the Client Characteristic Configuration descriptor */ 
  34:.\Generated_Source\PSoC4/BLE_hts.c ****                 CYBLE_GATT_INVALID_ATTR_HANDLE_VALUE, 
  35:.\Generated_Source\PSoC4/BLE_hts.c ****             }, 
  36:.\Generated_Source\PSoC4/BLE_hts.c ****         }, 
  37:.\Generated_Source\PSoC4/BLE_hts.c ****         
  38:.\Generated_Source\PSoC4/BLE_hts.c ****         /* Temperature Type characteristic */
  39:.\Generated_Source\PSoC4/BLE_hts.c ****         {
  40:.\Generated_Source\PSoC4/BLE_hts.c ****             0x0011u, /* Handle of the Temperature Type characteristic */ 
  41:.\Generated_Source\PSoC4/BLE_hts.c ****             
  42:.\Generated_Source\PSoC4/BLE_hts.c ****             /* Array of Descriptors handles */
  43:.\Generated_Source\PSoC4/BLE_hts.c ****             {
  44:.\Generated_Source\PSoC4/BLE_hts.c ****                 CYBLE_GATT_INVALID_ATTR_HANDLE_VALUE, 
  45:.\Generated_Source\PSoC4/BLE_hts.c ****                 CYBLE_GATT_INVALID_ATTR_HANDLE_VALUE, 
  46:.\Generated_Source\PSoC4/BLE_hts.c ****             }, 
  47:.\Generated_Source\PSoC4/BLE_hts.c ****         }, 
  48:.\Generated_Source\PSoC4/BLE_hts.c ****         
  49:.\Generated_Source\PSoC4/BLE_hts.c ****         /* Intermediate Temperature characteristic */
  50:.\Generated_Source\PSoC4/BLE_hts.c ****         {
  51:.\Generated_Source\PSoC4/BLE_hts.c ****             CYBLE_GATT_INVALID_ATTR_HANDLE_VALUE, /* Handle of the Intermediate Temperature charact
  52:.\Generated_Source\PSoC4/BLE_hts.c ****             
  53:.\Generated_Source\PSoC4/BLE_hts.c ****             /* Array of Descriptors handles */
  54:.\Generated_Source\PSoC4/BLE_hts.c ****             {
  55:.\Generated_Source\PSoC4/BLE_hts.c ****                 CYBLE_GATT_INVALID_ATTR_HANDLE_VALUE, /* Handle of the Client Characteristic Config
  56:.\Generated_Source\PSoC4/BLE_hts.c ****                 CYBLE_GATT_INVALID_ATTR_HANDLE_VALUE, 
  57:.\Generated_Source\PSoC4/BLE_hts.c ****             }, 
  58:.\Generated_Source\PSoC4/BLE_hts.c ****         }, 
  59:.\Generated_Source\PSoC4/BLE_hts.c ****         
  60:.\Generated_Source\PSoC4/BLE_hts.c ****         /* Measurement Interval characteristic */
  61:.\Generated_Source\PSoC4/BLE_hts.c ****         {
  62:.\Generated_Source\PSoC4/BLE_hts.c ****             0x0013u, /* Handle of the Measurement Interval characteristic */ 
ARM GAS  C:\Users\Zachary\AppData\Local\Temp\ccv8jLse.s 			page 3


  63:.\Generated_Source\PSoC4/BLE_hts.c ****             
  64:.\Generated_Source\PSoC4/BLE_hts.c ****             /* Array of Descriptors handles */
  65:.\Generated_Source\PSoC4/BLE_hts.c ****             {
  66:.\Generated_Source\PSoC4/BLE_hts.c ****                 CYBLE_GATT_INVALID_ATTR_HANDLE_VALUE, /* Handle of the Client Characteristic Config
  67:.\Generated_Source\PSoC4/BLE_hts.c ****                 0x0014u, /* Handle of the Valid Range descriptor */ 
  68:.\Generated_Source\PSoC4/BLE_hts.c ****             }, 
  69:.\Generated_Source\PSoC4/BLE_hts.c ****         }, 
  70:.\Generated_Source\PSoC4/BLE_hts.c ****     },
  71:.\Generated_Source\PSoC4/BLE_hts.c **** };
  72:.\Generated_Source\PSoC4/BLE_hts.c **** static CYBLE_GATT_DB_ATTR_HANDLE_T cyBle_htssReqHandle;
  73:.\Generated_Source\PSoC4/BLE_hts.c ****     
  74:.\Generated_Source\PSoC4/BLE_hts.c **** #endif /* CYBLE_HTS_SERVER */
  75:.\Generated_Source\PSoC4/BLE_hts.c **** 
  76:.\Generated_Source\PSoC4/BLE_hts.c **** #ifdef CYBLE_HTS_CLIENT
  77:.\Generated_Source\PSoC4/BLE_hts.c **** 
  78:.\Generated_Source\PSoC4/BLE_hts.c **** CYBLE_HTSC_T cyBle_htsc;
  79:.\Generated_Source\PSoC4/BLE_hts.c **** static CYBLE_GATT_DB_ATTR_HANDLE_T cyBle_htscReqHandle;
  80:.\Generated_Source\PSoC4/BLE_hts.c **** 
  81:.\Generated_Source\PSoC4/BLE_hts.c **** #endif /* (CYBLE_HTS_CLIENT) */
  82:.\Generated_Source\PSoC4/BLE_hts.c **** 
  83:.\Generated_Source\PSoC4/BLE_hts.c **** 
  84:.\Generated_Source\PSoC4/BLE_hts.c **** /****************************************************************************** 
  85:.\Generated_Source\PSoC4/BLE_hts.c **** ##Function Name: CyBle_HtsInit
  86:.\Generated_Source\PSoC4/BLE_hts.c **** *******************************************************************************
  87:.\Generated_Source\PSoC4/BLE_hts.c **** 
  88:.\Generated_Source\PSoC4/BLE_hts.c **** Summary:
  89:.\Generated_Source\PSoC4/BLE_hts.c ****  This function initializes HTS Service.
  90:.\Generated_Source\PSoC4/BLE_hts.c **** 
  91:.\Generated_Source\PSoC4/BLE_hts.c **** Parameters:
  92:.\Generated_Source\PSoC4/BLE_hts.c ****  None
  93:.\Generated_Source\PSoC4/BLE_hts.c **** 
  94:.\Generated_Source\PSoC4/BLE_hts.c **** Return:
  95:.\Generated_Source\PSoC4/BLE_hts.c ****  None
  96:.\Generated_Source\PSoC4/BLE_hts.c **** 
  97:.\Generated_Source\PSoC4/BLE_hts.c **** ******************************************************************************/
  98:.\Generated_Source\PSoC4/BLE_hts.c **** void CyBle_HtsInit(void)
  99:.\Generated_Source\PSoC4/BLE_hts.c **** {
  53              		.loc 1 99 0
  54              		.cfi_startproc
  55 0000 80B5     		push	{r7, lr}
  56              		.cfi_def_cfa_offset 8
  57              		.cfi_offset 7, -8
  58              		.cfi_offset 14, -4
  59 0002 00AF     		add	r7, sp, #0
  60              		.cfi_def_cfa_register 7
 100:.\Generated_Source\PSoC4/BLE_hts.c **** 
 101:.\Generated_Source\PSoC4/BLE_hts.c **** #ifdef CYBLE_HTS_SERVER
 102:.\Generated_Source\PSoC4/BLE_hts.c **** 
 103:.\Generated_Source\PSoC4/BLE_hts.c ****     cyBle_htssReqHandle = CYBLE_GATT_INVALID_ATTR_HANDLE_VALUE;
  61              		.loc 1 103 0
  62 0004 024B     		ldr	r3, .L2
  63 0006 0022     		mov	r2, #0
  64 0008 1A80     		strh	r2, [r3]
 104:.\Generated_Source\PSoC4/BLE_hts.c ****     
 105:.\Generated_Source\PSoC4/BLE_hts.c **** #endif /* CYBLE_HTS_SERVER */
 106:.\Generated_Source\PSoC4/BLE_hts.c **** 
 107:.\Generated_Source\PSoC4/BLE_hts.c **** #ifdef CYBLE_HTS_CLIENT
ARM GAS  C:\Users\Zachary\AppData\Local\Temp\ccv8jLse.s 			page 4


 108:.\Generated_Source\PSoC4/BLE_hts.c **** 
 109:.\Generated_Source\PSoC4/BLE_hts.c ****     (void)memset(&cyBle_htsc, 0, sizeof(cyBle_htsc));
 110:.\Generated_Source\PSoC4/BLE_hts.c ****     cyBle_htscReqHandle = CYBLE_GATT_INVALID_ATTR_HANDLE_VALUE;
 111:.\Generated_Source\PSoC4/BLE_hts.c **** 
 112:.\Generated_Source\PSoC4/BLE_hts.c **** #endif /* CYBLE_HTS_CLIENT */
 113:.\Generated_Source\PSoC4/BLE_hts.c **** }
  65              		.loc 1 113 0
  66 000a BD46     		mov	sp, r7
  67              		@ sp needed
  68 000c 80BD     		pop	{r7, pc}
  69              	.L3:
  70 000e C046     		.align	2
  71              	.L2:
  72 0010 04000000 		.word	cyBle_htssReqHandle
  73              		.cfi_endproc
  74              	.LFE2:
  75              		.size	CyBle_HtsInit, .-CyBle_HtsInit
  76              		.section	.text.CyBle_HtsRegisterAttrCallback,"ax",%progbits
  77              		.align	2
  78              		.global	CyBle_HtsRegisterAttrCallback
  79              		.code	16
  80              		.thumb_func
  81              		.type	CyBle_HtsRegisterAttrCallback, %function
  82              	CyBle_HtsRegisterAttrCallback:
  83              	.LFB3:
 114:.\Generated_Source\PSoC4/BLE_hts.c **** 
 115:.\Generated_Source\PSoC4/BLE_hts.c **** 
 116:.\Generated_Source\PSoC4/BLE_hts.c **** /******************************************************************************
 117:.\Generated_Source\PSoC4/BLE_hts.c **** ##Function Name: CyBle_HtsRegisterAttrCallback
 118:.\Generated_Source\PSoC4/BLE_hts.c **** *******************************************************************************
 119:.\Generated_Source\PSoC4/BLE_hts.c **** 
 120:.\Generated_Source\PSoC4/BLE_hts.c **** Summary:
 121:.\Generated_Source\PSoC4/BLE_hts.c ****  Registers a callback function for service specific attribute operations.
 122:.\Generated_Source\PSoC4/BLE_hts.c **** 
 123:.\Generated_Source\PSoC4/BLE_hts.c **** Parameters:
 124:.\Generated_Source\PSoC4/BLE_hts.c ****  callbackFunc - An application layer event callback function to receive 
 125:.\Generated_Source\PSoC4/BLE_hts.c ****                     events from the BLE Component. The definition of 
 126:.\Generated_Source\PSoC4/BLE_hts.c ****                     CYBLE_CALLBACK_T for HTS Service is,
 127:.\Generated_Source\PSoC4/BLE_hts.c ****             
 128:.\Generated_Source\PSoC4/BLE_hts.c ****                     typedef void (* CYBLE_CALLBACK_T) (uint32 eventCode, 
 129:.\Generated_Source\PSoC4/BLE_hts.c ****                                                        void *eventParam)
 130:.\Generated_Source\PSoC4/BLE_hts.c **** 
 131:.\Generated_Source\PSoC4/BLE_hts.c ****                     * eventCode indicates the event that triggered this 
 132:.\Generated_Source\PSoC4/BLE_hts.c ****                       callback (e.g. CYBLE_EVT_HTSS_NOTIFICATION_ENABLED).
 133:.\Generated_Source\PSoC4/BLE_hts.c ****                     * eventParam contains the parameters corresponding to the 
 134:.\Generated_Source\PSoC4/BLE_hts.c ****                       current event. (e.g. pointer to CYBLE_HTS_CHAR_VALUE_T
 135:.\Generated_Source\PSoC4/BLE_hts.c ****                       structure that contains details of the characteristic 
 136:.\Generated_Source\PSoC4/BLE_hts.c ****                       for which notification enabled event was triggered).
 137:.\Generated_Source\PSoC4/BLE_hts.c **** 
 138:.\Generated_Source\PSoC4/BLE_hts.c **** Return:
 139:.\Generated_Source\PSoC4/BLE_hts.c ****  None
 140:.\Generated_Source\PSoC4/BLE_hts.c **** 
 141:.\Generated_Source\PSoC4/BLE_hts.c **** ******************************************************************************/
 142:.\Generated_Source\PSoC4/BLE_hts.c **** void CyBle_HtsRegisterAttrCallback(CYBLE_CALLBACK_T callbackFunc)
 143:.\Generated_Source\PSoC4/BLE_hts.c **** {
  84              		.loc 1 143 0
  85              		.cfi_startproc
ARM GAS  C:\Users\Zachary\AppData\Local\Temp\ccv8jLse.s 			page 5


  86 0000 80B5     		push	{r7, lr}
  87              		.cfi_def_cfa_offset 8
  88              		.cfi_offset 7, -8
  89              		.cfi_offset 14, -4
  90 0002 82B0     		sub	sp, sp, #8
  91              		.cfi_def_cfa_offset 16
  92 0004 00AF     		add	r7, sp, #0
  93              		.cfi_def_cfa_register 7
  94 0006 7860     		str	r0, [r7, #4]
 144:.\Generated_Source\PSoC4/BLE_hts.c ****     CyBle_HtsApplCallback = callbackFunc;
  95              		.loc 1 144 0
  96 0008 024B     		ldr	r3, .L5
  97 000a 7A68     		ldr	r2, [r7, #4]
  98 000c 1A60     		str	r2, [r3]
 145:.\Generated_Source\PSoC4/BLE_hts.c **** }
  99              		.loc 1 145 0
 100 000e BD46     		mov	sp, r7
 101 0010 02B0     		add	sp, sp, #8
 102              		@ sp needed
 103 0012 80BD     		pop	{r7, pc}
 104              	.L6:
 105              		.align	2
 106              	.L5:
 107 0014 00000000 		.word	CyBle_HtsApplCallback
 108              		.cfi_endproc
 109              	.LFE3:
 110              		.size	CyBle_HtsRegisterAttrCallback, .-CyBle_HtsRegisterAttrCallback
 111              		.section	.text.CyBle_HtssSetCharacteristicValue,"ax",%progbits
 112              		.align	2
 113              		.global	CyBle_HtssSetCharacteristicValue
 114              		.code	16
 115              		.thumb_func
 116              		.type	CyBle_HtssSetCharacteristicValue, %function
 117              	CyBle_HtssSetCharacteristicValue:
 118              	.LFB4:
 146:.\Generated_Source\PSoC4/BLE_hts.c **** 
 147:.\Generated_Source\PSoC4/BLE_hts.c **** #ifdef CYBLE_HTS_SERVER
 148:.\Generated_Source\PSoC4/BLE_hts.c **** 
 149:.\Generated_Source\PSoC4/BLE_hts.c **** 
 150:.\Generated_Source\PSoC4/BLE_hts.c **** /******************************************************************************
 151:.\Generated_Source\PSoC4/BLE_hts.c **** ##Function Name: CyBle_HtssSetCharacteristicValue
 152:.\Generated_Source\PSoC4/BLE_hts.c **** *******************************************************************************
 153:.\Generated_Source\PSoC4/BLE_hts.c **** 
 154:.\Generated_Source\PSoC4/BLE_hts.c **** Summary:
 155:.\Generated_Source\PSoC4/BLE_hts.c ****  Sets the characteristic value of the service in the local database.
 156:.\Generated_Source\PSoC4/BLE_hts.c **** 
 157:.\Generated_Source\PSoC4/BLE_hts.c **** Parameters:
 158:.\Generated_Source\PSoC4/BLE_hts.c ****  charIndex: The index of the service characteristic.
 159:.\Generated_Source\PSoC4/BLE_hts.c ****  attrSize: The size (in Bytes) of the characteristic value attribute.
 160:.\Generated_Source\PSoC4/BLE_hts.c ****  *attrValue: The pointer to the characteristic value data that should be
 161:.\Generated_Source\PSoC4/BLE_hts.c ****               stored in the GATT database.
 162:.\Generated_Source\PSoC4/BLE_hts.c **** 
 163:.\Generated_Source\PSoC4/BLE_hts.c **** Return:
 164:.\Generated_Source\PSoC4/BLE_hts.c ****  Return value is of type CYBLE_API_RESULT_T.
 165:.\Generated_Source\PSoC4/BLE_hts.c ****  * CYBLE_ERROR_OK - The request handled successfully
 166:.\Generated_Source\PSoC4/BLE_hts.c ****  * CYBLE_ERROR_INVALID_PARAMETER - Validation of the input parameter failed
 167:.\Generated_Source\PSoC4/BLE_hts.c **** 
ARM GAS  C:\Users\Zachary\AppData\Local\Temp\ccv8jLse.s 			page 6


 168:.\Generated_Source\PSoC4/BLE_hts.c **** ******************************************************************************/
 169:.\Generated_Source\PSoC4/BLE_hts.c **** CYBLE_API_RESULT_T CyBle_HtssSetCharacteristicValue(CYBLE_HTS_CHAR_INDEX_T charIndex,
 170:.\Generated_Source\PSoC4/BLE_hts.c ****     uint8 attrSize, uint8 *attrValue)
 171:.\Generated_Source\PSoC4/BLE_hts.c **** {
 119              		.loc 1 171 0
 120              		.cfi_startproc
 121 0000 80B5     		push	{r7, lr}
 122              		.cfi_def_cfa_offset 8
 123              		.cfi_offset 7, -8
 124              		.cfi_offset 14, -4
 125 0002 86B0     		sub	sp, sp, #24
 126              		.cfi_def_cfa_offset 32
 127 0004 00AF     		add	r7, sp, #0
 128              		.cfi_def_cfa_register 7
 129 0006 3A60     		str	r2, [r7]
 130 0008 FB1D     		add	r3, r7, #7
 131 000a 021C     		add	r2, r0, #0
 132 000c 1A70     		strb	r2, [r3]
 133 000e BB1D     		add	r3, r7, #6
 134 0010 0A1C     		add	r2, r1, #0
 135 0012 1A70     		strb	r2, [r3]
 172:.\Generated_Source\PSoC4/BLE_hts.c ****     CYBLE_API_RESULT_T apiResult = CYBLE_ERROR_OK;
 136              		.loc 1 172 0
 137 0014 3B1C     		mov	r3, r7
 138 0016 1633     		add	r3, r3, #22
 139 0018 0022     		mov	r2, #0
 140 001a 1A80     		strh	r2, [r3]
 173:.\Generated_Source\PSoC4/BLE_hts.c ****     CYBLE_GATT_HANDLE_VALUE_PAIR_T locHandleValuePair;
 174:.\Generated_Source\PSoC4/BLE_hts.c **** 
 175:.\Generated_Source\PSoC4/BLE_hts.c ****     if(charIndex >= CYBLE_HTS_CHAR_COUNT)
 141              		.loc 1 175 0
 142 001c FB1D     		add	r3, r7, #7
 143 001e 1B78     		ldrb	r3, [r3]
 144 0020 032B     		cmp	r3, #3
 145 0022 04D9     		bls	.L8
 176:.\Generated_Source\PSoC4/BLE_hts.c ****     {
 177:.\Generated_Source\PSoC4/BLE_hts.c ****         apiResult = CYBLE_ERROR_INVALID_PARAMETER;
 146              		.loc 1 177 0
 147 0024 3B1C     		mov	r3, r7
 148 0026 1633     		add	r3, r3, #22
 149 0028 0122     		mov	r2, #1
 150 002a 1A80     		strh	r2, [r3]
 151 002c 24E0     		b	.L9
 152              	.L8:
 178:.\Generated_Source\PSoC4/BLE_hts.c ****     }
 179:.\Generated_Source\PSoC4/BLE_hts.c ****     else
 180:.\Generated_Source\PSoC4/BLE_hts.c ****     {
 181:.\Generated_Source\PSoC4/BLE_hts.c ****         /* Store data in database */
 182:.\Generated_Source\PSoC4/BLE_hts.c ****         locHandleValuePair.attrHandle = cyBle_htss.charInfo[charIndex].charHandle;
 153              		.loc 1 182 0
 154 002e FB1D     		add	r3, r7, #7
 155 0030 1A78     		ldrb	r2, [r3]
 156 0032 1549     		ldr	r1, .L11
 157 0034 131C     		mov	r3, r2
 158 0036 5B00     		lsl	r3, r3, #1
 159 0038 9B18     		add	r3, r3, r2
 160 003a 5B00     		lsl	r3, r3, #1
ARM GAS  C:\Users\Zachary\AppData\Local\Temp\ccv8jLse.s 			page 7


 161 003c CB18     		add	r3, r1, r3
 162 003e 5A88     		ldrh	r2, [r3, #2]
 163 0040 3B1C     		mov	r3, r7
 164 0042 0833     		add	r3, r3, #8
 165 0044 1A81     		strh	r2, [r3, #8]
 183:.\Generated_Source\PSoC4/BLE_hts.c ****         locHandleValuePair.value.len = attrSize;
 166              		.loc 1 183 0
 167 0046 BB1D     		add	r3, r7, #6
 168 0048 1B78     		ldrb	r3, [r3]
 169 004a 9AB2     		uxth	r2, r3
 170 004c 3B1C     		mov	r3, r7
 171 004e 0833     		add	r3, r3, #8
 172 0050 9A80     		strh	r2, [r3, #4]
 184:.\Generated_Source\PSoC4/BLE_hts.c ****         locHandleValuePair.value.val = attrValue;
 173              		.loc 1 184 0
 174 0052 3B1C     		mov	r3, r7
 175 0054 0833     		add	r3, r3, #8
 176 0056 3A68     		ldr	r2, [r7]
 177 0058 1A60     		str	r2, [r3]
 185:.\Generated_Source\PSoC4/BLE_hts.c ****         if(CYBLE_GATT_ERR_NONE !=
 186:.\Generated_Source\PSoC4/BLE_hts.c ****             CyBle_GattsWriteAttributeValue(&locHandleValuePair, 0u, NULL, CYBLE_GATT_DB_LOCALLY_INI
 178              		.loc 1 186 0
 179 005a 3B1C     		mov	r3, r7
 180 005c 0833     		add	r3, r3, #8
 181 005e 181C     		mov	r0, r3
 182 0060 0021     		mov	r1, #0
 183 0062 0022     		mov	r2, #0
 184 0064 0023     		mov	r3, #0
 185 0066 FFF7FEFF 		bl	CyBle_GattsWriteAttributeValue
 186 006a 031C     		mov	r3, r0
 185:.\Generated_Source\PSoC4/BLE_hts.c ****         if(CYBLE_GATT_ERR_NONE !=
 187              		.loc 1 185 0
 188 006c 002B     		cmp	r3, #0
 189 006e 03D0     		beq	.L9
 187:.\Generated_Source\PSoC4/BLE_hts.c ****         {
 188:.\Generated_Source\PSoC4/BLE_hts.c ****             apiResult = CYBLE_ERROR_INVALID_PARAMETER;
 190              		.loc 1 188 0
 191 0070 3B1C     		mov	r3, r7
 192 0072 1633     		add	r3, r3, #22
 193 0074 0122     		mov	r2, #1
 194 0076 1A80     		strh	r2, [r3]
 195              	.L9:
 189:.\Generated_Source\PSoC4/BLE_hts.c ****         }
 190:.\Generated_Source\PSoC4/BLE_hts.c ****     }
 191:.\Generated_Source\PSoC4/BLE_hts.c ****     return (apiResult);
 196              		.loc 1 191 0
 197 0078 3B1C     		mov	r3, r7
 198 007a 1633     		add	r3, r3, #22
 199 007c 1B88     		ldrh	r3, [r3]
 192:.\Generated_Source\PSoC4/BLE_hts.c **** }
 200              		.loc 1 192 0
 201 007e 181C     		mov	r0, r3
 202 0080 BD46     		mov	sp, r7
 203 0082 06B0     		add	sp, sp, #24
 204              		@ sp needed
 205 0084 80BD     		pop	{r7, pc}
 206              	.L12:
ARM GAS  C:\Users\Zachary\AppData\Local\Temp\ccv8jLse.s 			page 8


 207 0086 C046     		.align	2
 208              	.L11:
 209 0088 00000000 		.word	cyBle_htss
 210              		.cfi_endproc
 211              	.LFE4:
 212              		.size	CyBle_HtssSetCharacteristicValue, .-CyBle_HtssSetCharacteristicValue
 213              		.section	.text.CyBle_HtssGetCharacteristicValue,"ax",%progbits
 214              		.align	2
 215              		.global	CyBle_HtssGetCharacteristicValue
 216              		.code	16
 217              		.thumb_func
 218              		.type	CyBle_HtssGetCharacteristicValue, %function
 219              	CyBle_HtssGetCharacteristicValue:
 220              	.LFB5:
 193:.\Generated_Source\PSoC4/BLE_hts.c **** 
 194:.\Generated_Source\PSoC4/BLE_hts.c **** 
 195:.\Generated_Source\PSoC4/BLE_hts.c **** /******************************************************************************
 196:.\Generated_Source\PSoC4/BLE_hts.c **** ##Function Name: CyBle_HtssGetCharacteristicValue
 197:.\Generated_Source\PSoC4/BLE_hts.c **** *******************************************************************************
 198:.\Generated_Source\PSoC4/BLE_hts.c **** 
 199:.\Generated_Source\PSoC4/BLE_hts.c **** Summary:
 200:.\Generated_Source\PSoC4/BLE_hts.c ****  Gets the characteristic value of the service, which is a value identified by
 201:.\Generated_Source\PSoC4/BLE_hts.c ****  charIndex.
 202:.\Generated_Source\PSoC4/BLE_hts.c **** 
 203:.\Generated_Source\PSoC4/BLE_hts.c **** Parameters:
 204:.\Generated_Source\PSoC4/BLE_hts.c ****  charIndex: The index of the service characteristic.
 205:.\Generated_Source\PSoC4/BLE_hts.c ****  attrSize: The size of the characteristic value attribute.
 206:.\Generated_Source\PSoC4/BLE_hts.c ****  *attrValue: The pointer to the location where characteristic value data
 207:.\Generated_Source\PSoC4/BLE_hts.c ****               should be stored.
 208:.\Generated_Source\PSoC4/BLE_hts.c **** 
 209:.\Generated_Source\PSoC4/BLE_hts.c **** Return:
 210:.\Generated_Source\PSoC4/BLE_hts.c ****  Return value is of type CYBLE_API_RESULT_T.
 211:.\Generated_Source\PSoC4/BLE_hts.c ****  * CYBLE_ERROR_OK - The request handled successfully
 212:.\Generated_Source\PSoC4/BLE_hts.c ****  * CYBLE_ERROR_INVALID_PARAMETER - Validation of the input parameter failed
 213:.\Generated_Source\PSoC4/BLE_hts.c **** 
 214:.\Generated_Source\PSoC4/BLE_hts.c **** ******************************************************************************/
 215:.\Generated_Source\PSoC4/BLE_hts.c **** CYBLE_API_RESULT_T CyBle_HtssGetCharacteristicValue(CYBLE_HTS_CHAR_INDEX_T charIndex,
 216:.\Generated_Source\PSoC4/BLE_hts.c ****     uint8 attrSize, uint8 *attrValue)
 217:.\Generated_Source\PSoC4/BLE_hts.c **** {
 221              		.loc 1 217 0
 222              		.cfi_startproc
 223 0000 80B5     		push	{r7, lr}
 224              		.cfi_def_cfa_offset 8
 225              		.cfi_offset 7, -8
 226              		.cfi_offset 14, -4
 227 0002 86B0     		sub	sp, sp, #24
 228              		.cfi_def_cfa_offset 32
 229 0004 00AF     		add	r7, sp, #0
 230              		.cfi_def_cfa_register 7
 231 0006 3A60     		str	r2, [r7]
 232 0008 FB1D     		add	r3, r7, #7
 233 000a 021C     		add	r2, r0, #0
 234 000c 1A70     		strb	r2, [r3]
 235 000e BB1D     		add	r3, r7, #6
 236 0010 0A1C     		add	r2, r1, #0
 237 0012 1A70     		strb	r2, [r3]
 218:.\Generated_Source\PSoC4/BLE_hts.c ****     CYBLE_API_RESULT_T apiResult = CYBLE_ERROR_OK;
ARM GAS  C:\Users\Zachary\AppData\Local\Temp\ccv8jLse.s 			page 9


 238              		.loc 1 218 0
 239 0014 3B1C     		mov	r3, r7
 240 0016 1633     		add	r3, r3, #22
 241 0018 0022     		mov	r2, #0
 242 001a 1A80     		strh	r2, [r3]
 219:.\Generated_Source\PSoC4/BLE_hts.c ****     CYBLE_GATT_HANDLE_VALUE_PAIR_T locHandleValuePair;
 220:.\Generated_Source\PSoC4/BLE_hts.c **** 
 221:.\Generated_Source\PSoC4/BLE_hts.c ****     if(charIndex >= CYBLE_HTS_CHAR_COUNT)
 243              		.loc 1 221 0
 244 001c FB1D     		add	r3, r7, #7
 245 001e 1B78     		ldrb	r3, [r3]
 246 0020 032B     		cmp	r3, #3
 247 0022 04D9     		bls	.L14
 222:.\Generated_Source\PSoC4/BLE_hts.c ****     {
 223:.\Generated_Source\PSoC4/BLE_hts.c ****         apiResult = CYBLE_ERROR_INVALID_PARAMETER;
 248              		.loc 1 223 0
 249 0024 3B1C     		mov	r3, r7
 250 0026 1633     		add	r3, r3, #22
 251 0028 0122     		mov	r2, #1
 252 002a 1A80     		strh	r2, [r3]
 253 002c 23E0     		b	.L15
 254              	.L14:
 224:.\Generated_Source\PSoC4/BLE_hts.c ****     }
 225:.\Generated_Source\PSoC4/BLE_hts.c ****     else
 226:.\Generated_Source\PSoC4/BLE_hts.c ****     {
 227:.\Generated_Source\PSoC4/BLE_hts.c ****         /* Read characteristic value from database */
 228:.\Generated_Source\PSoC4/BLE_hts.c ****         locHandleValuePair.attrHandle = cyBle_htss.charInfo[charIndex].charHandle;
 255              		.loc 1 228 0
 256 002e FB1D     		add	r3, r7, #7
 257 0030 1A78     		ldrb	r2, [r3]
 258 0032 1449     		ldr	r1, .L17
 259 0034 131C     		mov	r3, r2
 260 0036 5B00     		lsl	r3, r3, #1
 261 0038 9B18     		add	r3, r3, r2
 262 003a 5B00     		lsl	r3, r3, #1
 263 003c CB18     		add	r3, r1, r3
 264 003e 5A88     		ldrh	r2, [r3, #2]
 265 0040 3B1C     		mov	r3, r7
 266 0042 0833     		add	r3, r3, #8
 267 0044 1A81     		strh	r2, [r3, #8]
 229:.\Generated_Source\PSoC4/BLE_hts.c ****         locHandleValuePair.value.len = attrSize;
 268              		.loc 1 229 0
 269 0046 BB1D     		add	r3, r7, #6
 270 0048 1B78     		ldrb	r3, [r3]
 271 004a 9AB2     		uxth	r2, r3
 272 004c 3B1C     		mov	r3, r7
 273 004e 0833     		add	r3, r3, #8
 274 0050 9A80     		strh	r2, [r3, #4]
 230:.\Generated_Source\PSoC4/BLE_hts.c ****         locHandleValuePair.value.val = attrValue;
 275              		.loc 1 230 0
 276 0052 3B1C     		mov	r3, r7
 277 0054 0833     		add	r3, r3, #8
 278 0056 3A68     		ldr	r2, [r7]
 279 0058 1A60     		str	r2, [r3]
 231:.\Generated_Source\PSoC4/BLE_hts.c ****         if(CYBLE_GATT_ERR_NONE !=
 232:.\Generated_Source\PSoC4/BLE_hts.c ****             CyBle_GattsReadAttributeValue(&locHandleValuePair, NULL, CYBLE_GATT_DB_LOCALLY_INITIATE
 280              		.loc 1 232 0
ARM GAS  C:\Users\Zachary\AppData\Local\Temp\ccv8jLse.s 			page 10


 281 005a 3B1C     		mov	r3, r7
 282 005c 0833     		add	r3, r3, #8
 283 005e 181C     		mov	r0, r3
 284 0060 0021     		mov	r1, #0
 285 0062 0022     		mov	r2, #0
 286 0064 FFF7FEFF 		bl	CyBle_GattsReadAttributeValue
 287 0068 031C     		mov	r3, r0
 231:.\Generated_Source\PSoC4/BLE_hts.c ****         if(CYBLE_GATT_ERR_NONE !=
 288              		.loc 1 231 0
 289 006a 002B     		cmp	r3, #0
 290 006c 03D0     		beq	.L15
 233:.\Generated_Source\PSoC4/BLE_hts.c ****         {
 234:.\Generated_Source\PSoC4/BLE_hts.c ****             apiResult = CYBLE_ERROR_INVALID_PARAMETER;
 291              		.loc 1 234 0
 292 006e 3B1C     		mov	r3, r7
 293 0070 1633     		add	r3, r3, #22
 294 0072 0122     		mov	r2, #1
 295 0074 1A80     		strh	r2, [r3]
 296              	.L15:
 235:.\Generated_Source\PSoC4/BLE_hts.c ****         }
 236:.\Generated_Source\PSoC4/BLE_hts.c ****     }
 237:.\Generated_Source\PSoC4/BLE_hts.c ****     return (apiResult);
 297              		.loc 1 237 0
 298 0076 3B1C     		mov	r3, r7
 299 0078 1633     		add	r3, r3, #22
 300 007a 1B88     		ldrh	r3, [r3]
 238:.\Generated_Source\PSoC4/BLE_hts.c **** }
 301              		.loc 1 238 0
 302 007c 181C     		mov	r0, r3
 303 007e BD46     		mov	sp, r7
 304 0080 06B0     		add	sp, sp, #24
 305              		@ sp needed
 306 0082 80BD     		pop	{r7, pc}
 307              	.L18:
 308              		.align	2
 309              	.L17:
 310 0084 00000000 		.word	cyBle_htss
 311              		.cfi_endproc
 312              	.LFE5:
 313              		.size	CyBle_HtssGetCharacteristicValue, .-CyBle_HtssGetCharacteristicValue
 314              		.section	.text.CyBle_HtssSetCharacteristicDescriptor,"ax",%progbits
 315              		.align	2
 316              		.global	CyBle_HtssSetCharacteristicDescriptor
 317              		.code	16
 318              		.thumb_func
 319              		.type	CyBle_HtssSetCharacteristicDescriptor, %function
 320              	CyBle_HtssSetCharacteristicDescriptor:
 321              	.LFB6:
 239:.\Generated_Source\PSoC4/BLE_hts.c **** 
 240:.\Generated_Source\PSoC4/BLE_hts.c **** 
 241:.\Generated_Source\PSoC4/BLE_hts.c **** /******************************************************************************
 242:.\Generated_Source\PSoC4/BLE_hts.c **** ##Function Name: CyBle_HtssSetCharacteristicDescriptor
 243:.\Generated_Source\PSoC4/BLE_hts.c **** *******************************************************************************
 244:.\Generated_Source\PSoC4/BLE_hts.c **** 
 245:.\Generated_Source\PSoC4/BLE_hts.c **** Summary:
 246:.\Generated_Source\PSoC4/BLE_hts.c ****  Sets the characteristic descriptor of the specified characteristic.
 247:.\Generated_Source\PSoC4/BLE_hts.c **** 
ARM GAS  C:\Users\Zachary\AppData\Local\Temp\ccv8jLse.s 			page 11


 248:.\Generated_Source\PSoC4/BLE_hts.c **** Parameters:
 249:.\Generated_Source\PSoC4/BLE_hts.c ****  charIndex:  The index of the service characteristic.
 250:.\Generated_Source\PSoC4/BLE_hts.c ****  descrIndex: The index of the service characteristic descriptor.
 251:.\Generated_Source\PSoC4/BLE_hts.c ****  attrSize:   The size of the characteristic descriptor attribute.
 252:.\Generated_Source\PSoC4/BLE_hts.c ****  *attrValue: The pointer to the descriptor value data that should 
 253:.\Generated_Source\PSoC4/BLE_hts.c ****              be stored in the GATT database. 
 254:.\Generated_Source\PSoC4/BLE_hts.c **** 
 255:.\Generated_Source\PSoC4/BLE_hts.c **** Return:
 256:.\Generated_Source\PSoC4/BLE_hts.c ****  Return value is of type CYBLE_API_RESULT_T.
 257:.\Generated_Source\PSoC4/BLE_hts.c ****  * CYBLE_ERROR_OK - The request handled successfully
 258:.\Generated_Source\PSoC4/BLE_hts.c ****  * CYBLE_ERROR_INVALID_PARAMETER - Validation of the input parameter failed
 259:.\Generated_Source\PSoC4/BLE_hts.c **** 
 260:.\Generated_Source\PSoC4/BLE_hts.c **** ******************************************************************************/
 261:.\Generated_Source\PSoC4/BLE_hts.c **** CYBLE_API_RESULT_T CyBle_HtssSetCharacteristicDescriptor(CYBLE_HTS_CHAR_INDEX_T charIndex,
 262:.\Generated_Source\PSoC4/BLE_hts.c ****     CYBLE_HTS_DESCR_INDEX_T descrIndex, uint8 attrSize, uint8 *attrValue)
 263:.\Generated_Source\PSoC4/BLE_hts.c **** {
 322              		.loc 1 263 0
 323              		.cfi_startproc
 324 0000 80B5     		push	{r7, lr}
 325              		.cfi_def_cfa_offset 8
 326              		.cfi_offset 7, -8
 327              		.cfi_offset 14, -4
 328 0002 86B0     		sub	sp, sp, #24
 329              		.cfi_def_cfa_offset 32
 330 0004 00AF     		add	r7, sp, #0
 331              		.cfi_def_cfa_register 7
 332 0006 3B60     		str	r3, [r7]
 333 0008 FB1D     		add	r3, r7, #7
 334 000a 1870     		strb	r0, [r3]
 335 000c BB1D     		add	r3, r7, #6
 336 000e 1970     		strb	r1, [r3]
 337 0010 7B1D     		add	r3, r7, #5
 338 0012 1A70     		strb	r2, [r3]
 264:.\Generated_Source\PSoC4/BLE_hts.c ****     CYBLE_API_RESULT_T apiResult = CYBLE_ERROR_OK;
 339              		.loc 1 264 0
 340 0014 3B1C     		mov	r3, r7
 341 0016 1633     		add	r3, r3, #22
 342 0018 0022     		mov	r2, #0
 343 001a 1A80     		strh	r2, [r3]
 265:.\Generated_Source\PSoC4/BLE_hts.c ****     CYBLE_GATT_HANDLE_VALUE_PAIR_T locHandleValuePair;
 266:.\Generated_Source\PSoC4/BLE_hts.c **** 
 267:.\Generated_Source\PSoC4/BLE_hts.c ****     if((charIndex >= CYBLE_HTS_CHAR_COUNT) || (descrIndex >= CYBLE_HTS_DESCR_COUNT))
 344              		.loc 1 267 0
 345 001c FB1D     		add	r3, r7, #7
 346 001e 1B78     		ldrb	r3, [r3]
 347 0020 032B     		cmp	r3, #3
 348 0022 03D8     		bhi	.L20
 349              		.loc 1 267 0 is_stmt 0 discriminator 1
 350 0024 BB1D     		add	r3, r7, #6
 351 0026 1B78     		ldrb	r3, [r3]
 352 0028 012B     		cmp	r3, #1
 353 002a 04D9     		bls	.L21
 354              	.L20:
 268:.\Generated_Source\PSoC4/BLE_hts.c ****     {
 269:.\Generated_Source\PSoC4/BLE_hts.c ****         apiResult = CYBLE_ERROR_INVALID_PARAMETER;
 355              		.loc 1 269 0 is_stmt 1
 356 002c 3B1C     		mov	r3, r7
ARM GAS  C:\Users\Zachary\AppData\Local\Temp\ccv8jLse.s 			page 12


 357 002e 1633     		add	r3, r3, #22
 358 0030 0122     		mov	r2, #1
 359 0032 1A80     		strh	r2, [r3]
 360 0034 31E0     		b	.L22
 361              	.L21:
 270:.\Generated_Source\PSoC4/BLE_hts.c ****     }
 271:.\Generated_Source\PSoC4/BLE_hts.c ****     else
 272:.\Generated_Source\PSoC4/BLE_hts.c ****     {
 273:.\Generated_Source\PSoC4/BLE_hts.c ****         locHandleValuePair.attrHandle = cyBle_htss.charInfo[charIndex].descrHandle[descrIndex];
 362              		.loc 1 273 0
 363 0036 FB1D     		add	r3, r7, #7
 364 0038 1A78     		ldrb	r2, [r3]
 365 003a BB1D     		add	r3, r7, #6
 366 003c 1878     		ldrb	r0, [r3]
 367 003e 1A49     		ldr	r1, .L26
 368 0040 131C     		mov	r3, r2
 369 0042 5B00     		lsl	r3, r3, #1
 370 0044 9B18     		add	r3, r3, r2
 371 0046 1B18     		add	r3, r3, r0
 372 0048 5B00     		lsl	r3, r3, #1
 373 004a CB18     		add	r3, r1, r3
 374 004c 9A88     		ldrh	r2, [r3, #4]
 375 004e 3B1C     		mov	r3, r7
 376 0050 0833     		add	r3, r3, #8
 377 0052 1A81     		strh	r2, [r3, #8]
 274:.\Generated_Source\PSoC4/BLE_hts.c ****         if(locHandleValuePair.attrHandle != CYBLE_GATT_INVALID_ATTR_HANDLE_VALUE)
 378              		.loc 1 274 0
 379 0054 3B1C     		mov	r3, r7
 380 0056 0833     		add	r3, r3, #8
 381 0058 1B89     		ldrh	r3, [r3, #8]
 382 005a 002B     		cmp	r3, #0
 383 005c 19D0     		beq	.L23
 275:.\Generated_Source\PSoC4/BLE_hts.c ****         {
 276:.\Generated_Source\PSoC4/BLE_hts.c ****             locHandleValuePair.value.len = attrSize;
 384              		.loc 1 276 0
 385 005e 7B1D     		add	r3, r7, #5
 386 0060 1B78     		ldrb	r3, [r3]
 387 0062 9AB2     		uxth	r2, r3
 388 0064 3B1C     		mov	r3, r7
 389 0066 0833     		add	r3, r3, #8
 390 0068 9A80     		strh	r2, [r3, #4]
 277:.\Generated_Source\PSoC4/BLE_hts.c ****             locHandleValuePair.value.val = attrValue;
 391              		.loc 1 277 0
 392 006a 3B1C     		mov	r3, r7
 393 006c 0833     		add	r3, r3, #8
 394 006e 3A68     		ldr	r2, [r7]
 395 0070 1A60     		str	r2, [r3]
 278:.\Generated_Source\PSoC4/BLE_hts.c ****             if(CYBLE_GATT_ERR_NONE !=
 279:.\Generated_Source\PSoC4/BLE_hts.c ****                 CyBle_GattsWriteAttributeValue(&locHandleValuePair, 0u, NULL, CYBLE_GATT_DB_LOCALLY
 396              		.loc 1 279 0
 397 0072 3B1C     		mov	r3, r7
 398 0074 0833     		add	r3, r3, #8
 399 0076 181C     		mov	r0, r3
 400 0078 0021     		mov	r1, #0
 401 007a 0022     		mov	r2, #0
 402 007c 0023     		mov	r3, #0
 403 007e FFF7FEFF 		bl	CyBle_GattsWriteAttributeValue
ARM GAS  C:\Users\Zachary\AppData\Local\Temp\ccv8jLse.s 			page 13


 404 0082 031C     		mov	r3, r0
 278:.\Generated_Source\PSoC4/BLE_hts.c ****             if(CYBLE_GATT_ERR_NONE !=
 405              		.loc 1 278 0
 406 0084 002B     		cmp	r3, #0
 407 0086 08D0     		beq	.L22
 280:.\Generated_Source\PSoC4/BLE_hts.c ****             {
 281:.\Generated_Source\PSoC4/BLE_hts.c ****                 apiResult = CYBLE_ERROR_INVALID_PARAMETER;
 408              		.loc 1 281 0
 409 0088 3B1C     		mov	r3, r7
 410 008a 1633     		add	r3, r3, #22
 411 008c 0122     		mov	r2, #1
 412 008e 1A80     		strh	r2, [r3]
 413 0090 03E0     		b	.L22
 414              	.L23:
 282:.\Generated_Source\PSoC4/BLE_hts.c ****             }
 283:.\Generated_Source\PSoC4/BLE_hts.c ****         }
 284:.\Generated_Source\PSoC4/BLE_hts.c ****         else
 285:.\Generated_Source\PSoC4/BLE_hts.c ****         {
 286:.\Generated_Source\PSoC4/BLE_hts.c ****             apiResult = CYBLE_ERROR_INVALID_PARAMETER;
 415              		.loc 1 286 0
 416 0092 3B1C     		mov	r3, r7
 417 0094 1633     		add	r3, r3, #22
 418 0096 0122     		mov	r2, #1
 419 0098 1A80     		strh	r2, [r3]
 420              	.L22:
 287:.\Generated_Source\PSoC4/BLE_hts.c ****         }
 288:.\Generated_Source\PSoC4/BLE_hts.c ****     }
 289:.\Generated_Source\PSoC4/BLE_hts.c ****     return (apiResult);
 421              		.loc 1 289 0
 422 009a 3B1C     		mov	r3, r7
 423 009c 1633     		add	r3, r3, #22
 424 009e 1B88     		ldrh	r3, [r3]
 290:.\Generated_Source\PSoC4/BLE_hts.c **** }
 425              		.loc 1 290 0
 426 00a0 181C     		mov	r0, r3
 427 00a2 BD46     		mov	sp, r7
 428 00a4 06B0     		add	sp, sp, #24
 429              		@ sp needed
 430 00a6 80BD     		pop	{r7, pc}
 431              	.L27:
 432              		.align	2
 433              	.L26:
 434 00a8 00000000 		.word	cyBle_htss
 435              		.cfi_endproc
 436              	.LFE6:
 437              		.size	CyBle_HtssSetCharacteristicDescriptor, .-CyBle_HtssSetCharacteristicDescriptor
 438              		.section	.text.CyBle_HtssGetCharacteristicDescriptor,"ax",%progbits
 439              		.align	2
 440              		.global	CyBle_HtssGetCharacteristicDescriptor
 441              		.code	16
 442              		.thumb_func
 443              		.type	CyBle_HtssGetCharacteristicDescriptor, %function
 444              	CyBle_HtssGetCharacteristicDescriptor:
 445              	.LFB7:
 291:.\Generated_Source\PSoC4/BLE_hts.c **** 
 292:.\Generated_Source\PSoC4/BLE_hts.c **** 
 293:.\Generated_Source\PSoC4/BLE_hts.c **** /******************************************************************************
ARM GAS  C:\Users\Zachary\AppData\Local\Temp\ccv8jLse.s 			page 14


 294:.\Generated_Source\PSoC4/BLE_hts.c **** ##Function Name: CyBle_HtssGetCharacteristicDescriptor
 295:.\Generated_Source\PSoC4/BLE_hts.c **** *******************************************************************************
 296:.\Generated_Source\PSoC4/BLE_hts.c **** 
 297:.\Generated_Source\PSoC4/BLE_hts.c **** Summary:
 298:.\Generated_Source\PSoC4/BLE_hts.c ****  Gets the characteristic descriptor of the specified characteristic.
 299:.\Generated_Source\PSoC4/BLE_hts.c **** 
 300:.\Generated_Source\PSoC4/BLE_hts.c **** Parameters:
 301:.\Generated_Source\PSoC4/BLE_hts.c ****  charIndex: The index of the service characteristic.
 302:.\Generated_Source\PSoC4/BLE_hts.c ****  descrIndex: The index of the service characteristic descriptor.
 303:.\Generated_Source\PSoC4/BLE_hts.c ****  attrSize: The size of the characteristic descriptor attribute.
 304:.\Generated_Source\PSoC4/BLE_hts.c ****  *attrValue: The pointer to the location where characteristic descriptor
 305:.\Generated_Source\PSoC4/BLE_hts.c ****               value data should be stored.
 306:.\Generated_Source\PSoC4/BLE_hts.c **** 
 307:.\Generated_Source\PSoC4/BLE_hts.c **** Return:
 308:.\Generated_Source\PSoC4/BLE_hts.c ****  Return value is of type CYBLE_API_RESULT_T.
 309:.\Generated_Source\PSoC4/BLE_hts.c ****  * CYBLE_ERROR_OK - The request handled successfully
 310:.\Generated_Source\PSoC4/BLE_hts.c ****  * CYBLE_ERROR_INVALID_PARAMETER - Validation of the input parameter failed
 311:.\Generated_Source\PSoC4/BLE_hts.c **** 
 312:.\Generated_Source\PSoC4/BLE_hts.c **** ******************************************************************************/
 313:.\Generated_Source\PSoC4/BLE_hts.c **** CYBLE_API_RESULT_T CyBle_HtssGetCharacteristicDescriptor(CYBLE_HTS_CHAR_INDEX_T charIndex,
 314:.\Generated_Source\PSoC4/BLE_hts.c ****     CYBLE_HTS_DESCR_INDEX_T descrIndex, uint8 attrSize, uint8 *attrValue)
 315:.\Generated_Source\PSoC4/BLE_hts.c **** {
 446              		.loc 1 315 0
 447              		.cfi_startproc
 448 0000 80B5     		push	{r7, lr}
 449              		.cfi_def_cfa_offset 8
 450              		.cfi_offset 7, -8
 451              		.cfi_offset 14, -4
 452 0002 86B0     		sub	sp, sp, #24
 453              		.cfi_def_cfa_offset 32
 454 0004 00AF     		add	r7, sp, #0
 455              		.cfi_def_cfa_register 7
 456 0006 3B60     		str	r3, [r7]
 457 0008 FB1D     		add	r3, r7, #7
 458 000a 1870     		strb	r0, [r3]
 459 000c BB1D     		add	r3, r7, #6
 460 000e 1970     		strb	r1, [r3]
 461 0010 7B1D     		add	r3, r7, #5
 462 0012 1A70     		strb	r2, [r3]
 316:.\Generated_Source\PSoC4/BLE_hts.c ****     CYBLE_API_RESULT_T apiResult = CYBLE_ERROR_OK;
 463              		.loc 1 316 0
 464 0014 3B1C     		mov	r3, r7
 465 0016 1633     		add	r3, r3, #22
 466 0018 0022     		mov	r2, #0
 467 001a 1A80     		strh	r2, [r3]
 317:.\Generated_Source\PSoC4/BLE_hts.c ****     CYBLE_GATT_HANDLE_VALUE_PAIR_T locHandleValuePair;
 318:.\Generated_Source\PSoC4/BLE_hts.c **** 
 319:.\Generated_Source\PSoC4/BLE_hts.c ****     if((charIndex >= CYBLE_HTS_CHAR_COUNT) || (descrIndex >= CYBLE_HTS_DESCR_COUNT))
 468              		.loc 1 319 0
 469 001c FB1D     		add	r3, r7, #7
 470 001e 1B78     		ldrb	r3, [r3]
 471 0020 032B     		cmp	r3, #3
 472 0022 03D8     		bhi	.L29
 473              		.loc 1 319 0 is_stmt 0 discriminator 1
 474 0024 BB1D     		add	r3, r7, #6
 475 0026 1B78     		ldrb	r3, [r3]
 476 0028 012B     		cmp	r3, #1
ARM GAS  C:\Users\Zachary\AppData\Local\Temp\ccv8jLse.s 			page 15


 477 002a 04D9     		bls	.L30
 478              	.L29:
 320:.\Generated_Source\PSoC4/BLE_hts.c ****     {
 321:.\Generated_Source\PSoC4/BLE_hts.c ****         apiResult = CYBLE_ERROR_INVALID_PARAMETER;
 479              		.loc 1 321 0 is_stmt 1
 480 002c 3B1C     		mov	r3, r7
 481 002e 1633     		add	r3, r3, #22
 482 0030 0122     		mov	r2, #1
 483 0032 1A80     		strh	r2, [r3]
 484 0034 30E0     		b	.L31
 485              	.L30:
 322:.\Generated_Source\PSoC4/BLE_hts.c ****     }
 323:.\Generated_Source\PSoC4/BLE_hts.c ****     else
 324:.\Generated_Source\PSoC4/BLE_hts.c ****     {
 325:.\Generated_Source\PSoC4/BLE_hts.c ****         locHandleValuePair.attrHandle = cyBle_htss.charInfo[charIndex].descrHandle[descrIndex];
 486              		.loc 1 325 0
 487 0036 FB1D     		add	r3, r7, #7
 488 0038 1A78     		ldrb	r2, [r3]
 489 003a BB1D     		add	r3, r7, #6
 490 003c 1878     		ldrb	r0, [r3]
 491 003e 1A49     		ldr	r1, .L35
 492 0040 131C     		mov	r3, r2
 493 0042 5B00     		lsl	r3, r3, #1
 494 0044 9B18     		add	r3, r3, r2
 495 0046 1B18     		add	r3, r3, r0
 496 0048 5B00     		lsl	r3, r3, #1
 497 004a CB18     		add	r3, r1, r3
 498 004c 9A88     		ldrh	r2, [r3, #4]
 499 004e 3B1C     		mov	r3, r7
 500 0050 0833     		add	r3, r3, #8
 501 0052 1A81     		strh	r2, [r3, #8]
 326:.\Generated_Source\PSoC4/BLE_hts.c ****         if(locHandleValuePair.attrHandle != CYBLE_GATT_INVALID_ATTR_HANDLE_VALUE)
 502              		.loc 1 326 0
 503 0054 3B1C     		mov	r3, r7
 504 0056 0833     		add	r3, r3, #8
 505 0058 1B89     		ldrh	r3, [r3, #8]
 506 005a 002B     		cmp	r3, #0
 507 005c 18D0     		beq	.L32
 327:.\Generated_Source\PSoC4/BLE_hts.c ****         {
 328:.\Generated_Source\PSoC4/BLE_hts.c ****             locHandleValuePair.value.len = attrSize;
 508              		.loc 1 328 0
 509 005e 7B1D     		add	r3, r7, #5
 510 0060 1B78     		ldrb	r3, [r3]
 511 0062 9AB2     		uxth	r2, r3
 512 0064 3B1C     		mov	r3, r7
 513 0066 0833     		add	r3, r3, #8
 514 0068 9A80     		strh	r2, [r3, #4]
 329:.\Generated_Source\PSoC4/BLE_hts.c ****             locHandleValuePair.value.val = attrValue;
 515              		.loc 1 329 0
 516 006a 3B1C     		mov	r3, r7
 517 006c 0833     		add	r3, r3, #8
 518 006e 3A68     		ldr	r2, [r7]
 519 0070 1A60     		str	r2, [r3]
 330:.\Generated_Source\PSoC4/BLE_hts.c ****             if(CYBLE_GATT_ERR_NONE !=
 331:.\Generated_Source\PSoC4/BLE_hts.c ****                 CyBle_GattsReadAttributeValue(&locHandleValuePair, NULL, CYBLE_GATT_DB_LOCALLY_INIT
 520              		.loc 1 331 0
 521 0072 3B1C     		mov	r3, r7
ARM GAS  C:\Users\Zachary\AppData\Local\Temp\ccv8jLse.s 			page 16


 522 0074 0833     		add	r3, r3, #8
 523 0076 181C     		mov	r0, r3
 524 0078 0021     		mov	r1, #0
 525 007a 0022     		mov	r2, #0
 526 007c FFF7FEFF 		bl	CyBle_GattsReadAttributeValue
 527 0080 031C     		mov	r3, r0
 330:.\Generated_Source\PSoC4/BLE_hts.c ****             if(CYBLE_GATT_ERR_NONE !=
 528              		.loc 1 330 0
 529 0082 002B     		cmp	r3, #0
 530 0084 08D0     		beq	.L31
 332:.\Generated_Source\PSoC4/BLE_hts.c ****             {
 333:.\Generated_Source\PSoC4/BLE_hts.c ****                 apiResult = CYBLE_ERROR_INVALID_PARAMETER;
 531              		.loc 1 333 0
 532 0086 3B1C     		mov	r3, r7
 533 0088 1633     		add	r3, r3, #22
 534 008a 0122     		mov	r2, #1
 535 008c 1A80     		strh	r2, [r3]
 536 008e 03E0     		b	.L31
 537              	.L32:
 334:.\Generated_Source\PSoC4/BLE_hts.c ****             }
 335:.\Generated_Source\PSoC4/BLE_hts.c ****         }
 336:.\Generated_Source\PSoC4/BLE_hts.c ****         else
 337:.\Generated_Source\PSoC4/BLE_hts.c ****         {
 338:.\Generated_Source\PSoC4/BLE_hts.c ****             apiResult = CYBLE_ERROR_INVALID_PARAMETER;
 538              		.loc 1 338 0
 539 0090 3B1C     		mov	r3, r7
 540 0092 1633     		add	r3, r3, #22
 541 0094 0122     		mov	r2, #1
 542 0096 1A80     		strh	r2, [r3]
 543              	.L31:
 339:.\Generated_Source\PSoC4/BLE_hts.c ****         }
 340:.\Generated_Source\PSoC4/BLE_hts.c ****     }
 341:.\Generated_Source\PSoC4/BLE_hts.c ****     return (apiResult);
 544              		.loc 1 341 0
 545 0098 3B1C     		mov	r3, r7
 546 009a 1633     		add	r3, r3, #22
 547 009c 1B88     		ldrh	r3, [r3]
 342:.\Generated_Source\PSoC4/BLE_hts.c **** }
 548              		.loc 1 342 0
 549 009e 181C     		mov	r0, r3
 550 00a0 BD46     		mov	sp, r7
 551 00a2 06B0     		add	sp, sp, #24
 552              		@ sp needed
 553 00a4 80BD     		pop	{r7, pc}
 554              	.L36:
 555 00a6 C046     		.align	2
 556              	.L35:
 557 00a8 00000000 		.word	cyBle_htss
 558              		.cfi_endproc
 559              	.LFE7:
 560              		.size	CyBle_HtssGetCharacteristicDescriptor, .-CyBle_HtssGetCharacteristicDescriptor
 561              		.section	.text.CyBle_HtssWriteEventHandler,"ax",%progbits
 562              		.align	2
 563              		.global	CyBle_HtssWriteEventHandler
 564              		.code	16
 565              		.thumb_func
 566              		.type	CyBle_HtssWriteEventHandler, %function
ARM GAS  C:\Users\Zachary\AppData\Local\Temp\ccv8jLse.s 			page 17


 567              	CyBle_HtssWriteEventHandler:
 568              	.LFB8:
 343:.\Generated_Source\PSoC4/BLE_hts.c **** 
 344:.\Generated_Source\PSoC4/BLE_hts.c **** 
 345:.\Generated_Source\PSoC4/BLE_hts.c **** /******************************************************************************
 346:.\Generated_Source\PSoC4/BLE_hts.c **** ##Function Name: CyBle_HtssWriteEventHandler
 347:.\Generated_Source\PSoC4/BLE_hts.c **** *******************************************************************************
 348:.\Generated_Source\PSoC4/BLE_hts.c **** 
 349:.\Generated_Source\PSoC4/BLE_hts.c **** Summary:
 350:.\Generated_Source\PSoC4/BLE_hts.c ****  Handles Write Request Event for HTS service.
 351:.\Generated_Source\PSoC4/BLE_hts.c **** 
 352:.\Generated_Source\PSoC4/BLE_hts.c **** Parameters:
 353:.\Generated_Source\PSoC4/BLE_hts.c ****  void *eventParam: The pointer to the data structure specified by the event.
 354:.\Generated_Source\PSoC4/BLE_hts.c **** 
 355:.\Generated_Source\PSoC4/BLE_hts.c **** Return:
 356:.\Generated_Source\PSoC4/BLE_hts.c ****  Return value is of type CYBLE_GATT_ERR_CODE_T.
 357:.\Generated_Source\PSoC4/BLE_hts.c ****   * CYBLE_GATT_ERR_NONE - Write is successful
 358:.\Generated_Source\PSoC4/BLE_hts.c **** 
 359:.\Generated_Source\PSoC4/BLE_hts.c **** ******************************************************************************/
 360:.\Generated_Source\PSoC4/BLE_hts.c **** CYBLE_GATT_ERR_CODE_T CyBle_HtssWriteEventHandler(CYBLE_GATTS_WRITE_REQ_PARAM_T *eventParam)
 361:.\Generated_Source\PSoC4/BLE_hts.c **** {
 569              		.loc 1 361 0
 570              		.cfi_startproc
 571 0000 90B5     		push	{r4, r7, lr}
 572              		.cfi_def_cfa_offset 12
 573              		.cfi_offset 4, -12
 574              		.cfi_offset 7, -8
 575              		.cfi_offset 14, -4
 576 0002 89B0     		sub	sp, sp, #36
 577              		.cfi_def_cfa_offset 48
 578 0004 00AF     		add	r7, sp, #0
 579              		.cfi_def_cfa_register 7
 580 0006 7860     		str	r0, [r7, #4]
 362:.\Generated_Source\PSoC4/BLE_hts.c ****     CYBLE_HTS_CHAR_INDEX_T locCharIndex;
 363:.\Generated_Source\PSoC4/BLE_hts.c ****     CYBLE_HTS_CHAR_VALUE_T locCharValue;
 364:.\Generated_Source\PSoC4/BLE_hts.c ****     CYBLE_GATT_ERR_CODE_T gattErr = CYBLE_GATT_ERR_NONE;
 581              		.loc 1 364 0
 582 0008 3B1C     		mov	r3, r7
 583 000a 1E33     		add	r3, r3, #30
 584 000c 0022     		mov	r2, #0
 585 000e 1A70     		strb	r2, [r3]
 365:.\Generated_Source\PSoC4/BLE_hts.c ****     uint8 locReqHandle = 0u;
 586              		.loc 1 365 0
 587 0010 3B1C     		mov	r3, r7
 588 0012 1D33     		add	r3, r3, #29
 589 0014 0022     		mov	r2, #0
 590 0016 1A70     		strb	r2, [r3]
 366:.\Generated_Source\PSoC4/BLE_hts.c **** 
 367:.\Generated_Source\PSoC4/BLE_hts.c ****     if(NULL != CyBle_HtsApplCallback)
 591              		.loc 1 367 0
 592 0018 B04B     		ldr	r3, .L53
 593 001a 1B68     		ldr	r3, [r3]
 594 001c 002B     		cmp	r3, #0
 595 001e 00D1     		bne	.LCB496
 596 0020 55E1     		b	.L38	@long jump
 597              	.LCB496:
 368:.\Generated_Source\PSoC4/BLE_hts.c ****     {
ARM GAS  C:\Users\Zachary\AppData\Local\Temp\ccv8jLse.s 			page 18


 369:.\Generated_Source\PSoC4/BLE_hts.c ****         for(locCharIndex = CYBLE_HTS_TEMP_MEASURE; (locCharIndex < CYBLE_HTS_CHAR_COUNT) && (locReq
 598              		.loc 1 369 0
 599 0022 3B1C     		mov	r3, r7
 600 0024 1F33     		add	r3, r3, #31
 601 0026 0022     		mov	r2, #0
 602 0028 1A70     		strb	r2, [r3]
 603 002a 45E1     		b	.L39
 604              	.L51:
 370:.\Generated_Source\PSoC4/BLE_hts.c ****             locCharIndex++)
 371:.\Generated_Source\PSoC4/BLE_hts.c ****         {
 372:.\Generated_Source\PSoC4/BLE_hts.c ****             
 373:.\Generated_Source\PSoC4/BLE_hts.c ****             if((eventParam->handleValPair.attrHandle == cyBle_htss.charInfo[locCharIndex].descrHand
 605              		.loc 1 373 0
 606 002c 7B68     		ldr	r3, [r7, #4]
 607 002e 9989     		ldrh	r1, [r3, #12]
 608 0030 3B1C     		mov	r3, r7
 609 0032 1F33     		add	r3, r3, #31
 610 0034 1A78     		ldrb	r2, [r3]
 611 0036 AA48     		ldr	r0, .L53+4
 612 0038 131C     		mov	r3, r2
 613 003a 5B00     		lsl	r3, r3, #1
 614 003c 9B18     		add	r3, r3, r2
 615 003e 5B00     		lsl	r3, r3, #1
 616 0040 C318     		add	r3, r0, r3
 617 0042 9B88     		ldrh	r3, [r3, #4]
 618 0044 9942     		cmp	r1, r3
 619 0046 0ED0     		beq	.L40
 374:.\Generated_Source\PSoC4/BLE_hts.c ****                (eventParam->handleValPair.attrHandle == cyBle_htss.charInfo[locCharIndex].charHandl
 620              		.loc 1 374 0 discriminator 1
 621 0048 7B68     		ldr	r3, [r7, #4]
 622 004a 9989     		ldrh	r1, [r3, #12]
 623 004c 3B1C     		mov	r3, r7
 624 004e 1F33     		add	r3, r3, #31
 625 0050 1A78     		ldrb	r2, [r3]
 626 0052 A348     		ldr	r0, .L53+4
 627 0054 131C     		mov	r3, r2
 628 0056 5B00     		lsl	r3, r3, #1
 629 0058 9B18     		add	r3, r3, r2
 630 005a 5B00     		lsl	r3, r3, #1
 631 005c C318     		add	r3, r0, r3
 632 005e 5B88     		ldrh	r3, [r3, #2]
 373:.\Generated_Source\PSoC4/BLE_hts.c ****             if((eventParam->handleValPair.attrHandle == cyBle_htss.charInfo[locCharIndex].descrHand
 633              		.loc 1 373 0 discriminator 1
 634 0060 9942     		cmp	r1, r3
 635 0062 00D0     		beq	.LCB532
 636 0064 21E1     		b	.L41	@long jump
 637              	.LCB532:
 638              	.L40:
 375:.\Generated_Source\PSoC4/BLE_hts.c ****             {
 376:.\Generated_Source\PSoC4/BLE_hts.c ****                 locCharValue.connHandle = eventParam->connHandle;
 639              		.loc 1 376 0
 640 0066 3B1C     		mov	r3, r7
 641 0068 0C33     		add	r3, r3, #12
 642 006a 7A68     		ldr	r2, [r7, #4]
 643 006c 1288     		ldrh	r2, [r2]
 644 006e 1A80     		strh	r2, [r3]
 377:.\Generated_Source\PSoC4/BLE_hts.c ****                 locCharValue.charIndex = locCharIndex;
ARM GAS  C:\Users\Zachary\AppData\Local\Temp\ccv8jLse.s 			page 19


 645              		.loc 1 377 0
 646 0070 3B1C     		mov	r3, r7
 647 0072 0C33     		add	r3, r3, #12
 648 0074 3A1C     		mov	r2, r7
 649 0076 1F32     		add	r2, r2, #31
 650 0078 1278     		ldrb	r2, [r2]
 651 007a 9A70     		strb	r2, [r3, #2]
 378:.\Generated_Source\PSoC4/BLE_hts.c ****                 locCharValue.value = &eventParam->handleValPair.value;
 652              		.loc 1 378 0
 653 007c 7B68     		ldr	r3, [r7, #4]
 654 007e 1A1D     		add	r2, r3, #4
 655 0080 3B1C     		mov	r3, r7
 656 0082 0C33     		add	r3, r3, #12
 657 0084 5A60     		str	r2, [r3, #4]
 379:.\Generated_Source\PSoC4/BLE_hts.c ****                 /* Characteristic value write request */
 380:.\Generated_Source\PSoC4/BLE_hts.c ****                 if(eventParam->handleValPair.attrHandle == cyBle_htss.charInfo[locCharIndex].charHa
 658              		.loc 1 380 0
 659 0086 7B68     		ldr	r3, [r7, #4]
 660 0088 9989     		ldrh	r1, [r3, #12]
 661 008a 3B1C     		mov	r3, r7
 662 008c 1F33     		add	r3, r3, #31
 663 008e 1A78     		ldrb	r2, [r3]
 664 0090 9348     		ldr	r0, .L53+4
 665 0092 131C     		mov	r3, r2
 666 0094 5B00     		lsl	r3, r3, #1
 667 0096 9B18     		add	r3, r3, r2
 668 0098 5B00     		lsl	r3, r3, #1
 669 009a C318     		add	r3, r0, r3
 670 009c 5B88     		ldrh	r3, [r3, #2]
 671 009e 9942     		cmp	r1, r3
 672 00a0 00D0     		beq	.LCB563
 673 00a2 78E0     		b	.L42	@long jump
 674              	.LCB563:
 381:.\Generated_Source\PSoC4/BLE_hts.c ****                 {
 382:.\Generated_Source\PSoC4/BLE_hts.c ****                     /* Validate Measure Interval value */
 383:.\Generated_Source\PSoC4/BLE_hts.c ****                     if(locCharIndex == CYBLE_HTS_MEASURE_INTERVAL)
 675              		.loc 1 383 0
 676 00a4 3B1C     		mov	r3, r7
 677 00a6 1F33     		add	r3, r3, #31
 678 00a8 1B78     		ldrb	r3, [r3]
 679 00aa 032B     		cmp	r3, #3
 680 00ac 4FD1     		bne	.L43
 681              	.LBB2:
 384:.\Generated_Source\PSoC4/BLE_hts.c ****                     {
 385:.\Generated_Source\PSoC4/BLE_hts.c ****                         uint8 locAttrValue[CYBLE_HTS_VRD_LEN];
 386:.\Generated_Source\PSoC4/BLE_hts.c ****                         uint16 requestValue;
 387:.\Generated_Source\PSoC4/BLE_hts.c ****                         
 388:.\Generated_Source\PSoC4/BLE_hts.c ****                         requestValue = CyBle_Get16ByPtr(eventParam->handleValPair.value.val);
 682              		.loc 1 388 0
 683 00ae 7B68     		ldr	r3, [r7, #4]
 684 00b0 5B68     		ldr	r3, [r3, #4]
 685 00b2 3C1C     		mov	r4, r7
 686 00b4 1A34     		add	r4, r4, #26
 687 00b6 181C     		mov	r0, r3
 688 00b8 FFF7FEFF 		bl	CyBle_Get16ByPtr
 689 00bc 031C     		mov	r3, r0
 690 00be 2380     		strh	r3, [r4]
ARM GAS  C:\Users\Zachary\AppData\Local\Temp\ccv8jLse.s 			page 20


 389:.\Generated_Source\PSoC4/BLE_hts.c ****                         
 390:.\Generated_Source\PSoC4/BLE_hts.c ****                         if(requestValue != 0u) /* 0 is valid interval value for no periodic measure
 691              		.loc 1 390 0
 692 00c0 3B1C     		mov	r3, r7
 693 00c2 1A33     		add	r3, r3, #26
 694 00c4 1B88     		ldrh	r3, [r3]
 695 00c6 002B     		cmp	r3, #0
 696 00c8 41D0     		beq	.L43
 391:.\Generated_Source\PSoC4/BLE_hts.c ****                         {
 392:.\Generated_Source\PSoC4/BLE_hts.c ****                             /* Check Valid range for Measure Interval characteristic value */
 393:.\Generated_Source\PSoC4/BLE_hts.c ****                             if(CYBLE_ERROR_OK == CyBle_HtssGetCharacteristicDescriptor(locCharIndex
 697              		.loc 1 393 0
 698 00ca 3B1C     		mov	r3, r7
 699 00cc 1F33     		add	r3, r3, #31
 700 00ce 1A78     		ldrb	r2, [r3]
 701 00d0 3B1C     		mov	r3, r7
 702 00d2 0833     		add	r3, r3, #8
 703 00d4 101C     		mov	r0, r2
 704 00d6 0121     		mov	r1, #1
 705 00d8 0422     		mov	r2, #4
 706 00da FFF7FEFF 		bl	CyBle_HtssGetCharacteristicDescriptor
 707 00de 031C     		mov	r3, r0
 708 00e0 002B     		cmp	r3, #0
 709 00e2 34D1     		bne	.L43
 710              	.LBB3:
 394:.\Generated_Source\PSoC4/BLE_hts.c ****                                                     CYBLE_HTS_VRD_LEN, locAttrValue))
 395:.\Generated_Source\PSoC4/BLE_hts.c ****                             {
 396:.\Generated_Source\PSoC4/BLE_hts.c ****                                 uint16 lowerValue;
 397:.\Generated_Source\PSoC4/BLE_hts.c ****                                 uint16 upperValue;
 398:.\Generated_Source\PSoC4/BLE_hts.c ****                                 
 399:.\Generated_Source\PSoC4/BLE_hts.c ****                                 lowerValue = CyBle_Get16ByPtr(locAttrValue);
 711              		.loc 1 399 0
 712 00e4 3C1C     		mov	r4, r7
 713 00e6 1834     		add	r4, r4, #24
 714 00e8 3B1C     		mov	r3, r7
 715 00ea 0833     		add	r3, r3, #8
 716 00ec 181C     		mov	r0, r3
 717 00ee FFF7FEFF 		bl	CyBle_Get16ByPtr
 718 00f2 031C     		mov	r3, r0
 719 00f4 2380     		strh	r3, [r4]
 400:.\Generated_Source\PSoC4/BLE_hts.c ****                                 upperValue = CyBle_Get16ByPtr(locAttrValue + sizeof(lowerValue));
 720              		.loc 1 400 0
 721 00f6 3C1C     		mov	r4, r7
 722 00f8 1634     		add	r4, r4, #22
 723 00fa 3B1C     		mov	r3, r7
 724 00fc 0833     		add	r3, r3, #8
 725 00fe 0233     		add	r3, r3, #2
 726 0100 181C     		mov	r0, r3
 727 0102 FFF7FEFF 		bl	CyBle_Get16ByPtr
 728 0106 031C     		mov	r3, r0
 729 0108 2380     		strh	r3, [r4]
 401:.\Generated_Source\PSoC4/BLE_hts.c ****                                 requestValue = CyBle_Get16ByPtr(eventParam->handleValPair.value.val
 730              		.loc 1 401 0
 731 010a 7B68     		ldr	r3, [r7, #4]
 732 010c 5B68     		ldr	r3, [r3, #4]
 733 010e 3C1C     		mov	r4, r7
 734 0110 1A34     		add	r4, r4, #26
ARM GAS  C:\Users\Zachary\AppData\Local\Temp\ccv8jLse.s 			page 21


 735 0112 181C     		mov	r0, r3
 736 0114 FFF7FEFF 		bl	CyBle_Get16ByPtr
 737 0118 031C     		mov	r3, r0
 738 011a 2380     		strh	r3, [r4]
 402:.\Generated_Source\PSoC4/BLE_hts.c ****                                 if((requestValue != 0u) && ((requestValue < lowerValue) || (request
 739              		.loc 1 402 0
 740 011c 3B1C     		mov	r3, r7
 741 011e 1A33     		add	r3, r3, #26
 742 0120 1B88     		ldrh	r3, [r3]
 743 0122 002B     		cmp	r3, #0
 744 0124 13D0     		beq	.L43
 745              		.loc 1 402 0 is_stmt 0 discriminator 1
 746 0126 3A1C     		mov	r2, r7
 747 0128 1A32     		add	r2, r2, #26
 748 012a 3B1C     		mov	r3, r7
 749 012c 1833     		add	r3, r3, #24
 750 012e 1288     		ldrh	r2, [r2]
 751 0130 1B88     		ldrh	r3, [r3]
 752 0132 9A42     		cmp	r2, r3
 753 0134 07D3     		bcc	.L45
 754 0136 3A1C     		mov	r2, r7
 755 0138 1A32     		add	r2, r2, #26
 756 013a 3B1C     		mov	r3, r7
 757 013c 1633     		add	r3, r3, #22
 758 013e 1288     		ldrh	r2, [r2]
 759 0140 1B88     		ldrh	r3, [r3]
 760 0142 9A42     		cmp	r2, r3
 761 0144 03D9     		bls	.L43
 762              	.L45:
 403:.\Generated_Source\PSoC4/BLE_hts.c ****                                 {
 404:.\Generated_Source\PSoC4/BLE_hts.c ****                                     gattErr = CYBLE_GATT_ERR_HTS_OUT_OF_RANGE;
 763              		.loc 1 404 0 is_stmt 1
 764 0146 3B1C     		mov	r3, r7
 765 0148 1E33     		add	r3, r3, #30
 766 014a 8022     		mov	r2, #128
 767 014c 1A70     		strb	r2, [r3]
 768              	.L43:
 769              	.LBE3:
 770              	.LBE2:
 405:.\Generated_Source\PSoC4/BLE_hts.c ****                                 }
 406:.\Generated_Source\PSoC4/BLE_hts.c ****                             }
 407:.\Generated_Source\PSoC4/BLE_hts.c ****                         }
 408:.\Generated_Source\PSoC4/BLE_hts.c ****                     }
 409:.\Generated_Source\PSoC4/BLE_hts.c ****                     if(CYBLE_GATT_ERR_NONE == gattErr)
 771              		.loc 1 409 0
 772 014e 3B1C     		mov	r3, r7
 773 0150 1E33     		add	r3, r3, #30
 774 0152 1B78     		ldrb	r3, [r3]
 775 0154 002B     		cmp	r3, #0
 776 0156 00D0     		beq	.LCB655
 777 0158 9BE0     		b	.L47	@long jump
 778              	.LCB655:
 410:.\Generated_Source\PSoC4/BLE_hts.c ****                     {   /* Store value to database */
 411:.\Generated_Source\PSoC4/BLE_hts.c ****                         gattErr = CyBle_GattsWriteAttributeValue(&eventParam->handleValPair, 0u, 
 779              		.loc 1 411 0
 780 015a 7B68     		ldr	r3, [r7, #4]
 781 015c 1A1D     		add	r2, r3, #4
ARM GAS  C:\Users\Zachary\AppData\Local\Temp\ccv8jLse.s 			page 22


 782 015e 7B68     		ldr	r3, [r7, #4]
 783 0160 3C1C     		mov	r4, r7
 784 0162 1E34     		add	r4, r4, #30
 785 0164 101C     		mov	r0, r2
 786 0166 0021     		mov	r1, #0
 787 0168 1A1C     		mov	r2, r3
 788 016a 4023     		mov	r3, #64
 789 016c FFF7FEFF 		bl	CyBle_GattsWriteAttributeValue
 790 0170 031C     		mov	r3, r0
 791 0172 2370     		strb	r3, [r4]
 412:.\Generated_Source\PSoC4/BLE_hts.c ****                                     &eventParam->connHandle, CYBLE_GATT_DB_PEER_INITIATED);
 413:.\Generated_Source\PSoC4/BLE_hts.c ****                         if(CYBLE_GATT_ERR_NONE == gattErr)
 792              		.loc 1 413 0
 793 0174 3B1C     		mov	r3, r7
 794 0176 1E33     		add	r3, r3, #30
 795 0178 1B78     		ldrb	r3, [r3]
 796 017a 002B     		cmp	r3, #0
 797 017c 00D0     		beq	.LCB672
 798 017e 88E0     		b	.L47	@long jump
 799              	.LCB672:
 414:.\Generated_Source\PSoC4/BLE_hts.c ****                         {
 415:.\Generated_Source\PSoC4/BLE_hts.c ****                             CyBle_HtsApplCallback((uint32)CYBLE_EVT_HTSS_CHAR_WRITE, &locCharValue)
 800              		.loc 1 415 0
 801 0180 564B     		ldr	r3, .L53
 802 0182 1B68     		ldr	r3, [r3]
 803 0184 7E22     		mov	r2, #126
 804 0186 111C     		mov	r1, r2
 805 0188 FF31     		add	r1, r1, #255
 806 018a 3A1C     		mov	r2, r7
 807 018c 0C32     		add	r2, r2, #12
 808 018e 081C     		mov	r0, r1
 809 0190 111C     		mov	r1, r2
 810 0192 9847     		blx	r3
 811 0194 7DE0     		b	.L47
 812              	.L42:
 416:.\Generated_Source\PSoC4/BLE_hts.c ****                         }
 417:.\Generated_Source\PSoC4/BLE_hts.c ****                     }    
 418:.\Generated_Source\PSoC4/BLE_hts.c ****                 }
 419:.\Generated_Source\PSoC4/BLE_hts.c ****                 else /* Client Characteristic Configuration descriptor write request */
 420:.\Generated_Source\PSoC4/BLE_hts.c ****                 {
 421:.\Generated_Source\PSoC4/BLE_hts.c ****                     /* Store value to database */
 422:.\Generated_Source\PSoC4/BLE_hts.c ****                     gattErr = CyBle_GattsWriteAttributeValue(&eventParam->handleValPair, 0u, 
 813              		.loc 1 422 0
 814 0196 7B68     		ldr	r3, [r7, #4]
 815 0198 1A1D     		add	r2, r3, #4
 816 019a 7B68     		ldr	r3, [r7, #4]
 817 019c 3C1C     		mov	r4, r7
 818 019e 1E34     		add	r4, r4, #30
 819 01a0 101C     		mov	r0, r2
 820 01a2 0021     		mov	r1, #0
 821 01a4 1A1C     		mov	r2, r3
 822 01a6 4023     		mov	r3, #64
 823 01a8 FFF7FEFF 		bl	CyBle_GattsWriteAttributeValue
 824 01ac 031C     		mov	r3, r0
 825 01ae 2370     		strb	r3, [r4]
 423:.\Generated_Source\PSoC4/BLE_hts.c ****                                     &eventParam->connHandle, CYBLE_GATT_DB_PEER_INITIATED);
 424:.\Generated_Source\PSoC4/BLE_hts.c ****                     if(CYBLE_GATT_ERR_NONE == gattErr)
ARM GAS  C:\Users\Zachary\AppData\Local\Temp\ccv8jLse.s 			page 23


 826              		.loc 1 424 0
 827 01b0 3B1C     		mov	r3, r7
 828 01b2 1E33     		add	r3, r3, #30
 829 01b4 1B78     		ldrb	r3, [r3]
 830 01b6 002B     		cmp	r3, #0
 831 01b8 6BD1     		bne	.L47
 425:.\Generated_Source\PSoC4/BLE_hts.c ****                     {
 426:.\Generated_Source\PSoC4/BLE_hts.c ****                         /* Check characteristic properties for Notification */
 427:.\Generated_Source\PSoC4/BLE_hts.c ****                         if(CYBLE_IS_NOTIFICATION_SUPPORTED(cyBle_htss.charInfo[locCharIndex].charHa
 832              		.loc 1 427 0
 833 01ba 3B1C     		mov	r3, r7
 834 01bc 1F33     		add	r3, r3, #31
 835 01be 1A78     		ldrb	r2, [r3]
 836 01c0 4749     		ldr	r1, .L53+4
 837 01c2 131C     		mov	r3, r2
 838 01c4 5B00     		lsl	r3, r3, #1
 839 01c6 9B18     		add	r3, r3, r2
 840 01c8 5B00     		lsl	r3, r3, #1
 841 01ca CB18     		add	r3, r1, r3
 842 01cc 5B88     		ldrh	r3, [r3, #2]
 843 01ce 5A1E     		sub	r2, r3, #1
 844 01d0 4449     		ldr	r1, .L53+8
 845 01d2 131C     		mov	r3, r2
 846 01d4 9B00     		lsl	r3, r3, #2
 847 01d6 9B18     		add	r3, r3, r2
 848 01d8 9B00     		lsl	r3, r3, #2
 849 01da CB18     		add	r3, r1, r3
 850 01dc 5A68     		ldr	r2, [r3, #4]
 851 01de 8023     		mov	r3, #128
 852 01e0 5B01     		lsl	r3, r3, #5
 853 01e2 1340     		and	r3, r2
 854 01e4 1FD0     		beq	.L48
 428:.\Generated_Source\PSoC4/BLE_hts.c ****                         {
 429:.\Generated_Source\PSoC4/BLE_hts.c ****                             if(CYBLE_IS_NOTIFICATION_ENABLED_IN_PTR(eventParam->handleValPair.value
 855              		.loc 1 429 0
 856 01e6 7B68     		ldr	r3, [r7, #4]
 857 01e8 5B68     		ldr	r3, [r3, #4]
 858 01ea 181C     		mov	r0, r3
 859 01ec FFF7FEFF 		bl	CyBle_Get16ByPtr
 860 01f0 031C     		mov	r3, r0
 861 01f2 1A1C     		mov	r2, r3
 862 01f4 0123     		mov	r3, #1
 863 01f6 1340     		and	r3, r2
 864 01f8 9BB2     		uxth	r3, r3
 865 01fa 002B     		cmp	r3, #0
 866 01fc 09D0     		beq	.L49
 430:.\Generated_Source\PSoC4/BLE_hts.c ****                             {
 431:.\Generated_Source\PSoC4/BLE_hts.c ****                                 CyBle_HtsApplCallback((uint32)CYBLE_EVT_HTSS_NOTIFICATION_ENABLED, 
 867              		.loc 1 431 0
 868 01fe 374B     		ldr	r3, .L53
 869 0200 1B68     		ldr	r3, [r3]
 870 0202 BC22     		mov	r2, #188
 871 0204 5100     		lsl	r1, r2, #1
 872 0206 3A1C     		mov	r2, r7
 873 0208 0C32     		add	r2, r2, #12
 874 020a 081C     		mov	r0, r1
 875 020c 111C     		mov	r1, r2
ARM GAS  C:\Users\Zachary\AppData\Local\Temp\ccv8jLse.s 			page 24


 876 020e 9847     		blx	r3
 877 0210 09E0     		b	.L48
 878              	.L49:
 432:.\Generated_Source\PSoC4/BLE_hts.c ****                             }
 433:.\Generated_Source\PSoC4/BLE_hts.c ****                             else
 434:.\Generated_Source\PSoC4/BLE_hts.c ****                             {
 435:.\Generated_Source\PSoC4/BLE_hts.c ****                                 CyBle_HtsApplCallback((uint32)CYBLE_EVT_HTSS_NOTIFICATION_DISABLED,
 879              		.loc 1 435 0
 880 0212 324B     		ldr	r3, .L53
 881 0214 1B68     		ldr	r3, [r3]
 882 0216 7A22     		mov	r2, #122
 883 0218 111C     		mov	r1, r2
 884 021a FF31     		add	r1, r1, #255
 885 021c 3A1C     		mov	r2, r7
 886 021e 0C32     		add	r2, r2, #12
 887 0220 081C     		mov	r0, r1
 888 0222 111C     		mov	r1, r2
 889 0224 9847     		blx	r3
 890              	.L48:
 436:.\Generated_Source\PSoC4/BLE_hts.c ****                             }
 437:.\Generated_Source\PSoC4/BLE_hts.c ****                         }
 438:.\Generated_Source\PSoC4/BLE_hts.c ****                         /* Check characteristic properties for Indication */
 439:.\Generated_Source\PSoC4/BLE_hts.c ****                         if(CYBLE_IS_INDICATION_SUPPORTED(cyBle_htss.charInfo[locCharIndex].charHand
 891              		.loc 1 439 0
 892 0226 3B1C     		mov	r3, r7
 893 0228 1F33     		add	r3, r3, #31
 894 022a 1A78     		ldrb	r2, [r3]
 895 022c 2C49     		ldr	r1, .L53+4
 896 022e 131C     		mov	r3, r2
 897 0230 5B00     		lsl	r3, r3, #1
 898 0232 9B18     		add	r3, r3, r2
 899 0234 5B00     		lsl	r3, r3, #1
 900 0236 CB18     		add	r3, r1, r3
 901 0238 5B88     		ldrh	r3, [r3, #2]
 902 023a 5A1E     		sub	r2, r3, #1
 903 023c 2949     		ldr	r1, .L53+8
 904 023e 131C     		mov	r3, r2
 905 0240 9B00     		lsl	r3, r3, #2
 906 0242 9B18     		add	r3, r3, r2
 907 0244 9B00     		lsl	r3, r3, #2
 908 0246 CB18     		add	r3, r1, r3
 909 0248 5A68     		ldr	r2, [r3, #4]
 910 024a 8023     		mov	r3, #128
 911 024c 9B01     		lsl	r3, r3, #6
 912 024e 1340     		and	r3, r2
 913 0250 1FD0     		beq	.L47
 440:.\Generated_Source\PSoC4/BLE_hts.c ****                         {
 441:.\Generated_Source\PSoC4/BLE_hts.c ****                             if(CYBLE_IS_INDICATION_ENABLED_IN_PTR(eventParam->handleValPair.value.v
 914              		.loc 1 441 0
 915 0252 7B68     		ldr	r3, [r7, #4]
 916 0254 5B68     		ldr	r3, [r3, #4]
 917 0256 181C     		mov	r0, r3
 918 0258 FFF7FEFF 		bl	CyBle_Get16ByPtr
 919 025c 031C     		mov	r3, r0
 920 025e 1A1C     		mov	r2, r3
 921 0260 0223     		mov	r3, #2
 922 0262 1340     		and	r3, r2
ARM GAS  C:\Users\Zachary\AppData\Local\Temp\ccv8jLse.s 			page 25


 923 0264 9BB2     		uxth	r3, r3
 924 0266 002B     		cmp	r3, #0
 925 0268 09D0     		beq	.L50
 442:.\Generated_Source\PSoC4/BLE_hts.c ****                             {
 443:.\Generated_Source\PSoC4/BLE_hts.c ****                                 CyBle_HtsApplCallback((uint32)CYBLE_EVT_HTSS_INDICATION_ENABLED, &l
 926              		.loc 1 443 0
 927 026a 1C4B     		ldr	r3, .L53
 928 026c 1B68     		ldr	r3, [r3]
 929 026e BD22     		mov	r2, #189
 930 0270 5100     		lsl	r1, r2, #1
 931 0272 3A1C     		mov	r2, r7
 932 0274 0C32     		add	r2, r2, #12
 933 0276 081C     		mov	r0, r1
 934 0278 111C     		mov	r1, r2
 935 027a 9847     		blx	r3
 936 027c 09E0     		b	.L47
 937              	.L50:
 444:.\Generated_Source\PSoC4/BLE_hts.c ****                             }
 445:.\Generated_Source\PSoC4/BLE_hts.c ****                             else
 446:.\Generated_Source\PSoC4/BLE_hts.c ****                             {
 447:.\Generated_Source\PSoC4/BLE_hts.c ****                                 CyBle_HtsApplCallback((uint32)CYBLE_EVT_HTSS_INDICATION_DISABLED, &
 938              		.loc 1 447 0
 939 027e 174B     		ldr	r3, .L53
 940 0280 1B68     		ldr	r3, [r3]
 941 0282 7C22     		mov	r2, #124
 942 0284 111C     		mov	r1, r2
 943 0286 FF31     		add	r1, r1, #255
 944 0288 3A1C     		mov	r2, r7
 945 028a 0C32     		add	r2, r2, #12
 946 028c 081C     		mov	r0, r1
 947 028e 111C     		mov	r1, r2
 948 0290 9847     		blx	r3
 949              	.L47:
 448:.\Generated_Source\PSoC4/BLE_hts.c ****                             }
 449:.\Generated_Source\PSoC4/BLE_hts.c ****                         }
 450:.\Generated_Source\PSoC4/BLE_hts.c ****                     #if((CYBLE_GAP_ROLE_PERIPHERAL || CYBLE_GAP_ROLE_CENTRAL) && \
 451:.\Generated_Source\PSoC4/BLE_hts.c ****                         (CYBLE_BONDING_REQUIREMENT == CYBLE_BONDING_YES))
 452:.\Generated_Source\PSoC4/BLE_hts.c ****                         /* Set flag to store bonding data to flash */
 453:.\Generated_Source\PSoC4/BLE_hts.c ****                         cyBle_pendingFlashWrite |= CYBLE_PENDING_CCCD_FLASH_WRITE_BIT;
 454:.\Generated_Source\PSoC4/BLE_hts.c ****                     #endif /* (CYBLE_BONDING_REQUIREMENT == CYBLE_BONDING_YES) */
 455:.\Generated_Source\PSoC4/BLE_hts.c ****                         
 456:.\Generated_Source\PSoC4/BLE_hts.c ****                     }
 457:.\Generated_Source\PSoC4/BLE_hts.c ****                 }
 458:.\Generated_Source\PSoC4/BLE_hts.c ****                 cyBle_eventHandlerFlag &= (uint8)~CYBLE_CALLBACK;
 950              		.loc 1 458 0
 951 0292 154B     		ldr	r3, .L53+12
 952 0294 1B78     		ldrb	r3, [r3]
 953 0296 DBB2     		uxtb	r3, r3
 954 0298 0122     		mov	r2, #1
 955 029a 9343     		bic	r3, r2
 956 029c DAB2     		uxtb	r2, r3
 957 029e 124B     		ldr	r3, .L53+12
 958 02a0 1A70     		strb	r2, [r3]
 459:.\Generated_Source\PSoC4/BLE_hts.c ****                 locReqHandle = 1u;
 959              		.loc 1 459 0
 960 02a2 3B1C     		mov	r3, r7
 961 02a4 1D33     		add	r3, r3, #29
ARM GAS  C:\Users\Zachary\AppData\Local\Temp\ccv8jLse.s 			page 26


 962 02a6 0122     		mov	r2, #1
 963 02a8 1A70     		strb	r2, [r3]
 964              	.L41:
 370:.\Generated_Source\PSoC4/BLE_hts.c ****             locCharIndex++)
 965              		.loc 1 370 0
 966 02aa 3B1C     		mov	r3, r7
 967 02ac 1F33     		add	r3, r3, #31
 968 02ae 1A78     		ldrb	r2, [r3]
 969 02b0 3B1C     		mov	r3, r7
 970 02b2 1F33     		add	r3, r3, #31
 971 02b4 0132     		add	r2, r2, #1
 972 02b6 1A70     		strb	r2, [r3]
 973              	.L39:
 369:.\Generated_Source\PSoC4/BLE_hts.c ****         for(locCharIndex = CYBLE_HTS_TEMP_MEASURE; (locCharIndex < CYBLE_HTS_CHAR_COUNT) && (locReq
 974              		.loc 1 369 0 discriminator 1
 975 02b8 3B1C     		mov	r3, r7
 976 02ba 1F33     		add	r3, r3, #31
 977 02bc 1B78     		ldrb	r3, [r3]
 978 02be 032B     		cmp	r3, #3
 979 02c0 05D8     		bhi	.L38
 369:.\Generated_Source\PSoC4/BLE_hts.c ****         for(locCharIndex = CYBLE_HTS_TEMP_MEASURE; (locCharIndex < CYBLE_HTS_CHAR_COUNT) && (locReq
 980              		.loc 1 369 0 is_stmt 0 discriminator 2
 981 02c2 3B1C     		mov	r3, r7
 982 02c4 1D33     		add	r3, r3, #29
 983 02c6 1B78     		ldrb	r3, [r3]
 984 02c8 002B     		cmp	r3, #0
 985 02ca 00D1     		bne	.LCB854
 986 02cc AEE6     		b	.L51	@long jump
 987              	.LCB854:
 988              	.L38:
 460:.\Generated_Source\PSoC4/BLE_hts.c ****             }
 461:.\Generated_Source\PSoC4/BLE_hts.c ****         }
 462:.\Generated_Source\PSoC4/BLE_hts.c ****     }
 463:.\Generated_Source\PSoC4/BLE_hts.c ****     return (gattErr);
 989              		.loc 1 463 0 is_stmt 1
 990 02ce 3B1C     		mov	r3, r7
 991 02d0 1E33     		add	r3, r3, #30
 992 02d2 1B78     		ldrb	r3, [r3]
 464:.\Generated_Source\PSoC4/BLE_hts.c **** }
 993              		.loc 1 464 0
 994 02d4 181C     		mov	r0, r3
 995 02d6 BD46     		mov	sp, r7
 996 02d8 09B0     		add	sp, sp, #36
 997              		@ sp needed
 998 02da 90BD     		pop	{r4, r7, pc}
 999              	.L54:
 1000              		.align	2
 1001              	.L53:
 1002 02dc 00000000 		.word	CyBle_HtsApplCallback
 1003 02e0 00000000 		.word	cyBle_htss
 1004 02e4 00000000 		.word	cyBle_gattDB
 1005 02e8 00000000 		.word	cyBle_eventHandlerFlag
 1006              		.cfi_endproc
 1007              	.LFE8:
 1008              		.size	CyBle_HtssWriteEventHandler, .-CyBle_HtssWriteEventHandler
 1009              		.section	.text.CyBle_HtssSendNotification,"ax",%progbits
 1010              		.align	2
ARM GAS  C:\Users\Zachary\AppData\Local\Temp\ccv8jLse.s 			page 27


 1011              		.global	CyBle_HtssSendNotification
 1012              		.code	16
 1013              		.thumb_func
 1014              		.type	CyBle_HtssSendNotification, %function
 1015              	CyBle_HtssSendNotification:
 1016              	.LFB9:
 465:.\Generated_Source\PSoC4/BLE_hts.c **** 
 466:.\Generated_Source\PSoC4/BLE_hts.c **** 
 467:.\Generated_Source\PSoC4/BLE_hts.c **** /******************************************************************************
 468:.\Generated_Source\PSoC4/BLE_hts.c **** ##Function Name: CyBle_HtssSendNotification
 469:.\Generated_Source\PSoC4/BLE_hts.c **** *******************************************************************************
 470:.\Generated_Source\PSoC4/BLE_hts.c **** 
 471:.\Generated_Source\PSoC4/BLE_hts.c **** Summary:
 472:.\Generated_Source\PSoC4/BLE_hts.c ****  Sends notification with a characteristic value of the Health Thermometer 
 473:.\Generated_Source\PSoC4/BLE_hts.c ****  Service, which is a value specified by charIndex, to the Client device.
 474:.\Generated_Source\PSoC4/BLE_hts.c **** 
 475:.\Generated_Source\PSoC4/BLE_hts.c **** Parameters:
 476:.\Generated_Source\PSoC4/BLE_hts.c ****  connHandle: The connection handle.
 477:.\Generated_Source\PSoC4/BLE_hts.c ****  charIndex: The index of the service characteristic.
 478:.\Generated_Source\PSoC4/BLE_hts.c ****  attrSize: The size of the characteristic value attribute.
 479:.\Generated_Source\PSoC4/BLE_hts.c ****  *attrValue: The pointer to the characteristic value data that should be 
 480:.\Generated_Source\PSoC4/BLE_hts.c ****               sent to the client's device.
 481:.\Generated_Source\PSoC4/BLE_hts.c **** 
 482:.\Generated_Source\PSoC4/BLE_hts.c **** Return:
 483:.\Generated_Source\PSoC4/BLE_hts.c ****  Return value is of type CYBLE_API_RESULT_T.
 484:.\Generated_Source\PSoC4/BLE_hts.c ****   * CYBLE_ERROR_OK - The request handled successfully
 485:.\Generated_Source\PSoC4/BLE_hts.c ****   * CYBLE_ERROR_INVALID_PARAMETER - Validation of the input parameter failed
 486:.\Generated_Source\PSoC4/BLE_hts.c ****   * CYBLE_ERROR_INVALID_OPERATION - This operation is not permitted
 487:.\Generated_Source\PSoC4/BLE_hts.c ****   * CYBLE_ERROR_INVALID_STATE - Connection with the client is not established
 488:.\Generated_Source\PSoC4/BLE_hts.c ****   * CYBLE_ERROR_MEMORY_ALLOCATION_FAILED - Memory allocation failed. 
 489:.\Generated_Source\PSoC4/BLE_hts.c ****   * CYBLE_ERROR_NTF_DISABLED - Notification is not enabled by the client.
 490:.\Generated_Source\PSoC4/BLE_hts.c **** 
 491:.\Generated_Source\PSoC4/BLE_hts.c **** ******************************************************************************/
 492:.\Generated_Source\PSoC4/BLE_hts.c **** CYBLE_API_RESULT_T CyBle_HtssSendNotification(CYBLE_CONN_HANDLE_T connHandle,
 493:.\Generated_Source\PSoC4/BLE_hts.c ****     CYBLE_HTS_CHAR_INDEX_T charIndex, uint8 attrSize, uint8 *attrValue)
 494:.\Generated_Source\PSoC4/BLE_hts.c **** {
 1017              		.loc 1 494 0
 1018              		.cfi_startproc
 1019 0000 90B5     		push	{r4, r7, lr}
 1020              		.cfi_def_cfa_offset 12
 1021              		.cfi_offset 4, -12
 1022              		.cfi_offset 7, -8
 1023              		.cfi_offset 14, -4
 1024 0002 89B0     		sub	sp, sp, #36
 1025              		.cfi_def_cfa_offset 48
 1026 0004 00AF     		add	r7, sp, #0
 1027              		.cfi_def_cfa_register 7
 1028 0006 3C1C     		mov	r4, r7
 1029 0008 0C34     		add	r4, r4, #12
 1030 000a 2080     		strh	r0, [r4]
 1031 000c 7B60     		str	r3, [r7, #4]
 1032 000e 3B1C     		mov	r3, r7
 1033 0010 0B33     		add	r3, r3, #11
 1034 0012 1970     		strb	r1, [r3]
 1035 0014 3B1C     		mov	r3, r7
 1036 0016 0A33     		add	r3, r3, #10
 1037 0018 1A70     		strb	r2, [r3]
ARM GAS  C:\Users\Zachary\AppData\Local\Temp\ccv8jLse.s 			page 28


 495:.\Generated_Source\PSoC4/BLE_hts.c **** 
 496:.\Generated_Source\PSoC4/BLE_hts.c ****     CYBLE_API_RESULT_T apiResult;
 497:.\Generated_Source\PSoC4/BLE_hts.c ****     
 498:.\Generated_Source\PSoC4/BLE_hts.c ****     /* Send Notification if it is enabled and connected */
 499:.\Generated_Source\PSoC4/BLE_hts.c ****     if(CYBLE_STATE_CONNECTED != CyBle_GetState())
 1038              		.loc 1 499 0
 1039 001a 2C4B     		ldr	r3, .L60
 1040 001c 1B78     		ldrb	r3, [r3]
 1041 001e 022B     		cmp	r3, #2
 1042 0020 05D0     		beq	.L56
 500:.\Generated_Source\PSoC4/BLE_hts.c ****     {
 501:.\Generated_Source\PSoC4/BLE_hts.c ****         apiResult = CYBLE_ERROR_INVALID_STATE;
 1043              		.loc 1 501 0
 1044 0022 3B1C     		mov	r3, r7
 1045 0024 1E33     		add	r3, r3, #30
 1046 0026 8322     		mov	r2, #131
 1047 0028 5200     		lsl	r2, r2, #1
 1048 002a 1A80     		strh	r2, [r3]
 1049 002c 46E0     		b	.L57
 1050              	.L56:
 502:.\Generated_Source\PSoC4/BLE_hts.c ****     }
 503:.\Generated_Source\PSoC4/BLE_hts.c ****     else if(!CYBLE_IS_NOTIFICATION_ENABLED(cyBle_htss.charInfo[charIndex].descrHandle[CYBLE_HTS_CCC
 1051              		.loc 1 503 0
 1052 002e 3B1C     		mov	r3, r7
 1053 0030 0B33     		add	r3, r3, #11
 1054 0032 1A78     		ldrb	r2, [r3]
 1055 0034 2649     		ldr	r1, .L60+4
 1056 0036 131C     		mov	r3, r2
 1057 0038 5B00     		lsl	r3, r3, #1
 1058 003a 9B18     		add	r3, r3, r2
 1059 003c 5B00     		lsl	r3, r3, #1
 1060 003e CB18     		add	r3, r1, r3
 1061 0040 9B88     		ldrh	r3, [r3, #4]
 1062 0042 5A1E     		sub	r2, r3, #1
 1063 0044 2349     		ldr	r1, .L60+8
 1064 0046 131C     		mov	r3, r2
 1065 0048 9B00     		lsl	r3, r3, #2
 1066 004a 9B18     		add	r3, r3, r2
 1067 004c 9B00     		lsl	r3, r3, #2
 1068 004e CB18     		add	r3, r1, r3
 1069 0050 0833     		add	r3, r3, #8
 1070 0052 9B68     		ldr	r3, [r3, #8]
 1071 0054 181C     		mov	r0, r3
 1072 0056 FFF7FEFF 		bl	CyBle_Get16ByPtr
 1073 005a 031C     		mov	r3, r0
 1074 005c 1A1C     		mov	r2, r3
 1075 005e 0123     		mov	r3, #1
 1076 0060 1340     		and	r3, r2
 1077 0062 9BB2     		uxth	r3, r3
 1078 0064 002B     		cmp	r3, #0
 1079 0066 05D1     		bne	.L58
 504:.\Generated_Source\PSoC4/BLE_hts.c ****     {
 505:.\Generated_Source\PSoC4/BLE_hts.c ****         apiResult = CYBLE_ERROR_NTF_DISABLED;
 1080              		.loc 1 505 0
 1081 0068 3B1C     		mov	r3, r7
 1082 006a 1E33     		add	r3, r3, #30
 1083 006c 0422     		mov	r2, #4
ARM GAS  C:\Users\Zachary\AppData\Local\Temp\ccv8jLse.s 			page 29


 1084 006e FF32     		add	r2, r2, #255
 1085 0070 1A80     		strh	r2, [r3]
 1086 0072 23E0     		b	.L57
 1087              	.L58:
 1088              	.LBB4:
 506:.\Generated_Source\PSoC4/BLE_hts.c ****     }
 507:.\Generated_Source\PSoC4/BLE_hts.c ****     else
 508:.\Generated_Source\PSoC4/BLE_hts.c ****     {
 509:.\Generated_Source\PSoC4/BLE_hts.c ****         CYBLE_GATTS_HANDLE_VALUE_NTF_T ntfReqParam;
 510:.\Generated_Source\PSoC4/BLE_hts.c ****         
 511:.\Generated_Source\PSoC4/BLE_hts.c ****         /* Fill all fields of write request structure ... */
 512:.\Generated_Source\PSoC4/BLE_hts.c ****         ntfReqParam.attrHandle = cyBle_htss.charInfo[charIndex].charHandle;
 1089              		.loc 1 512 0
 1090 0074 3B1C     		mov	r3, r7
 1091 0076 0B33     		add	r3, r3, #11
 1092 0078 1A78     		ldrb	r2, [r3]
 1093 007a 1549     		ldr	r1, .L60+4
 1094 007c 131C     		mov	r3, r2
 1095 007e 5B00     		lsl	r3, r3, #1
 1096 0080 9B18     		add	r3, r3, r2
 1097 0082 5B00     		lsl	r3, r3, #1
 1098 0084 CB18     		add	r3, r1, r3
 1099 0086 5A88     		ldrh	r2, [r3, #2]
 1100 0088 3B1C     		mov	r3, r7
 1101 008a 1033     		add	r3, r3, #16
 1102 008c 1A81     		strh	r2, [r3, #8]
 513:.\Generated_Source\PSoC4/BLE_hts.c ****         ntfReqParam.value.val = attrValue;
 1103              		.loc 1 513 0
 1104 008e 3B1C     		mov	r3, r7
 1105 0090 1033     		add	r3, r3, #16
 1106 0092 7A68     		ldr	r2, [r7, #4]
 1107 0094 1A60     		str	r2, [r3]
 514:.\Generated_Source\PSoC4/BLE_hts.c ****         ntfReqParam.value.len = attrSize;
 1108              		.loc 1 514 0
 1109 0096 3B1C     		mov	r3, r7
 1110 0098 0A33     		add	r3, r3, #10
 1111 009a 1B78     		ldrb	r3, [r3]
 1112 009c 9AB2     		uxth	r2, r3
 1113 009e 3B1C     		mov	r3, r7
 1114 00a0 1033     		add	r3, r3, #16
 1115 00a2 9A80     		strh	r2, [r3, #4]
 515:.\Generated_Source\PSoC4/BLE_hts.c ****         
 516:.\Generated_Source\PSoC4/BLE_hts.c ****         /* Send notification to client using previously filled structure */
 517:.\Generated_Source\PSoC4/BLE_hts.c ****         apiResult = CyBle_GattsNotification(connHandle, &ntfReqParam);
 1116              		.loc 1 517 0
 1117 00a4 3C1C     		mov	r4, r7
 1118 00a6 1E34     		add	r4, r4, #30
 1119 00a8 3B1C     		mov	r3, r7
 1120 00aa 0C33     		add	r3, r3, #12
 1121 00ac 3A1C     		mov	r2, r7
 1122 00ae 1032     		add	r2, r2, #16
 1123 00b0 1868     		ldr	r0, [r3]
 1124 00b2 111C     		mov	r1, r2
 1125 00b4 FFF7FEFF 		bl	CyBle_GattsNotification
 1126 00b8 031C     		mov	r3, r0
 1127 00ba 2380     		strh	r3, [r4]
 1128              	.L57:
ARM GAS  C:\Users\Zachary\AppData\Local\Temp\ccv8jLse.s 			page 30


 1129              	.LBE4:
 518:.\Generated_Source\PSoC4/BLE_hts.c ****     }
 519:.\Generated_Source\PSoC4/BLE_hts.c **** 
 520:.\Generated_Source\PSoC4/BLE_hts.c ****     return (apiResult);
 1130              		.loc 1 520 0
 1131 00bc 3B1C     		mov	r3, r7
 1132 00be 1E33     		add	r3, r3, #30
 1133 00c0 1B88     		ldrh	r3, [r3]
 521:.\Generated_Source\PSoC4/BLE_hts.c **** }
 1134              		.loc 1 521 0
 1135 00c2 181C     		mov	r0, r3
 1136 00c4 BD46     		mov	sp, r7
 1137 00c6 09B0     		add	sp, sp, #36
 1138              		@ sp needed
 1139 00c8 90BD     		pop	{r4, r7, pc}
 1140              	.L61:
 1141 00ca C046     		.align	2
 1142              	.L60:
 1143 00cc 00000000 		.word	cyBle_state
 1144 00d0 00000000 		.word	cyBle_htss
 1145 00d4 00000000 		.word	cyBle_gattDB
 1146              		.cfi_endproc
 1147              	.LFE9:
 1148              		.size	CyBle_HtssSendNotification, .-CyBle_HtssSendNotification
 1149              		.section	.text.CyBle_HtssSendIndication,"ax",%progbits
 1150              		.align	2
 1151              		.global	CyBle_HtssSendIndication
 1152              		.code	16
 1153              		.thumb_func
 1154              		.type	CyBle_HtssSendIndication, %function
 1155              	CyBle_HtssSendIndication:
 1156              	.LFB10:
 522:.\Generated_Source\PSoC4/BLE_hts.c **** 
 523:.\Generated_Source\PSoC4/BLE_hts.c **** 
 524:.\Generated_Source\PSoC4/BLE_hts.c **** /******************************************************************************
 525:.\Generated_Source\PSoC4/BLE_hts.c **** ##Function Name: CyBle_HtssSendIndication
 526:.\Generated_Source\PSoC4/BLE_hts.c **** *******************************************************************************
 527:.\Generated_Source\PSoC4/BLE_hts.c **** 
 528:.\Generated_Source\PSoC4/BLE_hts.c **** Summary:
 529:.\Generated_Source\PSoC4/BLE_hts.c ****  Sends indication with a characteristic value of the Health Thermometer 
 530:.\Generated_Source\PSoC4/BLE_hts.c ****  Service, which is a value specified by charIndex, to the Client device.
 531:.\Generated_Source\PSoC4/BLE_hts.c **** 
 532:.\Generated_Source\PSoC4/BLE_hts.c **** Parameters:
 533:.\Generated_Source\PSoC4/BLE_hts.c ****  connHandle: The connection handle.
 534:.\Generated_Source\PSoC4/BLE_hts.c ****  charIndex:  The index of the service characteristic.
 535:.\Generated_Source\PSoC4/BLE_hts.c ****  attrSize: The size of the characteristic value attribute.
 536:.\Generated_Source\PSoC4/BLE_hts.c ****  *attrValue: The pointer to the characteristic value data that should be
 537:.\Generated_Source\PSoC4/BLE_hts.c ****               sent to the Client device.
 538:.\Generated_Source\PSoC4/BLE_hts.c **** 
 539:.\Generated_Source\PSoC4/BLE_hts.c **** Return:
 540:.\Generated_Source\PSoC4/BLE_hts.c ****  Return value is of type CYBLE_API_RESULT_T.
 541:.\Generated_Source\PSoC4/BLE_hts.c ****   * CYBLE_ERROR_OK - The request handled successfully
 542:.\Generated_Source\PSoC4/BLE_hts.c ****   * CYBLE_ERROR_INVALID_PARAMETER - Validation of the input parameter failed
 543:.\Generated_Source\PSoC4/BLE_hts.c ****   * CYBLE_ERROR_INVALID_OPERATION - This operation is not permitted
 544:.\Generated_Source\PSoC4/BLE_hts.c ****   * CYBLE_ERROR_INVALID_STATE - Connection with the client is not established
 545:.\Generated_Source\PSoC4/BLE_hts.c ****   * CYBLE_ERROR_MEMORY_ALLOCATION_FAILED - Memory allocation failed
 546:.\Generated_Source\PSoC4/BLE_hts.c ****   * CYBLE_ERROR_IND_DISABLED - Indication is not enabled by the client
ARM GAS  C:\Users\Zachary\AppData\Local\Temp\ccv8jLse.s 			page 31


 547:.\Generated_Source\PSoC4/BLE_hts.c **** 
 548:.\Generated_Source\PSoC4/BLE_hts.c **** ******************************************************************************/
 549:.\Generated_Source\PSoC4/BLE_hts.c **** CYBLE_API_RESULT_T CyBle_HtssSendIndication(CYBLE_CONN_HANDLE_T connHandle,
 550:.\Generated_Source\PSoC4/BLE_hts.c ****     CYBLE_HTS_CHAR_INDEX_T charIndex, uint8 attrSize, uint8 *attrValue)
 551:.\Generated_Source\PSoC4/BLE_hts.c **** {
 1157              		.loc 1 551 0
 1158              		.cfi_startproc
 1159 0000 90B5     		push	{r4, r7, lr}
 1160              		.cfi_def_cfa_offset 12
 1161              		.cfi_offset 4, -12
 1162              		.cfi_offset 7, -8
 1163              		.cfi_offset 14, -4
 1164 0002 89B0     		sub	sp, sp, #36
 1165              		.cfi_def_cfa_offset 48
 1166 0004 00AF     		add	r7, sp, #0
 1167              		.cfi_def_cfa_register 7
 1168 0006 3C1C     		mov	r4, r7
 1169 0008 0C34     		add	r4, r4, #12
 1170 000a 2080     		strh	r0, [r4]
 1171 000c 7B60     		str	r3, [r7, #4]
 1172 000e 3B1C     		mov	r3, r7
 1173 0010 0B33     		add	r3, r3, #11
 1174 0012 1970     		strb	r1, [r3]
 1175 0014 3B1C     		mov	r3, r7
 1176 0016 0A33     		add	r3, r3, #10
 1177 0018 1A70     		strb	r2, [r3]
 552:.\Generated_Source\PSoC4/BLE_hts.c ****     CYBLE_API_RESULT_T apiResult;
 553:.\Generated_Source\PSoC4/BLE_hts.c ****     
 554:.\Generated_Source\PSoC4/BLE_hts.c ****     /* Send Notification if it is enabled and connected */
 555:.\Generated_Source\PSoC4/BLE_hts.c ****     if(CYBLE_STATE_CONNECTED != CyBle_GetState())
 1178              		.loc 1 555 0
 1179 001a 314B     		ldr	r3, .L68
 1180 001c 1B78     		ldrb	r3, [r3]
 1181 001e 022B     		cmp	r3, #2
 1182 0020 05D0     		beq	.L63
 556:.\Generated_Source\PSoC4/BLE_hts.c ****     {
 557:.\Generated_Source\PSoC4/BLE_hts.c ****         apiResult = CYBLE_ERROR_INVALID_STATE;
 1183              		.loc 1 557 0
 1184 0022 3B1C     		mov	r3, r7
 1185 0024 1E33     		add	r3, r3, #30
 1186 0026 8322     		mov	r2, #131
 1187 0028 5200     		lsl	r2, r2, #1
 1188 002a 1A80     		strh	r2, [r3]
 1189 002c 50E0     		b	.L64
 1190              	.L63:
 558:.\Generated_Source\PSoC4/BLE_hts.c ****     }
 559:.\Generated_Source\PSoC4/BLE_hts.c ****     else if(!CYBLE_IS_INDICATION_ENABLED(cyBle_htss.charInfo[charIndex].descrHandle[CYBLE_HTS_CCCD]
 1191              		.loc 1 559 0
 1192 002e 3B1C     		mov	r3, r7
 1193 0030 0B33     		add	r3, r3, #11
 1194 0032 1A78     		ldrb	r2, [r3]
 1195 0034 2B49     		ldr	r1, .L68+4
 1196 0036 131C     		mov	r3, r2
 1197 0038 5B00     		lsl	r3, r3, #1
 1198 003a 9B18     		add	r3, r3, r2
 1199 003c 5B00     		lsl	r3, r3, #1
 1200 003e CB18     		add	r3, r1, r3
ARM GAS  C:\Users\Zachary\AppData\Local\Temp\ccv8jLse.s 			page 32


 1201 0040 9B88     		ldrh	r3, [r3, #4]
 1202 0042 5A1E     		sub	r2, r3, #1
 1203 0044 2849     		ldr	r1, .L68+8
 1204 0046 131C     		mov	r3, r2
 1205 0048 9B00     		lsl	r3, r3, #2
 1206 004a 9B18     		add	r3, r3, r2
 1207 004c 9B00     		lsl	r3, r3, #2
 1208 004e CB18     		add	r3, r1, r3
 1209 0050 0833     		add	r3, r3, #8
 1210 0052 9B68     		ldr	r3, [r3, #8]
 1211 0054 181C     		mov	r0, r3
 1212 0056 FFF7FEFF 		bl	CyBle_Get16ByPtr
 1213 005a 031C     		mov	r3, r0
 1214 005c 1A1C     		mov	r2, r3
 1215 005e 0223     		mov	r3, #2
 1216 0060 1340     		and	r3, r2
 1217 0062 9BB2     		uxth	r3, r3
 1218 0064 002B     		cmp	r3, #0
 1219 0066 05D1     		bne	.L65
 560:.\Generated_Source\PSoC4/BLE_hts.c ****     {
 561:.\Generated_Source\PSoC4/BLE_hts.c ****         apiResult = CYBLE_ERROR_IND_DISABLED;
 1220              		.loc 1 561 0
 1221 0068 3B1C     		mov	r3, r7
 1222 006a 1E33     		add	r3, r3, #30
 1223 006c 8222     		mov	r2, #130
 1224 006e 5200     		lsl	r2, r2, #1
 1225 0070 1A80     		strh	r2, [r3]
 1226 0072 2DE0     		b	.L64
 1227              	.L65:
 1228              	.LBB5:
 562:.\Generated_Source\PSoC4/BLE_hts.c ****     }
 563:.\Generated_Source\PSoC4/BLE_hts.c ****     else
 564:.\Generated_Source\PSoC4/BLE_hts.c ****     {
 565:.\Generated_Source\PSoC4/BLE_hts.c ****         CYBLE_GATTS_HANDLE_VALUE_NTF_T ntfReqParam;
 566:.\Generated_Source\PSoC4/BLE_hts.c ****         
 567:.\Generated_Source\PSoC4/BLE_hts.c ****         /* Fill all fields of write request structure ... */
 568:.\Generated_Source\PSoC4/BLE_hts.c ****         ntfReqParam.attrHandle = cyBle_htss.charInfo[charIndex].charHandle;
 1229              		.loc 1 568 0
 1230 0074 3B1C     		mov	r3, r7
 1231 0076 0B33     		add	r3, r3, #11
 1232 0078 1A78     		ldrb	r2, [r3]
 1233 007a 1A49     		ldr	r1, .L68+4
 1234 007c 131C     		mov	r3, r2
 1235 007e 5B00     		lsl	r3, r3, #1
 1236 0080 9B18     		add	r3, r3, r2
 1237 0082 5B00     		lsl	r3, r3, #1
 1238 0084 CB18     		add	r3, r1, r3
 1239 0086 5A88     		ldrh	r2, [r3, #2]
 1240 0088 3B1C     		mov	r3, r7
 1241 008a 1033     		add	r3, r3, #16
 1242 008c 1A81     		strh	r2, [r3, #8]
 569:.\Generated_Source\PSoC4/BLE_hts.c ****         ntfReqParam.value.val = attrValue;
 1243              		.loc 1 569 0
 1244 008e 3B1C     		mov	r3, r7
 1245 0090 1033     		add	r3, r3, #16
 1246 0092 7A68     		ldr	r2, [r7, #4]
 1247 0094 1A60     		str	r2, [r3]
ARM GAS  C:\Users\Zachary\AppData\Local\Temp\ccv8jLse.s 			page 33


 570:.\Generated_Source\PSoC4/BLE_hts.c ****         ntfReqParam.value.len = attrSize;
 1248              		.loc 1 570 0
 1249 0096 3B1C     		mov	r3, r7
 1250 0098 0A33     		add	r3, r3, #10
 1251 009a 1B78     		ldrb	r3, [r3]
 1252 009c 9AB2     		uxth	r2, r3
 1253 009e 3B1C     		mov	r3, r7
 1254 00a0 1033     		add	r3, r3, #16
 1255 00a2 9A80     		strh	r2, [r3, #4]
 571:.\Generated_Source\PSoC4/BLE_hts.c ****         
 572:.\Generated_Source\PSoC4/BLE_hts.c ****         /* Send indication to client using previously filled structure */
 573:.\Generated_Source\PSoC4/BLE_hts.c ****         apiResult = CyBle_GattsIndication(connHandle, &ntfReqParam);
 1256              		.loc 1 573 0
 1257 00a4 3C1C     		mov	r4, r7
 1258 00a6 1E34     		add	r4, r4, #30
 1259 00a8 3B1C     		mov	r3, r7
 1260 00aa 0C33     		add	r3, r3, #12
 1261 00ac 3A1C     		mov	r2, r7
 1262 00ae 1032     		add	r2, r2, #16
 1263 00b0 1868     		ldr	r0, [r3]
 1264 00b2 111C     		mov	r1, r2
 1265 00b4 FFF7FEFF 		bl	CyBle_GattsIndication
 1266 00b8 031C     		mov	r3, r0
 1267 00ba 2380     		strh	r3, [r4]
 574:.\Generated_Source\PSoC4/BLE_hts.c ****         /* Save handle to support service specific value confirmation response from client */
 575:.\Generated_Source\PSoC4/BLE_hts.c ****         if(apiResult == CYBLE_ERROR_OK)
 1268              		.loc 1 575 0
 1269 00bc 3B1C     		mov	r3, r7
 1270 00be 1E33     		add	r3, r3, #30
 1271 00c0 1B88     		ldrh	r3, [r3]
 1272 00c2 002B     		cmp	r3, #0
 1273 00c4 04D1     		bne	.L64
 576:.\Generated_Source\PSoC4/BLE_hts.c ****         {
 577:.\Generated_Source\PSoC4/BLE_hts.c ****             cyBle_htssReqHandle = ntfReqParam.attrHandle;
 1274              		.loc 1 577 0
 1275 00c6 3B1C     		mov	r3, r7
 1276 00c8 1033     		add	r3, r3, #16
 1277 00ca 1A89     		ldrh	r2, [r3, #8]
 1278 00cc 074B     		ldr	r3, .L68+12
 1279 00ce 1A80     		strh	r2, [r3]
 1280              	.L64:
 1281              	.LBE5:
 578:.\Generated_Source\PSoC4/BLE_hts.c ****         }
 579:.\Generated_Source\PSoC4/BLE_hts.c ****     }
 580:.\Generated_Source\PSoC4/BLE_hts.c ****     return (apiResult);
 1282              		.loc 1 580 0
 1283 00d0 3B1C     		mov	r3, r7
 1284 00d2 1E33     		add	r3, r3, #30
 1285 00d4 1B88     		ldrh	r3, [r3]
 581:.\Generated_Source\PSoC4/BLE_hts.c **** }
 1286              		.loc 1 581 0
 1287 00d6 181C     		mov	r0, r3
 1288 00d8 BD46     		mov	sp, r7
 1289 00da 09B0     		add	sp, sp, #36
 1290              		@ sp needed
 1291 00dc 90BD     		pop	{r4, r7, pc}
 1292              	.L69:
ARM GAS  C:\Users\Zachary\AppData\Local\Temp\ccv8jLse.s 			page 34


 1293 00de C046     		.align	2
 1294              	.L68:
 1295 00e0 00000000 		.word	cyBle_state
 1296 00e4 00000000 		.word	cyBle_htss
 1297 00e8 00000000 		.word	cyBle_gattDB
 1298 00ec 04000000 		.word	cyBle_htssReqHandle
 1299              		.cfi_endproc
 1300              	.LFE10:
 1301              		.size	CyBle_HtssSendIndication, .-CyBle_HtssSendIndication
 1302              		.section	.text.CyBle_HtssConfirmationEventHandler,"ax",%progbits
 1303              		.align	2
 1304              		.global	CyBle_HtssConfirmationEventHandler
 1305              		.code	16
 1306              		.thumb_func
 1307              		.type	CyBle_HtssConfirmationEventHandler, %function
 1308              	CyBle_HtssConfirmationEventHandler:
 1309              	.LFB11:
 582:.\Generated_Source\PSoC4/BLE_hts.c **** 
 583:.\Generated_Source\PSoC4/BLE_hts.c **** 
 584:.\Generated_Source\PSoC4/BLE_hts.c **** /******************************************************************************
 585:.\Generated_Source\PSoC4/BLE_hts.c **** ##Function Name: CyBle_HtssConfirmationEventHandler
 586:.\Generated_Source\PSoC4/BLE_hts.c **** *******************************************************************************
 587:.\Generated_Source\PSoC4/BLE_hts.c **** 
 588:.\Generated_Source\PSoC4/BLE_hts.c **** Summary:
 589:.\Generated_Source\PSoC4/BLE_hts.c ****  Handles a Value Confirmation request event from the BLE stack.
 590:.\Generated_Source\PSoC4/BLE_hts.c **** 
 591:.\Generated_Source\PSoC4/BLE_hts.c **** Parameters:
 592:.\Generated_Source\PSoC4/BLE_hts.c ****  *eventParam - The pointer to a structure of type CYBLE_CONN_HANDLE_T.
 593:.\Generated_Source\PSoC4/BLE_hts.c **** 
 594:.\Generated_Source\PSoC4/BLE_hts.c **** Return:
 595:.\Generated_Source\PSoC4/BLE_hts.c ****  None
 596:.\Generated_Source\PSoC4/BLE_hts.c **** 
 597:.\Generated_Source\PSoC4/BLE_hts.c **** ******************************************************************************/
 598:.\Generated_Source\PSoC4/BLE_hts.c **** void CyBle_HtssConfirmationEventHandler(const CYBLE_CONN_HANDLE_T *eventParam)
 599:.\Generated_Source\PSoC4/BLE_hts.c **** {
 1310              		.loc 1 599 0
 1311              		.cfi_startproc
 1312 0000 80B5     		push	{r7, lr}
 1313              		.cfi_def_cfa_offset 8
 1314              		.cfi_offset 7, -8
 1315              		.cfi_offset 14, -4
 1316 0002 86B0     		sub	sp, sp, #24
 1317              		.cfi_def_cfa_offset 32
 1318 0004 00AF     		add	r7, sp, #0
 1319              		.cfi_def_cfa_register 7
 1320 0006 7860     		str	r0, [r7, #4]
 600:.\Generated_Source\PSoC4/BLE_hts.c ****     CYBLE_HTS_CHAR_INDEX_T locCharIndex;
 601:.\Generated_Source\PSoC4/BLE_hts.c ****     CYBLE_HTS_CHAR_VALUE_T locCharValue;
 602:.\Generated_Source\PSoC4/BLE_hts.c ****     uint8 locReqHandle = 0u;
 1321              		.loc 1 602 0
 1322 0008 3B1C     		mov	r3, r7
 1323 000a 1633     		add	r3, r3, #22
 1324 000c 0022     		mov	r2, #0
 1325 000e 1A70     		strb	r2, [r3]
 603:.\Generated_Source\PSoC4/BLE_hts.c **** 
 604:.\Generated_Source\PSoC4/BLE_hts.c ****     if((NULL != CyBle_HtsApplCallback) && (CYBLE_GATT_INVALID_ATTR_HANDLE_VALUE != cyBle_htssReqHan
 1326              		.loc 1 604 0
ARM GAS  C:\Users\Zachary\AppData\Local\Temp\ccv8jLse.s 			page 35


 1327 0010 2D4B     		ldr	r3, .L75
 1328 0012 1B68     		ldr	r3, [r3]
 1329 0014 002B     		cmp	r3, #0
 1330 0016 54D0     		beq	.L70
 1331              		.loc 1 604 0 is_stmt 0 discriminator 1
 1332 0018 2C4B     		ldr	r3, .L75+4
 1333 001a 1B88     		ldrh	r3, [r3]
 1334 001c 002B     		cmp	r3, #0
 1335 001e 50D0     		beq	.L70
 605:.\Generated_Source\PSoC4/BLE_hts.c ****     {
 606:.\Generated_Source\PSoC4/BLE_hts.c ****         for(locCharIndex = CYBLE_HTS_TEMP_MEASURE; (locCharIndex < CYBLE_HTS_CHAR_COUNT) && (locReq
 1336              		.loc 1 606 0 is_stmt 1
 1337 0020 3B1C     		mov	r3, r7
 1338 0022 1733     		add	r3, r3, #23
 1339 0024 0022     		mov	r2, #0
 1340 0026 1A70     		strb	r2, [r3]
 1341 0028 41E0     		b	.L72
 1342              	.L74:
 607:.\Generated_Source\PSoC4/BLE_hts.c ****             locCharIndex++)
 608:.\Generated_Source\PSoC4/BLE_hts.c ****         {
 609:.\Generated_Source\PSoC4/BLE_hts.c ****             if(cyBle_htssReqHandle == cyBle_htss.charInfo[locCharIndex].charHandle)
 1343              		.loc 1 609 0
 1344 002a 3B1C     		mov	r3, r7
 1345 002c 1733     		add	r3, r3, #23
 1346 002e 1A78     		ldrb	r2, [r3]
 1347 0030 2749     		ldr	r1, .L75+8
 1348 0032 131C     		mov	r3, r2
 1349 0034 5B00     		lsl	r3, r3, #1
 1350 0036 9B18     		add	r3, r3, r2
 1351 0038 5B00     		lsl	r3, r3, #1
 1352 003a CB18     		add	r3, r1, r3
 1353 003c 5A88     		ldrh	r2, [r3, #2]
 1354 003e 234B     		ldr	r3, .L75+4
 1355 0040 1B88     		ldrh	r3, [r3]
 1356 0042 9A42     		cmp	r2, r3
 1357 0044 2CD1     		bne	.L73
 610:.\Generated_Source\PSoC4/BLE_hts.c ****             {
 611:.\Generated_Source\PSoC4/BLE_hts.c ****                 locCharValue.connHandle = *eventParam;
 1358              		.loc 1 611 0
 1359 0046 3A1C     		mov	r2, r7
 1360 0048 0C32     		add	r2, r2, #12
 1361 004a 7B68     		ldr	r3, [r7, #4]
 1362 004c 111C     		mov	r1, r2
 1363 004e 1A1C     		mov	r2, r3
 1364 0050 0223     		mov	r3, #2
 1365 0052 081C     		mov	r0, r1
 1366 0054 111C     		mov	r1, r2
 1367 0056 1A1C     		mov	r2, r3
 1368 0058 FFF7FEFF 		bl	memcpy
 612:.\Generated_Source\PSoC4/BLE_hts.c ****                 locCharValue.charIndex = locCharIndex;
 1369              		.loc 1 612 0
 1370 005c 3B1C     		mov	r3, r7
 1371 005e 0C33     		add	r3, r3, #12
 1372 0060 3A1C     		mov	r2, r7
 1373 0062 1732     		add	r2, r2, #23
 1374 0064 1278     		ldrb	r2, [r2]
 1375 0066 9A70     		strb	r2, [r3, #2]
ARM GAS  C:\Users\Zachary\AppData\Local\Temp\ccv8jLse.s 			page 36


 613:.\Generated_Source\PSoC4/BLE_hts.c ****                 locCharValue.value = NULL;
 1376              		.loc 1 613 0
 1377 0068 3B1C     		mov	r3, r7
 1378 006a 0C33     		add	r3, r3, #12
 1379 006c 0022     		mov	r2, #0
 1380 006e 5A60     		str	r2, [r3, #4]
 614:.\Generated_Source\PSoC4/BLE_hts.c ****                 cyBle_eventHandlerFlag &= (uint8)~CYBLE_CALLBACK;
 1381              		.loc 1 614 0
 1382 0070 184B     		ldr	r3, .L75+12
 1383 0072 1B78     		ldrb	r3, [r3]
 1384 0074 DBB2     		uxtb	r3, r3
 1385 0076 0122     		mov	r2, #1
 1386 0078 9343     		bic	r3, r2
 1387 007a DAB2     		uxtb	r2, r3
 1388 007c 154B     		ldr	r3, .L75+12
 1389 007e 1A70     		strb	r2, [r3]
 615:.\Generated_Source\PSoC4/BLE_hts.c ****                 cyBle_htssReqHandle = CYBLE_GATT_INVALID_ATTR_HANDLE_VALUE;
 1390              		.loc 1 615 0
 1391 0080 124B     		ldr	r3, .L75+4
 1392 0082 0022     		mov	r2, #0
 1393 0084 1A80     		strh	r2, [r3]
 616:.\Generated_Source\PSoC4/BLE_hts.c ****                 CyBle_HtsApplCallback((uint32)CYBLE_EVT_HTSS_INDICATION_CONFIRMED, &locCharValue);
 1394              		.loc 1 616 0
 1395 0086 104B     		ldr	r3, .L75
 1396 0088 1B68     		ldr	r3, [r3]
 1397 008a BE22     		mov	r2, #190
 1398 008c 5100     		lsl	r1, r2, #1
 1399 008e 3A1C     		mov	r2, r7
 1400 0090 0C32     		add	r2, r2, #12
 1401 0092 081C     		mov	r0, r1
 1402 0094 111C     		mov	r1, r2
 1403 0096 9847     		blx	r3
 617:.\Generated_Source\PSoC4/BLE_hts.c ****                 locReqHandle = 1u;
 1404              		.loc 1 617 0
 1405 0098 3B1C     		mov	r3, r7
 1406 009a 1633     		add	r3, r3, #22
 1407 009c 0122     		mov	r2, #1
 1408 009e 1A70     		strb	r2, [r3]
 1409              	.L73:
 607:.\Generated_Source\PSoC4/BLE_hts.c ****             locCharIndex++)
 1410              		.loc 1 607 0
 1411 00a0 3B1C     		mov	r3, r7
 1412 00a2 1733     		add	r3, r3, #23
 1413 00a4 1A78     		ldrb	r2, [r3]
 1414 00a6 3B1C     		mov	r3, r7
 1415 00a8 1733     		add	r3, r3, #23
 1416 00aa 0132     		add	r2, r2, #1
 1417 00ac 1A70     		strb	r2, [r3]
 1418              	.L72:
 606:.\Generated_Source\PSoC4/BLE_hts.c ****         for(locCharIndex = CYBLE_HTS_TEMP_MEASURE; (locCharIndex < CYBLE_HTS_CHAR_COUNT) && (locReq
 1419              		.loc 1 606 0 discriminator 1
 1420 00ae 3B1C     		mov	r3, r7
 1421 00b0 1733     		add	r3, r3, #23
 1422 00b2 1B78     		ldrb	r3, [r3]
 1423 00b4 032B     		cmp	r3, #3
 1424 00b6 04D8     		bhi	.L70
 606:.\Generated_Source\PSoC4/BLE_hts.c ****         for(locCharIndex = CYBLE_HTS_TEMP_MEASURE; (locCharIndex < CYBLE_HTS_CHAR_COUNT) && (locReq
ARM GAS  C:\Users\Zachary\AppData\Local\Temp\ccv8jLse.s 			page 37


 1425              		.loc 1 606 0 is_stmt 0 discriminator 2
 1426 00b8 3B1C     		mov	r3, r7
 1427 00ba 1633     		add	r3, r3, #22
 1428 00bc 1B78     		ldrb	r3, [r3]
 1429 00be 002B     		cmp	r3, #0
 1430 00c0 B3D0     		beq	.L74
 1431              	.L70:
 618:.\Generated_Source\PSoC4/BLE_hts.c ****             }
 619:.\Generated_Source\PSoC4/BLE_hts.c ****         }
 620:.\Generated_Source\PSoC4/BLE_hts.c ****     }
 621:.\Generated_Source\PSoC4/BLE_hts.c **** }
 1432              		.loc 1 621 0 is_stmt 1
 1433 00c2 BD46     		mov	sp, r7
 1434 00c4 06B0     		add	sp, sp, #24
 1435              		@ sp needed
 1436 00c6 80BD     		pop	{r7, pc}
 1437              	.L76:
 1438              		.align	2
 1439              	.L75:
 1440 00c8 00000000 		.word	CyBle_HtsApplCallback
 1441 00cc 04000000 		.word	cyBle_htssReqHandle
 1442 00d0 00000000 		.word	cyBle_htss
 1443 00d4 00000000 		.word	cyBle_eventHandlerFlag
 1444              		.cfi_endproc
 1445              	.LFE11:
 1446              		.size	CyBle_HtssConfirmationEventHandler, .-CyBle_HtssConfirmationEventHandler
 1447              		.text
 1448              	.Letext0:
 1449              		.file 2 ".\\Generated_Source\\PSoC4\\cytypes.h"
 1450              		.file 3 ".\\Generated_Source\\PSoC4\\BLE_Stack.h"
 1451              		.file 4 ".\\Generated_Source\\PSoC4\\BLE_StackGatt.h"
 1452              		.file 5 ".\\Generated_Source\\PSoC4\\BLE_StackGattServer.h"
 1453              		.file 6 ".\\Generated_Source\\PSoC4\\BLE_StackGattDb.h"
 1454              		.file 7 ".\\Generated_Source\\PSoC4\\BLE.h"
 1455              		.file 8 ".\\Generated_Source\\PSoC4\\BLE_dis.h"
 1456              		.file 9 ".\\Generated_Source\\PSoC4\\BLE_hts.h"
 1457              		.file 10 ".\\Generated_Source\\PSoC4\\BLE_eventHandler.h"
 1458              		.file 11 ".\\Generated_Source\\PSoC4\\BLE_gatt.h"