ARM GAS  C:\Users\Zachary\AppData\Local\Temp\ccNoimb2.s 			page 1


   1              		.cpu cortex-m0
   2              		.fpu softvfp
   3              		.eabi_attribute 20, 1
   4              		.eabi_attribute 21, 1
   5              		.eabi_attribute 23, 3
   6              		.eabi_attribute 24, 1
   7              		.eabi_attribute 25, 1
   8              		.eabi_attribute 26, 1
   9              		.eabi_attribute 30, 6
  10              		.eabi_attribute 34, 0
  11              		.eabi_attribute 18, 4
  12              		.code	16
  13              		.file	"BLE_eventHandler.c"
  14              		.text
  15              	.Ltext0:
  16              		.cfi_sections	.debug_frame
  17              		.comm	cyBle_connHandle,2,4
  18              		.comm	cyBle_eventHandlerFlag,1,1
  19              		.comm	cyBle_busyStatus,1,1
  20              		.comm	cyBle_advertisingIntervalType,1,1
  21              		.global	cyBle_authInfo
  22              		.data
  23              		.align	2
  24              		.type	cyBle_authInfo, %object
  25              		.size	cyBle_authInfo, 4
  26              	cyBle_authInfo:
  27 0000 11       		.byte	17
  28 0001 00       		.byte	0
  29 0002 10       		.byte	16
  30 0003 00       		.byte	0
  31              		.section	.text.CyBle_WriteReqHandler,"ax",%progbits
  32              		.align	2
  33              		.code	16
  34              		.thumb_func
  35              		.type	CyBle_WriteReqHandler, %function
  36              	CyBle_WriteReqHandler:
  37              	.LFB2:
  38              		.file 1 ".\\Generated_Source\\PSoC4\\BLE_eventHandler.c"
   1:.\Generated_Source\PSoC4/BLE_eventHandler.c **** /*******************************************************************************
   2:.\Generated_Source\PSoC4/BLE_eventHandler.c **** File Name: CYBLE_eventHandler.c
   3:.\Generated_Source\PSoC4/BLE_eventHandler.c **** Version 1.20
   4:.\Generated_Source\PSoC4/BLE_eventHandler.c **** 
   5:.\Generated_Source\PSoC4/BLE_eventHandler.c **** Description:
   6:.\Generated_Source\PSoC4/BLE_eventHandler.c ****  This file contains the source code for the Event Handler State Machine
   7:.\Generated_Source\PSoC4/BLE_eventHandler.c ****  of the BLE Component.
   8:.\Generated_Source\PSoC4/BLE_eventHandler.c **** 
   9:.\Generated_Source\PSoC4/BLE_eventHandler.c **** ********************************************************************************
  10:.\Generated_Source\PSoC4/BLE_eventHandler.c **** Copyright 2014-2015, Cypress Semiconductor Corporation.  All rights reserved.
  11:.\Generated_Source\PSoC4/BLE_eventHandler.c **** You may use this file only in accordance with the license, terms, conditions,
  12:.\Generated_Source\PSoC4/BLE_eventHandler.c **** disclaimers, and limitations in the end user license agreement accompanying
  13:.\Generated_Source\PSoC4/BLE_eventHandler.c **** the software package with which this file was provided.
  14:.\Generated_Source\PSoC4/BLE_eventHandler.c **** *******************************************************************************/
  15:.\Generated_Source\PSoC4/BLE_eventHandler.c **** 
  16:.\Generated_Source\PSoC4/BLE_eventHandler.c **** #include "BLE_eventHandler.h"
  17:.\Generated_Source\PSoC4/BLE_eventHandler.c **** 
  18:.\Generated_Source\PSoC4/BLE_eventHandler.c **** 
  19:.\Generated_Source\PSoC4/BLE_eventHandler.c **** /***************************************
ARM GAS  C:\Users\Zachary\AppData\Local\Temp\ccNoimb2.s 			page 2


  20:.\Generated_Source\PSoC4/BLE_eventHandler.c **** ##Private Function Prototypes
  21:.\Generated_Source\PSoC4/BLE_eventHandler.c **** ***************************************/
  22:.\Generated_Source\PSoC4/BLE_eventHandler.c **** 
  23:.\Generated_Source\PSoC4/BLE_eventHandler.c **** #if (CYBLE_GATT_ROLE_SERVER || CYBLE_GATT_ROLE_CLIENT)
  24:.\Generated_Source\PSoC4/BLE_eventHandler.c **** 
  25:.\Generated_Source\PSoC4/BLE_eventHandler.c **** static uint8 CyBle_IsDeviceAddressValid(const CYBLE_GAP_BD_ADDR_T *sflashDeviceAddress);
  26:.\Generated_Source\PSoC4/BLE_eventHandler.c **** 
  27:.\Generated_Source\PSoC4/BLE_eventHandler.c **** #endif /* CYBLE_GATT_ROLE_SERVER || CYBLE_GATT_ROLE_CLIENT */
  28:.\Generated_Source\PSoC4/BLE_eventHandler.c **** 
  29:.\Generated_Source\PSoC4/BLE_eventHandler.c **** static void CyBle_GattDisconnectEventHandler(void);
  30:.\Generated_Source\PSoC4/BLE_eventHandler.c **** static void CyBle_TimeOutEventHandler(const CYBLE_TO_REASON_CODE_T *eventParam);
  31:.\Generated_Source\PSoC4/BLE_eventHandler.c **** static void CyBle_GattConnectReqHandler(void);
  32:.\Generated_Source\PSoC4/BLE_eventHandler.c **** static void CyBle_L2Cap_ConnParamUpdateRspEventHandler(uint16 response);
  33:.\Generated_Source\PSoC4/BLE_eventHandler.c **** static void CyBle_GapConnUpdateCompleteEventHandler(const CYBLE_GAP_CONN_PARAM_UPDATED_IN_CONTROLLE
  34:.\Generated_Source\PSoC4/BLE_eventHandler.c **** 
  35:.\Generated_Source\PSoC4/BLE_eventHandler.c **** 
  36:.\Generated_Source\PSoC4/BLE_eventHandler.c **** #if (CYBLE_GATT_ROLE_SERVER)
  37:.\Generated_Source\PSoC4/BLE_eventHandler.c **** 
  38:.\Generated_Source\PSoC4/BLE_eventHandler.c **** static void CyBle_WriteReqHandler(CYBLE_GATTS_WRITE_REQ_PARAM_T *eventParam);
  39:.\Generated_Source\PSoC4/BLE_eventHandler.c **** static void CyBle_ValueConfirmation(const CYBLE_CONN_HANDLE_T *eventParam);
  40:.\Generated_Source\PSoC4/BLE_eventHandler.c **** 
  41:.\Generated_Source\PSoC4/BLE_eventHandler.c **** #endif /* CYBLE_GATT_ROLE_SERVER */
  42:.\Generated_Source\PSoC4/BLE_eventHandler.c **** 
  43:.\Generated_Source\PSoC4/BLE_eventHandler.c **** #if (CYBLE_GATT_ROLE_CLIENT)
  44:.\Generated_Source\PSoC4/BLE_eventHandler.c **** 
  45:.\Generated_Source\PSoC4/BLE_eventHandler.c **** static void CyBle_GapcDiscoverCharacteristicsEventHandler(CYBLE_DISC_CHAR_INFO_T *discCharInfo);
  46:.\Generated_Source\PSoC4/BLE_eventHandler.c **** static CYBLE_GATT_ATTR_HANDLE_RANGE_T CyBle_GetCharRange(void);
  47:.\Generated_Source\PSoC4/BLE_eventHandler.c **** static void CyBle_GattcWriteResponseEventHandler(const CYBLE_CONN_HANDLE_T *eventParam);
  48:.\Generated_Source\PSoC4/BLE_eventHandler.c **** static void CyBle_NotificationEventHandler(CYBLE_GATTC_HANDLE_VALUE_NTF_PARAM_T *eventParam);
  49:.\Generated_Source\PSoC4/BLE_eventHandler.c **** static void CyBle_IndicationEventHandler(CYBLE_GATTC_HANDLE_VALUE_IND_PARAM_T *eventParam);
  50:.\Generated_Source\PSoC4/BLE_eventHandler.c **** static void CyBle_ReadResponseEventHandler(CYBLE_GATTC_READ_RSP_PARAM_T *eventParam);
  51:.\Generated_Source\PSoC4/BLE_eventHandler.c **** 
  52:.\Generated_Source\PSoC4/BLE_eventHandler.c **** #endif /* CYBLE_GATT_ROLE_CLIENT */
  53:.\Generated_Source\PSoC4/BLE_eventHandler.c **** 
  54:.\Generated_Source\PSoC4/BLE_eventHandler.c **** 
  55:.\Generated_Source\PSoC4/BLE_eventHandler.c **** /***************************************
  56:.\Generated_Source\PSoC4/BLE_eventHandler.c **** ##Global Variables
  57:.\Generated_Source\PSoC4/BLE_eventHandler.c **** ***************************************/
  58:.\Generated_Source\PSoC4/BLE_eventHandler.c **** 
  59:.\Generated_Source\PSoC4/BLE_eventHandler.c **** /* This global variable is initialized after connection with peer device, 
  60:.\Generated_Source\PSoC4/BLE_eventHandler.c ****    after CYBLE_EVT_GATT_CONNECT_IND event, and could be used by application code
  61:.\Generated_Source\PSoC4/BLE_eventHandler.c ****    to send data to peer device. 
  62:.\Generated_Source\PSoC4/BLE_eventHandler.c **** */
  63:.\Generated_Source\PSoC4/BLE_eventHandler.c **** CYBLE_CONN_HANDLE_T cyBle_connHandle;
  64:.\Generated_Source\PSoC4/BLE_eventHandler.c **** 
  65:.\Generated_Source\PSoC4/BLE_eventHandler.c **** volatile uint8 cyBle_eventHandlerFlag;
  66:.\Generated_Source\PSoC4/BLE_eventHandler.c **** volatile uint8 cyBle_busyStatus;
  67:.\Generated_Source\PSoC4/BLE_eventHandler.c **** 
  68:.\Generated_Source\PSoC4/BLE_eventHandler.c **** #if(CYBLE_GAP_ROLE_PERIPHERAL || CYBLE_GAP_ROLE_BROADCASTER) 
  69:.\Generated_Source\PSoC4/BLE_eventHandler.c ****     uint8 cyBle_advertisingIntervalType;
  70:.\Generated_Source\PSoC4/BLE_eventHandler.c **** #endif /* CYBLE_GAP_ROLE_PERIPHERAL || CYBLE_GAP_ROLE_BROADCASTER) */
  71:.\Generated_Source\PSoC4/BLE_eventHandler.c **** 
  72:.\Generated_Source\PSoC4/BLE_eventHandler.c **** #if(CYBLE_GAP_ROLE_CENTRAL || CYBLE_GAP_ROLE_OBSERVER) 
  73:.\Generated_Source\PSoC4/BLE_eventHandler.c ****     uint8 cyBle_scanningIntervalType;
  74:.\Generated_Source\PSoC4/BLE_eventHandler.c **** #endif /* CYBLE_GAP_ROLE_CENTRAL || CYBLE_GAP_ROLE_OBSERVER */
  75:.\Generated_Source\PSoC4/BLE_eventHandler.c **** 
  76:.\Generated_Source\PSoC4/BLE_eventHandler.c **** #if(CYBLE_GATT_ROLE_CLIENT)
ARM GAS  C:\Users\Zachary\AppData\Local\Temp\ccNoimb2.s 			page 3


  77:.\Generated_Source\PSoC4/BLE_eventHandler.c **** uint8 cyBle_disCount; /* Counter for discovery procedures */
  78:.\Generated_Source\PSoC4/BLE_eventHandler.c **** static CYBLE_GATT_DB_ATTR_HANDLE_T cyBle_charEndHandle;
  79:.\Generated_Source\PSoC4/BLE_eventHandler.c **** #ifdef CYBLE_HIDS_CLIENT
  80:.\Generated_Source\PSoC4/BLE_eventHandler.c ****     static uint8 disServiceIndex;      /* To discovery descriptors for multiple HID service instanc
  81:.\Generated_Source\PSoC4/BLE_eventHandler.c **** #endif /* CYBLE_HIDS_CLIENT */
  82:.\Generated_Source\PSoC4/BLE_eventHandler.c **** 
  83:.\Generated_Source\PSoC4/BLE_eventHandler.c **** CYBLE_DISC_SRVC_INFO_T cyBle_serverInfo[CYBLE_SRVI_COUNT] = /*5*/
  84:.\Generated_Source\PSoC4/BLE_eventHandler.c **** {
  85:.\Generated_Source\PSoC4/BLE_eventHandler.c ****     {{CYBLE_GATT_INVALID_ATTR_HANDLE_VALUE, CYBLE_GATT_INVALID_ATTR_HANDLE_VALUE}, CYBLE_UUID_GAP_S
  86:.\Generated_Source\PSoC4/BLE_eventHandler.c ****     {{CYBLE_GATT_INVALID_ATTR_HANDLE_VALUE, CYBLE_GATT_INVALID_ATTR_HANDLE_VALUE}, CYBLE_UUID_GATT_
  87:.\Generated_Source\PSoC4/BLE_eventHandler.c **** #ifdef CYBLE_ANS_CLIENT
  88:.\Generated_Source\PSoC4/BLE_eventHandler.c ****     {{CYBLE_GATT_INVALID_ATTR_HANDLE_VALUE, CYBLE_GATT_INVALID_ATTR_HANDLE_VALUE}, CYBLE_UUID_ALERT
  89:.\Generated_Source\PSoC4/BLE_eventHandler.c **** #endif /* CYBLE_ANS_CLIENT */
  90:.\Generated_Source\PSoC4/BLE_eventHandler.c **** #ifdef CYBLE_BAS_CLIENT
  91:.\Generated_Source\PSoC4/BLE_eventHandler.c ****     {{CYBLE_GATT_INVALID_ATTR_HANDLE_VALUE, CYBLE_GATT_INVALID_ATTR_HANDLE_VALUE}, CYBLE_UUID_BAS_S
  92:.\Generated_Source\PSoC4/BLE_eventHandler.c ****     #if(CYBLE_BASC_SERVICE_COUNT > 1u) /* Generate it by GUI */
  93:.\Generated_Source\PSoC4/BLE_eventHandler.c ****         
  94:.\Generated_Source\PSoC4/BLE_eventHandler.c ****     #endif /* CYBLE_BASC_SERVICE_COUNT > 1u */
  95:.\Generated_Source\PSoC4/BLE_eventHandler.c **** #endif /* CYBLE_BAS_CLIENT */
  96:.\Generated_Source\PSoC4/BLE_eventHandler.c **** #ifdef CYBLE_BLS_CLIENT
  97:.\Generated_Source\PSoC4/BLE_eventHandler.c ****     {{CYBLE_GATT_INVALID_ATTR_HANDLE_VALUE, CYBLE_GATT_INVALID_ATTR_HANDLE_VALUE}, CYBLE_UUID_BLOOD
  98:.\Generated_Source\PSoC4/BLE_eventHandler.c **** #endif /* CYBLE_BLS_CLIENT */
  99:.\Generated_Source\PSoC4/BLE_eventHandler.c **** #ifdef CYBLE_CGMS_CLIENT
 100:.\Generated_Source\PSoC4/BLE_eventHandler.c ****     {{CYBLE_GATT_INVALID_ATTR_HANDLE_VALUE, CYBLE_GATT_INVALID_ATTR_HANDLE_VALUE}, CYBLE_UUID_CGM_S
 101:.\Generated_Source\PSoC4/BLE_eventHandler.c **** #endif /* CYBLE_CGMS_CLIENT */
 102:.\Generated_Source\PSoC4/BLE_eventHandler.c **** #ifdef CYBLE_CPS_CLIENT
 103:.\Generated_Source\PSoC4/BLE_eventHandler.c ****     {{CYBLE_GATT_INVALID_ATTR_HANDLE_VALUE, CYBLE_GATT_INVALID_ATTR_HANDLE_VALUE}, CYBLE_UUID_CPS_S
 104:.\Generated_Source\PSoC4/BLE_eventHandler.c **** #endif /* CYBLE_CPS_CLIENT */
 105:.\Generated_Source\PSoC4/BLE_eventHandler.c **** #ifdef CYBLE_CSCS_CLIENT
 106:.\Generated_Source\PSoC4/BLE_eventHandler.c ****     {{CYBLE_GATT_INVALID_ATTR_HANDLE_VALUE, CYBLE_GATT_INVALID_ATTR_HANDLE_VALUE}, CYBLE_UUID_CYCLI
 107:.\Generated_Source\PSoC4/BLE_eventHandler.c **** #endif /* CYBLE_CSCS_CLIENT */
 108:.\Generated_Source\PSoC4/BLE_eventHandler.c **** #ifdef CYBLE_CTS_CLIENT
 109:.\Generated_Source\PSoC4/BLE_eventHandler.c ****     {{CYBLE_GATT_INVALID_ATTR_HANDLE_VALUE, CYBLE_GATT_INVALID_ATTR_HANDLE_VALUE}, CYBLE_UUID_CURRE
 110:.\Generated_Source\PSoC4/BLE_eventHandler.c **** #endif /* CYBLE_CTS_CLIENT */
 111:.\Generated_Source\PSoC4/BLE_eventHandler.c **** #ifdef CYBLE_DIS_CLIENT
 112:.\Generated_Source\PSoC4/BLE_eventHandler.c ****     {{CYBLE_GATT_INVALID_ATTR_HANDLE_VALUE, CYBLE_GATT_INVALID_ATTR_HANDLE_VALUE}, CYBLE_UUID_DEVIC
 113:.\Generated_Source\PSoC4/BLE_eventHandler.c **** #endif /* CYBLE_DIS_CLIENT */
 114:.\Generated_Source\PSoC4/BLE_eventHandler.c **** #ifdef CYBLE_GLS_CLIENT
 115:.\Generated_Source\PSoC4/BLE_eventHandler.c ****     {{CYBLE_GATT_INVALID_ATTR_HANDLE_VALUE, CYBLE_GATT_INVALID_ATTR_HANDLE_VALUE}, CYBLE_UUID_GLUCO
 116:.\Generated_Source\PSoC4/BLE_eventHandler.c **** #endif /* CYBLE_GLS_CLIENT */
 117:.\Generated_Source\PSoC4/BLE_eventHandler.c **** #ifdef CYBLE_HIDS_CLIENT
 118:.\Generated_Source\PSoC4/BLE_eventHandler.c ****     {{CYBLE_GATT_INVALID_ATTR_HANDLE_VALUE, CYBLE_GATT_INVALID_ATTR_HANDLE_VALUE}, CYBLE_UUID_HIDS_
 119:.\Generated_Source\PSoC4/BLE_eventHandler.c ****     #if(CYBLE_HIDSC_SERVICE_COUNT > 1u) /* Generate it by GUI */
 120:.\Generated_Source\PSoC4/BLE_eventHandler.c ****         
 121:.\Generated_Source\PSoC4/BLE_eventHandler.c ****     #endif /* CYBLE_HIDSC_SERVICE_COUNT > 1u */
 122:.\Generated_Source\PSoC4/BLE_eventHandler.c **** #endif /* CYBLE_HIDS_CLIENT */
 123:.\Generated_Source\PSoC4/BLE_eventHandler.c **** #ifdef CYBLE_HRS_CLIENT
 124:.\Generated_Source\PSoC4/BLE_eventHandler.c ****     {{CYBLE_GATT_INVALID_ATTR_HANDLE_VALUE, CYBLE_GATT_INVALID_ATTR_HANDLE_VALUE}, CYBLE_UUID_HEART
 125:.\Generated_Source\PSoC4/BLE_eventHandler.c **** #endif /* CYBLE_HRS_CLIENT */
 126:.\Generated_Source\PSoC4/BLE_eventHandler.c **** #ifdef CYBLE_HTS_CLIENT
 127:.\Generated_Source\PSoC4/BLE_eventHandler.c ****     {{CYBLE_GATT_INVALID_ATTR_HANDLE_VALUE, CYBLE_GATT_INVALID_ATTR_HANDLE_VALUE}, CYBLE_UUID_HEALT
 128:.\Generated_Source\PSoC4/BLE_eventHandler.c **** #endif /* CYBLE_HTS_CLIENT */
 129:.\Generated_Source\PSoC4/BLE_eventHandler.c **** #ifdef CYBLE_IAS_CLIENT
 130:.\Generated_Source\PSoC4/BLE_eventHandler.c ****     {{CYBLE_GATT_INVALID_ATTR_HANDLE_VALUE, CYBLE_GATT_INVALID_ATTR_HANDLE_VALUE}, CYBLE_UUID_IMMED
 131:.\Generated_Source\PSoC4/BLE_eventHandler.c **** #endif /* CYBLE_IAS_CLIENT */
 132:.\Generated_Source\PSoC4/BLE_eventHandler.c **** #ifdef CYBLE_LLS_CLIENT
 133:.\Generated_Source\PSoC4/BLE_eventHandler.c ****     {{CYBLE_GATT_INVALID_ATTR_HANDLE_VALUE, CYBLE_GATT_INVALID_ATTR_HANDLE_VALUE}, CYBLE_UUID_LINK_
ARM GAS  C:\Users\Zachary\AppData\Local\Temp\ccNoimb2.s 			page 4


 134:.\Generated_Source\PSoC4/BLE_eventHandler.c **** #endif /* CYBLE_LLS_CLIENT */
 135:.\Generated_Source\PSoC4/BLE_eventHandler.c **** #ifdef CYBLE_LNS_CLIENT
 136:.\Generated_Source\PSoC4/BLE_eventHandler.c ****     {{CYBLE_GATT_INVALID_ATTR_HANDLE_VALUE, CYBLE_GATT_INVALID_ATTR_HANDLE_VALUE}, CYBLE_UUID_LOCAT
 137:.\Generated_Source\PSoC4/BLE_eventHandler.c **** #endif /* CYBLE_LNS_CLIENT */
 138:.\Generated_Source\PSoC4/BLE_eventHandler.c **** #ifdef CYBLE_NDCS_CLIENT
 139:.\Generated_Source\PSoC4/BLE_eventHandler.c ****     {{CYBLE_GATT_INVALID_ATTR_HANDLE_VALUE, CYBLE_GATT_INVALID_ATTR_HANDLE_VALUE}, CYBLE_UUID_NEXT_
 140:.\Generated_Source\PSoC4/BLE_eventHandler.c **** #endif /* CYBLE_NDCS_CLIENT */
 141:.\Generated_Source\PSoC4/BLE_eventHandler.c **** #ifdef CYBLE_PASS_CLIENT
 142:.\Generated_Source\PSoC4/BLE_eventHandler.c ****     {{CYBLE_GATT_INVALID_ATTR_HANDLE_VALUE, CYBLE_GATT_INVALID_ATTR_HANDLE_VALUE}, CYBLE_UUID_PHONE
 143:.\Generated_Source\PSoC4/BLE_eventHandler.c **** #endif /* CYBLE_PASS_CLIENT */
 144:.\Generated_Source\PSoC4/BLE_eventHandler.c **** #ifdef CYBLE_RSCS_CLIENT
 145:.\Generated_Source\PSoC4/BLE_eventHandler.c ****     {{CYBLE_GATT_INVALID_ATTR_HANDLE_VALUE, CYBLE_GATT_INVALID_ATTR_HANDLE_VALUE}, CYBLE_UUID_RUNNI
 146:.\Generated_Source\PSoC4/BLE_eventHandler.c **** #endif /* CYBLE_RSCS_CLIENT */
 147:.\Generated_Source\PSoC4/BLE_eventHandler.c **** #ifdef CYBLE_RTUS_CLIENT
 148:.\Generated_Source\PSoC4/BLE_eventHandler.c ****     {{CYBLE_GATT_INVALID_ATTR_HANDLE_VALUE, CYBLE_GATT_INVALID_ATTR_HANDLE_VALUE}, CYBLE_UUID_REF_T
 149:.\Generated_Source\PSoC4/BLE_eventHandler.c **** #endif /* CYBLE_RTUS_CLIENT */
 150:.\Generated_Source\PSoC4/BLE_eventHandler.c **** #ifdef CYBLE_SCPS_CLIENT
 151:.\Generated_Source\PSoC4/BLE_eventHandler.c ****     {{CYBLE_GATT_INVALID_ATTR_HANDLE_VALUE, CYBLE_GATT_INVALID_ATTR_HANDLE_VALUE}, CYBLE_UUID_SCAN_
 152:.\Generated_Source\PSoC4/BLE_eventHandler.c **** #endif /* CYBLE_SCPS_CLIENT */
 153:.\Generated_Source\PSoC4/BLE_eventHandler.c **** #ifdef CYBLE_TPS_CLIENT
 154:.\Generated_Source\PSoC4/BLE_eventHandler.c ****     {{CYBLE_GATT_INVALID_ATTR_HANDLE_VALUE, CYBLE_GATT_INVALID_ATTR_HANDLE_VALUE}, CYBLE_UUID_TX_PO
 155:.\Generated_Source\PSoC4/BLE_eventHandler.c **** #endif /* CYBLE_TPS_CLIENT */
 156:.\Generated_Source\PSoC4/BLE_eventHandler.c **** #ifdef CYBLE_UDS_CLIENT
 157:.\Generated_Source\PSoC4/BLE_eventHandler.c ****     {{CYBLE_GATT_INVALID_ATTR_HANDLE_VALUE, CYBLE_GATT_INVALID_ATTR_HANDLE_VALUE}, CYBLE_UUID_USER_
 158:.\Generated_Source\PSoC4/BLE_eventHandler.c **** #endif /* CYBLE_UDS_CLIENT */
 159:.\Generated_Source\PSoC4/BLE_eventHandler.c **** 
 160:.\Generated_Source\PSoC4/BLE_eventHandler.c **** };
 161:.\Generated_Source\PSoC4/BLE_eventHandler.c **** 
 162:.\Generated_Source\PSoC4/BLE_eventHandler.c **** CYBLE_GAPC_T cyBle_gapc;
 163:.\Generated_Source\PSoC4/BLE_eventHandler.c **** 
 164:.\Generated_Source\PSoC4/BLE_eventHandler.c **** #endif /* CYBLE_GATT_ROLE_CLIENT */
 165:.\Generated_Source\PSoC4/BLE_eventHandler.c **** 
 166:.\Generated_Source\PSoC4/BLE_eventHandler.c **** /* Default device security */
 167:.\Generated_Source\PSoC4/BLE_eventHandler.c **** CYBLE_GAP_AUTH_INFO_T cyBle_authInfo =
 168:.\Generated_Source\PSoC4/BLE_eventHandler.c **** {
 169:.\Generated_Source\PSoC4/BLE_eventHandler.c ****     (CYBLE_GAP_SEC_MODE_1 | CYBLE_GAP_SEC_LEVEL_2 ), /* uint8 security */
 170:.\Generated_Source\PSoC4/BLE_eventHandler.c ****     CYBLE_GAP_BONDING_NONE, /* uint8 bonding */
 171:.\Generated_Source\PSoC4/BLE_eventHandler.c ****     0x10u,      /* uint8 ekeySize */
 172:.\Generated_Source\PSoC4/BLE_eventHandler.c ****     CYBLE_GAP_AUTH_ERROR_NONE, /* CYBLE_AUTH_FAILED_REASON_T authErr */
 173:.\Generated_Source\PSoC4/BLE_eventHandler.c **** };
 174:.\Generated_Source\PSoC4/BLE_eventHandler.c **** 
 175:.\Generated_Source\PSoC4/BLE_eventHandler.c **** #if(CYBLE_GATT_ROLE_SERVER)
 176:.\Generated_Source\PSoC4/BLE_eventHandler.c **** 
 177:.\Generated_Source\PSoC4/BLE_eventHandler.c **** 
 178:.\Generated_Source\PSoC4/BLE_eventHandler.c **** /******************************************************************************    
 179:.\Generated_Source\PSoC4/BLE_eventHandler.c **** ##Function Name: CyBle_WriteReqHandler
 180:.\Generated_Source\PSoC4/BLE_eventHandler.c **** *******************************************************************************
 181:.\Generated_Source\PSoC4/BLE_eventHandler.c **** 
 182:.\Generated_Source\PSoC4/BLE_eventHandler.c **** Summary:
 183:.\Generated_Source\PSoC4/BLE_eventHandler.c ****  Handles the Write Request event from BLE stack.
 184:.\Generated_Source\PSoC4/BLE_eventHandler.c **** 
 185:.\Generated_Source\PSoC4/BLE_eventHandler.c **** Parameters:
 186:.\Generated_Source\PSoC4/BLE_eventHandler.c ****  CYBLE_GATTS_WRITE_REQ_PARAM_T * eventParam - event parameter
 187:.\Generated_Source\PSoC4/BLE_eventHandler.c **** 
 188:.\Generated_Source\PSoC4/BLE_eventHandler.c **** Return:
 189:.\Generated_Source\PSoC4/BLE_eventHandler.c ****  None
 190:.\Generated_Source\PSoC4/BLE_eventHandler.c **** 
ARM GAS  C:\Users\Zachary\AppData\Local\Temp\ccNoimb2.s 			page 5


 191:.\Generated_Source\PSoC4/BLE_eventHandler.c **** ******************************************************************************/
 192:.\Generated_Source\PSoC4/BLE_eventHandler.c **** static void CyBle_WriteReqHandler(CYBLE_GATTS_WRITE_REQ_PARAM_T *eventParam)
 193:.\Generated_Source\PSoC4/BLE_eventHandler.c **** {
  39              		.loc 1 193 0
  40              		.cfi_startproc
  41 0000 90B5     		push	{r4, r7, lr}
  42              		.cfi_def_cfa_offset 12
  43              		.cfi_offset 4, -12
  44              		.cfi_offset 7, -8
  45              		.cfi_offset 14, -4
  46 0002 85B0     		sub	sp, sp, #20
  47              		.cfi_def_cfa_offset 32
  48 0004 00AF     		add	r7, sp, #0
  49              		.cfi_def_cfa_register 7
  50 0006 7860     		str	r0, [r7, #4]
 194:.\Generated_Source\PSoC4/BLE_eventHandler.c ****     CYBLE_GATT_ERR_CODE_T gattErr;
 195:.\Generated_Source\PSoC4/BLE_eventHandler.c ****     
 196:.\Generated_Source\PSoC4/BLE_eventHandler.c ****     gattErr = CyBle_GattsWriteEventHandler(eventParam);
  51              		.loc 1 196 0
  52 0008 3C1C     		mov	r4, r7
  53 000a 0F34     		add	r4, r4, #15
  54 000c 7B68     		ldr	r3, [r7, #4]
  55 000e 181C     		mov	r0, r3
  56 0010 FFF7FEFF 		bl	CyBle_GattsWriteEventHandler
  57 0014 031C     		mov	r3, r0
  58 0016 2370     		strb	r3, [r4]
 197:.\Generated_Source\PSoC4/BLE_eventHandler.c **** #ifdef CYBLE_ANS_SERVER
 198:.\Generated_Source\PSoC4/BLE_eventHandler.c ****     if((CYBLE_GATT_ERR_NONE == gattErr) && ((cyBle_eventHandlerFlag & CYBLE_CALLBACK) != 0u))
 199:.\Generated_Source\PSoC4/BLE_eventHandler.c ****     {
 200:.\Generated_Source\PSoC4/BLE_eventHandler.c ****         gattErr = CyBle_AnssWriteEventHandler(eventParam);
 201:.\Generated_Source\PSoC4/BLE_eventHandler.c ****     }
 202:.\Generated_Source\PSoC4/BLE_eventHandler.c **** #endif /* CYBLE_ANS_SERVER */
 203:.\Generated_Source\PSoC4/BLE_eventHandler.c **** #ifdef CYBLE_BAS_SERVER
 204:.\Generated_Source\PSoC4/BLE_eventHandler.c ****     if((CYBLE_GATT_ERR_NONE == gattErr) && ((cyBle_eventHandlerFlag & CYBLE_CALLBACK) != 0u))
  59              		.loc 1 204 0
  60 0018 3B1C     		mov	r3, r7
  61 001a 0F33     		add	r3, r3, #15
  62 001c 1B78     		ldrb	r3, [r3]
  63 001e 002B     		cmp	r3, #0
  64 0020 0ED1     		bne	.L2
  65              		.loc 1 204 0 is_stmt 0 discriminator 1
  66 0022 264B     		ldr	r3, .L6
  67 0024 1B78     		ldrb	r3, [r3]
  68 0026 DBB2     		uxtb	r3, r3
  69 0028 1A1C     		mov	r2, r3
  70 002a 0123     		mov	r3, #1
  71 002c 1340     		and	r3, r2
  72 002e 07D0     		beq	.L2
 205:.\Generated_Source\PSoC4/BLE_eventHandler.c ****     {
 206:.\Generated_Source\PSoC4/BLE_eventHandler.c ****         gattErr = CyBle_BassWriteEventHandler(eventParam);
  73              		.loc 1 206 0 is_stmt 1
  74 0030 3C1C     		mov	r4, r7
  75 0032 0F34     		add	r4, r4, #15
  76 0034 7B68     		ldr	r3, [r7, #4]
  77 0036 181C     		mov	r0, r3
  78 0038 FFF7FEFF 		bl	CyBle_BassWriteEventHandler
  79 003c 031C     		mov	r3, r0
ARM GAS  C:\Users\Zachary\AppData\Local\Temp\ccNoimb2.s 			page 6


  80 003e 2370     		strb	r3, [r4]
  81              	.L2:
 207:.\Generated_Source\PSoC4/BLE_eventHandler.c ****     }
 208:.\Generated_Source\PSoC4/BLE_eventHandler.c **** #endif /* CYBLE_BAS_SERVER */
 209:.\Generated_Source\PSoC4/BLE_eventHandler.c **** #ifdef CYBLE_BLS_SERVER
 210:.\Generated_Source\PSoC4/BLE_eventHandler.c ****     if((CYBLE_GATT_ERR_NONE == gattErr) && ((cyBle_eventHandlerFlag & CYBLE_CALLBACK) != 0u))
 211:.\Generated_Source\PSoC4/BLE_eventHandler.c ****     {
 212:.\Generated_Source\PSoC4/BLE_eventHandler.c ****         gattErr = CyBle_BlssWriteEventHandler(eventParam);
 213:.\Generated_Source\PSoC4/BLE_eventHandler.c ****     }
 214:.\Generated_Source\PSoC4/BLE_eventHandler.c **** #endif /* CYBLE_BLS_SERVER */
 215:.\Generated_Source\PSoC4/BLE_eventHandler.c **** #ifdef CYBLE_CPS_SERVER
 216:.\Generated_Source\PSoC4/BLE_eventHandler.c ****     if((CYBLE_GATT_ERR_NONE == gattErr) && ((cyBle_eventHandlerFlag & CYBLE_CALLBACK) != 0u))
 217:.\Generated_Source\PSoC4/BLE_eventHandler.c ****     {
 218:.\Generated_Source\PSoC4/BLE_eventHandler.c ****         gattErr = CyBle_CpssWriteEventHandler(eventParam);
 219:.\Generated_Source\PSoC4/BLE_eventHandler.c ****     }
 220:.\Generated_Source\PSoC4/BLE_eventHandler.c **** #endif /* CYBLE_CPS_SERVER */
 221:.\Generated_Source\PSoC4/BLE_eventHandler.c **** #ifdef CYBLE_CSCS_SERVER
 222:.\Generated_Source\PSoC4/BLE_eventHandler.c ****     if((CYBLE_GATT_ERR_NONE == gattErr) && ((cyBle_eventHandlerFlag & CYBLE_CALLBACK) != 0u))
 223:.\Generated_Source\PSoC4/BLE_eventHandler.c ****     {
 224:.\Generated_Source\PSoC4/BLE_eventHandler.c ****         gattErr = CyBle_CscssWriteEventHandler(eventParam);
 225:.\Generated_Source\PSoC4/BLE_eventHandler.c ****     }
 226:.\Generated_Source\PSoC4/BLE_eventHandler.c **** #endif /* CYBLE_CSCS_SERVER */
 227:.\Generated_Source\PSoC4/BLE_eventHandler.c **** #ifdef CYBLE_CTS_SERVER
 228:.\Generated_Source\PSoC4/BLE_eventHandler.c ****     if((CYBLE_GATT_ERR_NONE == gattErr) && ((cyBle_eventHandlerFlag & CYBLE_CALLBACK) != 0u))
 229:.\Generated_Source\PSoC4/BLE_eventHandler.c ****     {
 230:.\Generated_Source\PSoC4/BLE_eventHandler.c ****         gattErr = CyBle_CtssWriteEventHandler(eventParam);
 231:.\Generated_Source\PSoC4/BLE_eventHandler.c ****     }
 232:.\Generated_Source\PSoC4/BLE_eventHandler.c **** #endif /* CYBLE_CTS_SERVER */
 233:.\Generated_Source\PSoC4/BLE_eventHandler.c **** #ifdef CYBLE_GLS_SERVER
 234:.\Generated_Source\PSoC4/BLE_eventHandler.c ****     if((CYBLE_GATT_ERR_NONE == gattErr) && ((cyBle_eventHandlerFlag & CYBLE_CALLBACK) != 0u))
 235:.\Generated_Source\PSoC4/BLE_eventHandler.c ****     {
 236:.\Generated_Source\PSoC4/BLE_eventHandler.c ****         gattErr = CyBle_GlssWriteEventHandler(eventParam);
 237:.\Generated_Source\PSoC4/BLE_eventHandler.c ****     }
 238:.\Generated_Source\PSoC4/BLE_eventHandler.c **** #endif /* CYBLE_GLS_SERVER */
 239:.\Generated_Source\PSoC4/BLE_eventHandler.c **** #ifdef CYBLE_HIDS_SERVER
 240:.\Generated_Source\PSoC4/BLE_eventHandler.c ****     if((CYBLE_GATT_ERR_NONE == gattErr) && ((cyBle_eventHandlerFlag & CYBLE_CALLBACK) != 0u))
 241:.\Generated_Source\PSoC4/BLE_eventHandler.c ****     {
 242:.\Generated_Source\PSoC4/BLE_eventHandler.c ****         gattErr = CyBle_HidssWriteEventHandler(eventParam);
 243:.\Generated_Source\PSoC4/BLE_eventHandler.c ****     }
 244:.\Generated_Source\PSoC4/BLE_eventHandler.c **** #endif /* CYBLE_HIDS_SERVER */
 245:.\Generated_Source\PSoC4/BLE_eventHandler.c **** #ifdef CYBLE_HRS_SERVER
 246:.\Generated_Source\PSoC4/BLE_eventHandler.c ****     if((CYBLE_GATT_ERR_NONE == gattErr) && ((cyBle_eventHandlerFlag & CYBLE_CALLBACK) != 0u))
 247:.\Generated_Source\PSoC4/BLE_eventHandler.c ****     {
 248:.\Generated_Source\PSoC4/BLE_eventHandler.c ****         gattErr = CyBle_HrssWriteEventHandler(eventParam);
 249:.\Generated_Source\PSoC4/BLE_eventHandler.c ****     }
 250:.\Generated_Source\PSoC4/BLE_eventHandler.c **** #endif /* CYBLE_HRS_SERVER */
 251:.\Generated_Source\PSoC4/BLE_eventHandler.c **** #ifdef CYBLE_HTS_SERVER
 252:.\Generated_Source\PSoC4/BLE_eventHandler.c ****     if((CYBLE_GATT_ERR_NONE == gattErr) && ((cyBle_eventHandlerFlag & CYBLE_CALLBACK) != 0u))
  82              		.loc 1 252 0
  83 0040 3B1C     		mov	r3, r7
  84 0042 0F33     		add	r3, r3, #15
  85 0044 1B78     		ldrb	r3, [r3]
  86 0046 002B     		cmp	r3, #0
  87 0048 0ED1     		bne	.L3
  88              		.loc 1 252 0 is_stmt 0 discriminator 1
  89 004a 1C4B     		ldr	r3, .L6
  90 004c 1B78     		ldrb	r3, [r3]
ARM GAS  C:\Users\Zachary\AppData\Local\Temp\ccNoimb2.s 			page 7


  91 004e DBB2     		uxtb	r3, r3
  92 0050 1A1C     		mov	r2, r3
  93 0052 0123     		mov	r3, #1
  94 0054 1340     		and	r3, r2
  95 0056 07D0     		beq	.L3
 253:.\Generated_Source\PSoC4/BLE_eventHandler.c ****     {
 254:.\Generated_Source\PSoC4/BLE_eventHandler.c ****         gattErr = CyBle_HtssWriteEventHandler(eventParam);
  96              		.loc 1 254 0 is_stmt 1
  97 0058 3C1C     		mov	r4, r7
  98 005a 0F34     		add	r4, r4, #15
  99 005c 7B68     		ldr	r3, [r7, #4]
 100 005e 181C     		mov	r0, r3
 101 0060 FFF7FEFF 		bl	CyBle_HtssWriteEventHandler
 102 0064 031C     		mov	r3, r0
 103 0066 2370     		strb	r3, [r4]
 104              	.L3:
 255:.\Generated_Source\PSoC4/BLE_eventHandler.c ****     }
 256:.\Generated_Source\PSoC4/BLE_eventHandler.c **** #endif /* CYBLE_HTS_SERVER */
 257:.\Generated_Source\PSoC4/BLE_eventHandler.c **** #ifdef CYBLE_LLS_SERVER
 258:.\Generated_Source\PSoC4/BLE_eventHandler.c ****     if((CYBLE_GATT_ERR_NONE == gattErr) && ((cyBle_eventHandlerFlag & CYBLE_CALLBACK) != 0u))
 259:.\Generated_Source\PSoC4/BLE_eventHandler.c ****     {
 260:.\Generated_Source\PSoC4/BLE_eventHandler.c ****         gattErr = CyBle_LlssWriteEventHandler(eventParam);
 261:.\Generated_Source\PSoC4/BLE_eventHandler.c ****     }
 262:.\Generated_Source\PSoC4/BLE_eventHandler.c **** #endif /* CYBLE_LLS_SERVER */
 263:.\Generated_Source\PSoC4/BLE_eventHandler.c **** #ifdef CYBLE_LNS_SERVER
 264:.\Generated_Source\PSoC4/BLE_eventHandler.c ****     if((CYBLE_GATT_ERR_NONE == gattErr) && ((cyBle_eventHandlerFlag & CYBLE_CALLBACK) != 0u))
 265:.\Generated_Source\PSoC4/BLE_eventHandler.c ****     {
 266:.\Generated_Source\PSoC4/BLE_eventHandler.c ****         gattErr = CyBle_LnssWriteEventHandler(eventParam);
 267:.\Generated_Source\PSoC4/BLE_eventHandler.c ****     }
 268:.\Generated_Source\PSoC4/BLE_eventHandler.c **** #endif /* CYBLE_LNS_SERVER */
 269:.\Generated_Source\PSoC4/BLE_eventHandler.c **** #ifdef CYBLE_PASS_SERVER
 270:.\Generated_Source\PSoC4/BLE_eventHandler.c ****     if((CYBLE_GATT_ERR_NONE == gattErr) && ((cyBle_eventHandlerFlag & CYBLE_CALLBACK) != 0u))
 271:.\Generated_Source\PSoC4/BLE_eventHandler.c ****     {
 272:.\Generated_Source\PSoC4/BLE_eventHandler.c ****         gattErr = CyBle_PasssWriteEventHandler(eventParam);
 273:.\Generated_Source\PSoC4/BLE_eventHandler.c ****     }
 274:.\Generated_Source\PSoC4/BLE_eventHandler.c **** #endif /* CYBLE_PASS_SERVER */
 275:.\Generated_Source\PSoC4/BLE_eventHandler.c **** #ifdef CYBLE_RSCS_SERVER
 276:.\Generated_Source\PSoC4/BLE_eventHandler.c ****     if((CYBLE_GATT_ERR_NONE == gattErr) && ((cyBle_eventHandlerFlag & CYBLE_CALLBACK) != 0u))
 277:.\Generated_Source\PSoC4/BLE_eventHandler.c ****     {
 278:.\Generated_Source\PSoC4/BLE_eventHandler.c ****         gattErr = CyBle_RscssWriteEventHandler(eventParam);
 279:.\Generated_Source\PSoC4/BLE_eventHandler.c ****     }
 280:.\Generated_Source\PSoC4/BLE_eventHandler.c **** #endif /* CYBLE_RSCS_SERVER */
 281:.\Generated_Source\PSoC4/BLE_eventHandler.c **** #ifdef CYBLE_SCPS_SERVER
 282:.\Generated_Source\PSoC4/BLE_eventHandler.c ****     if((CYBLE_GATT_ERR_NONE == gattErr) && ((cyBle_eventHandlerFlag & CYBLE_CALLBACK) != 0u))
 283:.\Generated_Source\PSoC4/BLE_eventHandler.c ****     {
 284:.\Generated_Source\PSoC4/BLE_eventHandler.c ****         gattErr = CyBle_ScpssWriteEventHandler(eventParam);
 285:.\Generated_Source\PSoC4/BLE_eventHandler.c ****     }
 286:.\Generated_Source\PSoC4/BLE_eventHandler.c **** #endif /* CYBLE_SCPS_SERVER */
 287:.\Generated_Source\PSoC4/BLE_eventHandler.c **** #ifdef CYBLE_TPS_SERVER
 288:.\Generated_Source\PSoC4/BLE_eventHandler.c ****     if((CYBLE_GATT_ERR_NONE == gattErr) && ((cyBle_eventHandlerFlag & CYBLE_CALLBACK) != 0u))
 289:.\Generated_Source\PSoC4/BLE_eventHandler.c ****     {
 290:.\Generated_Source\PSoC4/BLE_eventHandler.c ****         gattErr = CyBle_TpssWriteEventHandler(eventParam);
 291:.\Generated_Source\PSoC4/BLE_eventHandler.c ****     }
 292:.\Generated_Source\PSoC4/BLE_eventHandler.c **** #endif /* CYBLE_TPS_SERVER */
 293:.\Generated_Source\PSoC4/BLE_eventHandler.c **** #ifdef CYBLE_UDS_SERVER
 294:.\Generated_Source\PSoC4/BLE_eventHandler.c ****     if((CYBLE_GATT_ERR_NONE == gattErr) && ((cyBle_eventHandlerFlag & CYBLE_CALLBACK) != 0u))
 295:.\Generated_Source\PSoC4/BLE_eventHandler.c ****     {
ARM GAS  C:\Users\Zachary\AppData\Local\Temp\ccNoimb2.s 			page 8


 296:.\Generated_Source\PSoC4/BLE_eventHandler.c ****         gattErr = CyBle_UdssWriteEventHandler(eventParam);
 297:.\Generated_Source\PSoC4/BLE_eventHandler.c ****     }
 298:.\Generated_Source\PSoC4/BLE_eventHandler.c **** #endif /* CYBLE_UDS_SERVER */
 299:.\Generated_Source\PSoC4/BLE_eventHandler.c **** 
 300:.\Generated_Source\PSoC4/BLE_eventHandler.c ****     /* Send response when event was handled by service */
 301:.\Generated_Source\PSoC4/BLE_eventHandler.c ****     if((cyBle_eventHandlerFlag & CYBLE_CALLBACK) == 0u)
 105              		.loc 1 301 0
 106 0068 144B     		ldr	r3, .L6
 107 006a 1B78     		ldrb	r3, [r3]
 108 006c DBB2     		uxtb	r3, r3
 109 006e 1A1C     		mov	r2, r3
 110 0070 0123     		mov	r3, #1
 111 0072 1340     		and	r3, r2
 112 0074 1FD1     		bne	.L1
 302:.\Generated_Source\PSoC4/BLE_eventHandler.c ****     {
 303:.\Generated_Source\PSoC4/BLE_eventHandler.c ****         if(CYBLE_GATT_ERR_NONE != gattErr)
 113              		.loc 1 303 0
 114 0076 3B1C     		mov	r3, r7
 115 0078 0F33     		add	r3, r3, #15
 116 007a 1B78     		ldrb	r3, [r3]
 117 007c 002B     		cmp	r3, #0
 118 007e 16D0     		beq	.L5
 119              	.LBB2:
 304:.\Generated_Source\PSoC4/BLE_eventHandler.c ****         {
 305:.\Generated_Source\PSoC4/BLE_eventHandler.c ****             CYBLE_GATTS_ERR_PARAM_T err_param;
 306:.\Generated_Source\PSoC4/BLE_eventHandler.c ****             
 307:.\Generated_Source\PSoC4/BLE_eventHandler.c ****             err_param.opcode = (uint8) CYBLE_GATT_WRITE_REQ;
 120              		.loc 1 307 0
 121 0080 3B1C     		mov	r3, r7
 122 0082 0833     		add	r3, r3, #8
 123 0084 1222     		mov	r2, #18
 124 0086 9A70     		strb	r2, [r3, #2]
 308:.\Generated_Source\PSoC4/BLE_eventHandler.c ****             err_param.attrHandle = eventParam->handleValPair.attrHandle;
 125              		.loc 1 308 0
 126 0088 7B68     		ldr	r3, [r7, #4]
 127 008a 9A89     		ldrh	r2, [r3, #12]
 128 008c 3B1C     		mov	r3, r7
 129 008e 0833     		add	r3, r3, #8
 130 0090 1A80     		strh	r2, [r3]
 309:.\Generated_Source\PSoC4/BLE_eventHandler.c ****             err_param.errorCode = gattErr;
 131              		.loc 1 309 0
 132 0092 3B1C     		mov	r3, r7
 133 0094 0833     		add	r3, r3, #8
 134 0096 3A1C     		mov	r2, r7
 135 0098 0F32     		add	r2, r2, #15
 136 009a 1278     		ldrb	r2, [r2]
 137 009c DA70     		strb	r2, [r3, #3]
 310:.\Generated_Source\PSoC4/BLE_eventHandler.c **** 
 311:.\Generated_Source\PSoC4/BLE_eventHandler.c ****             /* Send Error Response */
 312:.\Generated_Source\PSoC4/BLE_eventHandler.c ****             (void)CyBle_GattsErrorRsp(eventParam->connHandle, &err_param);
 138              		.loc 1 312 0
 139 009e 7B68     		ldr	r3, [r7, #4]
 140 00a0 3A1C     		mov	r2, r7
 141 00a2 0832     		add	r2, r2, #8
 142 00a4 1868     		ldr	r0, [r3]
 143 00a6 111C     		mov	r1, r2
 144 00a8 FFF7FEFF 		bl	CyBle_GattsErrorRsp
ARM GAS  C:\Users\Zachary\AppData\Local\Temp\ccNoimb2.s 			page 9


 145              	.LBE2:
 146 00ac 03E0     		b	.L1
 147              	.L5:
 313:.\Generated_Source\PSoC4/BLE_eventHandler.c ****         }
 314:.\Generated_Source\PSoC4/BLE_eventHandler.c ****         else
 315:.\Generated_Source\PSoC4/BLE_eventHandler.c ****         {
 316:.\Generated_Source\PSoC4/BLE_eventHandler.c ****             (void)CyBle_GattsWriteRsp(eventParam->connHandle);
 148              		.loc 1 316 0
 149 00ae 7B68     		ldr	r3, [r7, #4]
 150 00b0 1868     		ldr	r0, [r3]
 151 00b2 FFF7FEFF 		bl	CyBle_GattsWriteRsp
 152              	.L1:
 317:.\Generated_Source\PSoC4/BLE_eventHandler.c ****         }
 318:.\Generated_Source\PSoC4/BLE_eventHandler.c ****     }
 319:.\Generated_Source\PSoC4/BLE_eventHandler.c **** }
 153              		.loc 1 319 0
 154 00b6 BD46     		mov	sp, r7
 155 00b8 05B0     		add	sp, sp, #20
 156              		@ sp needed
 157 00ba 90BD     		pop	{r4, r7, pc}
 158              	.L7:
 159              		.align	2
 160              	.L6:
 161 00bc 00000000 		.word	cyBle_eventHandlerFlag
 162              		.cfi_endproc
 163              	.LFE2:
 164              		.size	CyBle_WriteReqHandler, .-CyBle_WriteReqHandler
 165              		.section	.text.CyBle_ValueConfirmation,"ax",%progbits
 166              		.align	2
 167              		.code	16
 168              		.thumb_func
 169              		.type	CyBle_ValueConfirmation, %function
 170              	CyBle_ValueConfirmation:
 171              	.LFB3:
 320:.\Generated_Source\PSoC4/BLE_eventHandler.c **** 
 321:.\Generated_Source\PSoC4/BLE_eventHandler.c **** 
 322:.\Generated_Source\PSoC4/BLE_eventHandler.c **** /****************************************************************************** 
 323:.\Generated_Source\PSoC4/BLE_eventHandler.c **** ##Function Name: CyBle_ValueConfirmation
 324:.\Generated_Source\PSoC4/BLE_eventHandler.c **** *******************************************************************************
 325:.\Generated_Source\PSoC4/BLE_eventHandler.c **** 
 326:.\Generated_Source\PSoC4/BLE_eventHandler.c **** Summary:
 327:.\Generated_Source\PSoC4/BLE_eventHandler.c ****  Handles the Value Confirmation request event from the BLE stack.
 328:.\Generated_Source\PSoC4/BLE_eventHandler.c **** 
 329:.\Generated_Source\PSoC4/BLE_eventHandler.c **** Parameters:
 330:.\Generated_Source\PSoC4/BLE_eventHandler.c ****  CYBLE_CONN_HANDLE_T *eventParam - Pointer to a structure
 331:.\Generated_Source\PSoC4/BLE_eventHandler.c ****     of type 'CYBLE_CONN_HANDLE_T'
 332:.\Generated_Source\PSoC4/BLE_eventHandler.c **** 
 333:.\Generated_Source\PSoC4/BLE_eventHandler.c **** Return:
 334:.\Generated_Source\PSoC4/BLE_eventHandler.c ****  None
 335:.\Generated_Source\PSoC4/BLE_eventHandler.c **** 
 336:.\Generated_Source\PSoC4/BLE_eventHandler.c **** ******************************************************************************/
 337:.\Generated_Source\PSoC4/BLE_eventHandler.c **** static void CyBle_ValueConfirmation(const CYBLE_CONN_HANDLE_T *eventParam)
 338:.\Generated_Source\PSoC4/BLE_eventHandler.c **** {
 172              		.loc 1 338 0
 173              		.cfi_startproc
 174 0000 80B5     		push	{r7, lr}
 175              		.cfi_def_cfa_offset 8
ARM GAS  C:\Users\Zachary\AppData\Local\Temp\ccNoimb2.s 			page 10


 176              		.cfi_offset 7, -8
 177              		.cfi_offset 14, -4
 178 0002 82B0     		sub	sp, sp, #8
 179              		.cfi_def_cfa_offset 16
 180 0004 00AF     		add	r7, sp, #0
 181              		.cfi_def_cfa_register 7
 182 0006 7860     		str	r0, [r7, #4]
 339:.\Generated_Source\PSoC4/BLE_eventHandler.c ****     if(eventParam != NULL)
 183              		.loc 1 339 0
 184 0008 7B68     		ldr	r3, [r7, #4]
 185 000a 002B     		cmp	r3, #0
 186 000c 0AD0     		beq	.L8
 340:.\Generated_Source\PSoC4/BLE_eventHandler.c ****     {
 341:.\Generated_Source\PSoC4/BLE_eventHandler.c ****     #ifdef CYBLE_BLS_SERVER
 342:.\Generated_Source\PSoC4/BLE_eventHandler.c ****         CyBle_BlssConfirmationEventHandler(eventParam);
 343:.\Generated_Source\PSoC4/BLE_eventHandler.c ****     #endif /* CYBLE_BLS_SERVER */
 344:.\Generated_Source\PSoC4/BLE_eventHandler.c ****     
 345:.\Generated_Source\PSoC4/BLE_eventHandler.c ****     #ifdef CYBLE_CPS_SERVER
 346:.\Generated_Source\PSoC4/BLE_eventHandler.c ****         if((cyBle_eventHandlerFlag & CYBLE_CALLBACK) != 0u)
 347:.\Generated_Source\PSoC4/BLE_eventHandler.c ****         {
 348:.\Generated_Source\PSoC4/BLE_eventHandler.c ****             CyBle_CpssConfirmationEventHandler(eventParam);
 349:.\Generated_Source\PSoC4/BLE_eventHandler.c ****         }
 350:.\Generated_Source\PSoC4/BLE_eventHandler.c ****     #endif /* CYBLE_CPS_SERVER */
 351:.\Generated_Source\PSoC4/BLE_eventHandler.c ****     
 352:.\Generated_Source\PSoC4/BLE_eventHandler.c ****     #ifdef CYBLE_CSCS_SERVER
 353:.\Generated_Source\PSoC4/BLE_eventHandler.c ****         if((cyBle_eventHandlerFlag & CYBLE_CALLBACK) != 0u)
 354:.\Generated_Source\PSoC4/BLE_eventHandler.c ****         {
 355:.\Generated_Source\PSoC4/BLE_eventHandler.c ****             CyBle_CscssConfirmationEventHandler(eventParam);
 356:.\Generated_Source\PSoC4/BLE_eventHandler.c ****         }
 357:.\Generated_Source\PSoC4/BLE_eventHandler.c ****     #endif /* CYBLE_CSCS_SERVER */
 358:.\Generated_Source\PSoC4/BLE_eventHandler.c ****     
 359:.\Generated_Source\PSoC4/BLE_eventHandler.c ****     #ifdef CYBLE_GLS_SERVER
 360:.\Generated_Source\PSoC4/BLE_eventHandler.c ****         if((cyBle_eventHandlerFlag & CYBLE_CALLBACK) != 0u)
 361:.\Generated_Source\PSoC4/BLE_eventHandler.c ****         {
 362:.\Generated_Source\PSoC4/BLE_eventHandler.c ****             CyBle_GlssConfirmationEventHandler(eventParam);
 363:.\Generated_Source\PSoC4/BLE_eventHandler.c ****         }
 364:.\Generated_Source\PSoC4/BLE_eventHandler.c ****     #endif /* CYBLE_GLS_SERVER */
 365:.\Generated_Source\PSoC4/BLE_eventHandler.c ****     
 366:.\Generated_Source\PSoC4/BLE_eventHandler.c ****     #ifdef CYBLE_HTS_SERVER
 367:.\Generated_Source\PSoC4/BLE_eventHandler.c ****         if((cyBle_eventHandlerFlag & CYBLE_CALLBACK) != 0u)
 187              		.loc 1 367 0
 188 000e 074B     		ldr	r3, .L10
 189 0010 1B78     		ldrb	r3, [r3]
 190 0012 DBB2     		uxtb	r3, r3
 191 0014 1A1C     		mov	r2, r3
 192 0016 0123     		mov	r3, #1
 193 0018 1340     		and	r3, r2
 194 001a 03D0     		beq	.L8
 368:.\Generated_Source\PSoC4/BLE_eventHandler.c ****         {
 369:.\Generated_Source\PSoC4/BLE_eventHandler.c ****             CyBle_HtssConfirmationEventHandler(eventParam);
 195              		.loc 1 369 0
 196 001c 7B68     		ldr	r3, [r7, #4]
 197 001e 181C     		mov	r0, r3
 198 0020 FFF7FEFF 		bl	CyBle_HtssConfirmationEventHandler
 199              	.L8:
 370:.\Generated_Source\PSoC4/BLE_eventHandler.c ****         }
 371:.\Generated_Source\PSoC4/BLE_eventHandler.c ****     #endif /* CYBLE_HTS_SERVER */
ARM GAS  C:\Users\Zachary\AppData\Local\Temp\ccNoimb2.s 			page 11


 372:.\Generated_Source\PSoC4/BLE_eventHandler.c **** 
 373:.\Generated_Source\PSoC4/BLE_eventHandler.c ****     #ifdef CYBLE_LNS_SERVER
 374:.\Generated_Source\PSoC4/BLE_eventHandler.c ****         if((cyBle_eventHandlerFlag & CYBLE_CALLBACK) != 0u)
 375:.\Generated_Source\PSoC4/BLE_eventHandler.c ****         {
 376:.\Generated_Source\PSoC4/BLE_eventHandler.c ****             CyBle_LnssConfirmationEventHandler(eventParam);
 377:.\Generated_Source\PSoC4/BLE_eventHandler.c ****         }
 378:.\Generated_Source\PSoC4/BLE_eventHandler.c ****     #endif /* CYBLE_LNS_SERVER */
 379:.\Generated_Source\PSoC4/BLE_eventHandler.c ****     
 380:.\Generated_Source\PSoC4/BLE_eventHandler.c ****     #ifdef CYBLE_RSCS_SERVER
 381:.\Generated_Source\PSoC4/BLE_eventHandler.c ****         if((cyBle_eventHandlerFlag & CYBLE_CALLBACK) != 0u)
 382:.\Generated_Source\PSoC4/BLE_eventHandler.c ****         {
 383:.\Generated_Source\PSoC4/BLE_eventHandler.c ****             CyBle_RscssConfirmationEventHandler(eventParam);
 384:.\Generated_Source\PSoC4/BLE_eventHandler.c ****         }
 385:.\Generated_Source\PSoC4/BLE_eventHandler.c ****     #endif /* CYBLE_RSCS_SERVER */
 386:.\Generated_Source\PSoC4/BLE_eventHandler.c ****     
 387:.\Generated_Source\PSoC4/BLE_eventHandler.c ****     #ifdef CYBLE_UDS_SERVER
 388:.\Generated_Source\PSoC4/BLE_eventHandler.c ****         if((cyBle_eventHandlerFlag & CYBLE_CALLBACK) != 0u)
 389:.\Generated_Source\PSoC4/BLE_eventHandler.c ****         {
 390:.\Generated_Source\PSoC4/BLE_eventHandler.c ****             CyBle_UdssConfirmationEventHandler(eventParam);
 391:.\Generated_Source\PSoC4/BLE_eventHandler.c ****         }
 392:.\Generated_Source\PSoC4/BLE_eventHandler.c ****     #endif /* CYBLE_UDS_SERVER */
 393:.\Generated_Source\PSoC4/BLE_eventHandler.c ****     }
 394:.\Generated_Source\PSoC4/BLE_eventHandler.c **** }
 200              		.loc 1 394 0
 201 0024 BD46     		mov	sp, r7
 202 0026 02B0     		add	sp, sp, #8
 203              		@ sp needed
 204 0028 80BD     		pop	{r7, pc}
 205              	.L11:
 206 002a C046     		.align	2
 207              	.L10:
 208 002c 00000000 		.word	cyBle_eventHandlerFlag
 209              		.cfi_endproc
 210              	.LFE3:
 211              		.size	CyBle_ValueConfirmation, .-CyBle_ValueConfirmation
 212              		.section	.text.CyBle_GattDisconnectEventHandler,"ax",%progbits
 213              		.align	2
 214              		.code	16
 215              		.thumb_func
 216              		.type	CyBle_GattDisconnectEventHandler, %function
 217              	CyBle_GattDisconnectEventHandler:
 218              	.LFB4:
 395:.\Generated_Source\PSoC4/BLE_eventHandler.c **** 
 396:.\Generated_Source\PSoC4/BLE_eventHandler.c **** #endif /* CYBLE_GATT_ROLE_SERVER */
 397:.\Generated_Source\PSoC4/BLE_eventHandler.c **** 
 398:.\Generated_Source\PSoC4/BLE_eventHandler.c **** 
 399:.\Generated_Source\PSoC4/BLE_eventHandler.c **** #if (CYBLE_GATT_ROLE_CLIENT)
 400:.\Generated_Source\PSoC4/BLE_eventHandler.c **** 
 401:.\Generated_Source\PSoC4/BLE_eventHandler.c **** /****************************************************************************** 
 402:.\Generated_Source\PSoC4/BLE_eventHandler.c **** ##Function Name: CyBle_GattcWriteResponseEventHandler
 403:.\Generated_Source\PSoC4/BLE_eventHandler.c **** *******************************************************************************
 404:.\Generated_Source\PSoC4/BLE_eventHandler.c **** 
 405:.\Generated_Source\PSoC4/BLE_eventHandler.c **** Summary:
 406:.\Generated_Source\PSoC4/BLE_eventHandler.c ****  Handles the Write response event from the BLE stack.
 407:.\Generated_Source\PSoC4/BLE_eventHandler.c **** 
 408:.\Generated_Source\PSoC4/BLE_eventHandler.c **** Parameters:
 409:.\Generated_Source\PSoC4/BLE_eventHandler.c ****  CYBLE_CONN_HANDLE_T *eventParam - Pointer to a structure
ARM GAS  C:\Users\Zachary\AppData\Local\Temp\ccNoimb2.s 			page 12


 410:.\Generated_Source\PSoC4/BLE_eventHandler.c ****     of type 'CYBLE_CONN_HANDLE_T'
 411:.\Generated_Source\PSoC4/BLE_eventHandler.c **** 
 412:.\Generated_Source\PSoC4/BLE_eventHandler.c **** Return:
 413:.\Generated_Source\PSoC4/BLE_eventHandler.c ****  None
 414:.\Generated_Source\PSoC4/BLE_eventHandler.c **** 
 415:.\Generated_Source\PSoC4/BLE_eventHandler.c **** ******************************************************************************/
 416:.\Generated_Source\PSoC4/BLE_eventHandler.c **** static void CyBle_GattcWriteResponseEventHandler(const CYBLE_CONN_HANDLE_T *eventParam)
 417:.\Generated_Source\PSoC4/BLE_eventHandler.c **** {
 418:.\Generated_Source\PSoC4/BLE_eventHandler.c **** #ifdef CYBLE_ANS_CLIENT
 419:.\Generated_Source\PSoC4/BLE_eventHandler.c ****     CyBle_AnscWriteResponseEventHandler(eventParam);
 420:.\Generated_Source\PSoC4/BLE_eventHandler.c **** #endif /* CYBLE_ANS_CLIENT */
 421:.\Generated_Source\PSoC4/BLE_eventHandler.c **** 
 422:.\Generated_Source\PSoC4/BLE_eventHandler.c **** #ifdef CYBLE_BAS_CLIENT
 423:.\Generated_Source\PSoC4/BLE_eventHandler.c ****     if((cyBle_eventHandlerFlag & CYBLE_CALLBACK) != 0u)
 424:.\Generated_Source\PSoC4/BLE_eventHandler.c ****     {
 425:.\Generated_Source\PSoC4/BLE_eventHandler.c ****         CyBle_BascWriteResponseEventHandler(eventParam);
 426:.\Generated_Source\PSoC4/BLE_eventHandler.c ****     }
 427:.\Generated_Source\PSoC4/BLE_eventHandler.c **** #endif /* CYBLE_BAS_CLIENT */
 428:.\Generated_Source\PSoC4/BLE_eventHandler.c **** 
 429:.\Generated_Source\PSoC4/BLE_eventHandler.c **** #ifdef CYBLE_BLS_CLIENT
 430:.\Generated_Source\PSoC4/BLE_eventHandler.c ****     if((cyBle_eventHandlerFlag & CYBLE_CALLBACK) != 0u)
 431:.\Generated_Source\PSoC4/BLE_eventHandler.c ****     {
 432:.\Generated_Source\PSoC4/BLE_eventHandler.c ****         CyBle_BlscWriteResponseEventHandler(eventParam);
 433:.\Generated_Source\PSoC4/BLE_eventHandler.c ****     }
 434:.\Generated_Source\PSoC4/BLE_eventHandler.c **** #endif /* CYBLE_BLS_CLIENT */
 435:.\Generated_Source\PSoC4/BLE_eventHandler.c **** 
 436:.\Generated_Source\PSoC4/BLE_eventHandler.c **** #ifdef CYBLE_CGMS_CLIENT
 437:.\Generated_Source\PSoC4/BLE_eventHandler.c ****     if((cyBle_eventHandlerFlag & CYBLE_CALLBACK) != 0u)
 438:.\Generated_Source\PSoC4/BLE_eventHandler.c ****     {
 439:.\Generated_Source\PSoC4/BLE_eventHandler.c ****         CyBle_CgmscWriteResponseEventHandler(eventParam);
 440:.\Generated_Source\PSoC4/BLE_eventHandler.c ****     }
 441:.\Generated_Source\PSoC4/BLE_eventHandler.c **** #endif /* CYBLE_CGMS_CLIENT */
 442:.\Generated_Source\PSoC4/BLE_eventHandler.c **** 
 443:.\Generated_Source\PSoC4/BLE_eventHandler.c **** #ifdef CYBLE_CPS_CLIENT
 444:.\Generated_Source\PSoC4/BLE_eventHandler.c ****     if((cyBle_eventHandlerFlag & CYBLE_CALLBACK) != 0u)
 445:.\Generated_Source\PSoC4/BLE_eventHandler.c ****     {
 446:.\Generated_Source\PSoC4/BLE_eventHandler.c ****         CyBle_CpscWriteResponseEventHandler(eventParam);
 447:.\Generated_Source\PSoC4/BLE_eventHandler.c ****     }
 448:.\Generated_Source\PSoC4/BLE_eventHandler.c **** #endif /* CYBLE_CPS_CLIENT */
 449:.\Generated_Source\PSoC4/BLE_eventHandler.c **** 
 450:.\Generated_Source\PSoC4/BLE_eventHandler.c **** #ifdef CYBLE_CSCS_CLIENT
 451:.\Generated_Source\PSoC4/BLE_eventHandler.c ****     if((cyBle_eventHandlerFlag & CYBLE_CALLBACK) != 0u)
 452:.\Generated_Source\PSoC4/BLE_eventHandler.c ****     {
 453:.\Generated_Source\PSoC4/BLE_eventHandler.c ****         CyBle_CscscWriteResponseEventHandler(eventParam);
 454:.\Generated_Source\PSoC4/BLE_eventHandler.c ****     }
 455:.\Generated_Source\PSoC4/BLE_eventHandler.c **** #endif /* CYBLE_CSCS_CLIENT */
 456:.\Generated_Source\PSoC4/BLE_eventHandler.c **** 
 457:.\Generated_Source\PSoC4/BLE_eventHandler.c **** #ifdef CYBLE_CTS_CLIENT
 458:.\Generated_Source\PSoC4/BLE_eventHandler.c ****     if((cyBle_eventHandlerFlag & CYBLE_CALLBACK) != 0u)
 459:.\Generated_Source\PSoC4/BLE_eventHandler.c ****     {
 460:.\Generated_Source\PSoC4/BLE_eventHandler.c ****         CyBle_CtscWriteResponseEventHandler(eventParam);
 461:.\Generated_Source\PSoC4/BLE_eventHandler.c ****     }
 462:.\Generated_Source\PSoC4/BLE_eventHandler.c **** #endif /* CYBLE_CTS_CLIENT */
 463:.\Generated_Source\PSoC4/BLE_eventHandler.c **** 
 464:.\Generated_Source\PSoC4/BLE_eventHandler.c **** #ifdef CYBLE_GLS_CLIENT
 465:.\Generated_Source\PSoC4/BLE_eventHandler.c ****     if((cyBle_eventHandlerFlag & CYBLE_CALLBACK) != 0u)
 466:.\Generated_Source\PSoC4/BLE_eventHandler.c ****     {
ARM GAS  C:\Users\Zachary\AppData\Local\Temp\ccNoimb2.s 			page 13


 467:.\Generated_Source\PSoC4/BLE_eventHandler.c ****         CyBle_GlscWriteResponseEventHandler(eventParam);
 468:.\Generated_Source\PSoC4/BLE_eventHandler.c ****     }
 469:.\Generated_Source\PSoC4/BLE_eventHandler.c **** #endif /* CYBLE_GLS_CLIENT */
 470:.\Generated_Source\PSoC4/BLE_eventHandler.c **** 
 471:.\Generated_Source\PSoC4/BLE_eventHandler.c **** #ifdef CYBLE_HIDS_CLIENT
 472:.\Generated_Source\PSoC4/BLE_eventHandler.c ****     if((cyBle_eventHandlerFlag & CYBLE_CALLBACK) != 0u)
 473:.\Generated_Source\PSoC4/BLE_eventHandler.c ****     {
 474:.\Generated_Source\PSoC4/BLE_eventHandler.c ****         CyBle_HidscWriteResponseEventHandler(eventParam);
 475:.\Generated_Source\PSoC4/BLE_eventHandler.c ****     }
 476:.\Generated_Source\PSoC4/BLE_eventHandler.c **** #endif /* CYBLE_HIDS_CLIENT */
 477:.\Generated_Source\PSoC4/BLE_eventHandler.c **** 
 478:.\Generated_Source\PSoC4/BLE_eventHandler.c **** #ifdef CYBLE_HRS_CLIENT
 479:.\Generated_Source\PSoC4/BLE_eventHandler.c ****     if((cyBle_eventHandlerFlag & CYBLE_CALLBACK) != 0u)
 480:.\Generated_Source\PSoC4/BLE_eventHandler.c ****     {
 481:.\Generated_Source\PSoC4/BLE_eventHandler.c ****         CyBle_HrscWriteResponseEventHandler(eventParam);
 482:.\Generated_Source\PSoC4/BLE_eventHandler.c ****     }
 483:.\Generated_Source\PSoC4/BLE_eventHandler.c **** #endif /* CYBLE_HRS_CLIENT */
 484:.\Generated_Source\PSoC4/BLE_eventHandler.c **** 
 485:.\Generated_Source\PSoC4/BLE_eventHandler.c **** #ifdef CYBLE_HTS_CLIENT
 486:.\Generated_Source\PSoC4/BLE_eventHandler.c ****     if((cyBle_eventHandlerFlag & CYBLE_CALLBACK) != 0u)
 487:.\Generated_Source\PSoC4/BLE_eventHandler.c ****     {
 488:.\Generated_Source\PSoC4/BLE_eventHandler.c ****         CyBle_HtscWriteResponseEventHandler(eventParam);
 489:.\Generated_Source\PSoC4/BLE_eventHandler.c ****     }
 490:.\Generated_Source\PSoC4/BLE_eventHandler.c **** #endif /* CYBLE_HTS_CLIENT */
 491:.\Generated_Source\PSoC4/BLE_eventHandler.c **** 
 492:.\Generated_Source\PSoC4/BLE_eventHandler.c **** #ifdef CYBLE_LLS_CLIENT
 493:.\Generated_Source\PSoC4/BLE_eventHandler.c ****     if((cyBle_eventHandlerFlag & CYBLE_CALLBACK) != 0u)
 494:.\Generated_Source\PSoC4/BLE_eventHandler.c ****     {
 495:.\Generated_Source\PSoC4/BLE_eventHandler.c ****         CyBle_LlscWriteResponseEventHandler(eventParam);
 496:.\Generated_Source\PSoC4/BLE_eventHandler.c ****     }
 497:.\Generated_Source\PSoC4/BLE_eventHandler.c **** #endif /* CYBLE_LLS_CLIENT */
 498:.\Generated_Source\PSoC4/BLE_eventHandler.c **** 
 499:.\Generated_Source\PSoC4/BLE_eventHandler.c **** #ifdef CYBLE_LNS_CLIENT
 500:.\Generated_Source\PSoC4/BLE_eventHandler.c ****     if((cyBle_eventHandlerFlag & CYBLE_CALLBACK) != 0u)
 501:.\Generated_Source\PSoC4/BLE_eventHandler.c ****     {
 502:.\Generated_Source\PSoC4/BLE_eventHandler.c ****         CyBle_LnscWriteResponseEventHandler(eventParam);
 503:.\Generated_Source\PSoC4/BLE_eventHandler.c ****     }
 504:.\Generated_Source\PSoC4/BLE_eventHandler.c **** #endif /* CYBLE_LNS_CLIENT */
 505:.\Generated_Source\PSoC4/BLE_eventHandler.c **** 
 506:.\Generated_Source\PSoC4/BLE_eventHandler.c **** #ifdef CYBLE_PASS_CLIENT
 507:.\Generated_Source\PSoC4/BLE_eventHandler.c ****     if((cyBle_eventHandlerFlag & CYBLE_CALLBACK) != 0u)
 508:.\Generated_Source\PSoC4/BLE_eventHandler.c ****     {
 509:.\Generated_Source\PSoC4/BLE_eventHandler.c ****         CyBle_PasscWriteResponseEventHandler(eventParam);
 510:.\Generated_Source\PSoC4/BLE_eventHandler.c ****     }
 511:.\Generated_Source\PSoC4/BLE_eventHandler.c **** #endif /* CYBLE_PASS_CLIENT */
 512:.\Generated_Source\PSoC4/BLE_eventHandler.c **** 
 513:.\Generated_Source\PSoC4/BLE_eventHandler.c **** #ifdef CYBLE_RSCS_CLIENT
 514:.\Generated_Source\PSoC4/BLE_eventHandler.c ****     if((cyBle_eventHandlerFlag & CYBLE_CALLBACK) != 0u)
 515:.\Generated_Source\PSoC4/BLE_eventHandler.c ****     {
 516:.\Generated_Source\PSoC4/BLE_eventHandler.c ****         CyBle_RscscWriteResponseEventHandler(eventParam);
 517:.\Generated_Source\PSoC4/BLE_eventHandler.c ****     }
 518:.\Generated_Source\PSoC4/BLE_eventHandler.c **** #endif /* CYBLE_RSCS_CLIENT */
 519:.\Generated_Source\PSoC4/BLE_eventHandler.c **** 
 520:.\Generated_Source\PSoC4/BLE_eventHandler.c **** #ifdef CYBLE_SCPS_CLIENT
 521:.\Generated_Source\PSoC4/BLE_eventHandler.c ****     if((cyBle_eventHandlerFlag & CYBLE_CALLBACK) != 0u)
 522:.\Generated_Source\PSoC4/BLE_eventHandler.c ****     {
 523:.\Generated_Source\PSoC4/BLE_eventHandler.c ****         CyBle_ScpscWriteResponseEventHandler(eventParam);
ARM GAS  C:\Users\Zachary\AppData\Local\Temp\ccNoimb2.s 			page 14


 524:.\Generated_Source\PSoC4/BLE_eventHandler.c ****     }
 525:.\Generated_Source\PSoC4/BLE_eventHandler.c **** #endif /* CYBLE_SCPS_CLIENT */
 526:.\Generated_Source\PSoC4/BLE_eventHandler.c **** 
 527:.\Generated_Source\PSoC4/BLE_eventHandler.c **** #ifdef CYBLE_TPS_CLIENT
 528:.\Generated_Source\PSoC4/BLE_eventHandler.c ****     if((cyBle_eventHandlerFlag & CYBLE_CALLBACK) != 0u)
 529:.\Generated_Source\PSoC4/BLE_eventHandler.c ****     {
 530:.\Generated_Source\PSoC4/BLE_eventHandler.c ****         CyBle_TpscWriteResponseEventHandler(eventParam);
 531:.\Generated_Source\PSoC4/BLE_eventHandler.c ****     }
 532:.\Generated_Source\PSoC4/BLE_eventHandler.c **** #endif /* CYBLE_TPS_CLIENT */
 533:.\Generated_Source\PSoC4/BLE_eventHandler.c **** 
 534:.\Generated_Source\PSoC4/BLE_eventHandler.c **** #ifdef CYBLE_UDS_CLIENT
 535:.\Generated_Source\PSoC4/BLE_eventHandler.c ****     if((cyBle_eventHandlerFlag & CYBLE_CALLBACK) != 0u)
 536:.\Generated_Source\PSoC4/BLE_eventHandler.c ****     {
 537:.\Generated_Source\PSoC4/BLE_eventHandler.c ****         CyBle_UdscWriteResponseEventHandler(eventParam);
 538:.\Generated_Source\PSoC4/BLE_eventHandler.c ****     }
 539:.\Generated_Source\PSoC4/BLE_eventHandler.c **** #endif /* CYBLE_UDS_CLIENT */
 540:.\Generated_Source\PSoC4/BLE_eventHandler.c **** }
 541:.\Generated_Source\PSoC4/BLE_eventHandler.c **** 
 542:.\Generated_Source\PSoC4/BLE_eventHandler.c **** 
 543:.\Generated_Source\PSoC4/BLE_eventHandler.c **** /******************************************************************************    
 544:.\Generated_Source\PSoC4/BLE_eventHandler.c **** ##Function Name: CyBle_NotificationEventHandler
 545:.\Generated_Source\PSoC4/BLE_eventHandler.c **** *******************************************************************************
 546:.\Generated_Source\PSoC4/BLE_eventHandler.c **** 
 547:.\Generated_Source\PSoC4/BLE_eventHandler.c **** Summary:
 548:.\Generated_Source\PSoC4/BLE_eventHandler.c ****  Handles the Notification event from BLE stack.
 549:.\Generated_Source\PSoC4/BLE_eventHandler.c **** 
 550:.\Generated_Source\PSoC4/BLE_eventHandler.c **** Parameters:
 551:.\Generated_Source\PSoC4/BLE_eventHandler.c ****  CYBLE_GATTC_HANDLE_VALUE_NTF_PARAM_T * eventParam - event parameter
 552:.\Generated_Source\PSoC4/BLE_eventHandler.c **** 
 553:.\Generated_Source\PSoC4/BLE_eventHandler.c **** Return:
 554:.\Generated_Source\PSoC4/BLE_eventHandler.c ****  None
 555:.\Generated_Source\PSoC4/BLE_eventHandler.c **** 
 556:.\Generated_Source\PSoC4/BLE_eventHandler.c **** ******************************************************************************/
 557:.\Generated_Source\PSoC4/BLE_eventHandler.c **** static void CyBle_NotificationEventHandler(CYBLE_GATTC_HANDLE_VALUE_NTF_PARAM_T *eventParam)
 558:.\Generated_Source\PSoC4/BLE_eventHandler.c **** {
 559:.\Generated_Source\PSoC4/BLE_eventHandler.c **** #ifdef CYBLE_ANS_CLIENT
 560:.\Generated_Source\PSoC4/BLE_eventHandler.c ****     CyBle_AnscNotificationEventHandler(eventParam);
 561:.\Generated_Source\PSoC4/BLE_eventHandler.c **** #endif /* CYBLE_ANS_CLIENT */
 562:.\Generated_Source\PSoC4/BLE_eventHandler.c **** #ifdef CYBLE_BAS_CLIENT
 563:.\Generated_Source\PSoC4/BLE_eventHandler.c ****     if((cyBle_eventHandlerFlag & CYBLE_CALLBACK) != 0u)
 564:.\Generated_Source\PSoC4/BLE_eventHandler.c ****     {
 565:.\Generated_Source\PSoC4/BLE_eventHandler.c ****         CyBle_BascNotificationEventHandler(eventParam);
 566:.\Generated_Source\PSoC4/BLE_eventHandler.c ****     }
 567:.\Generated_Source\PSoC4/BLE_eventHandler.c **** #endif /* CYBLE_BAS_CLIENT */
 568:.\Generated_Source\PSoC4/BLE_eventHandler.c **** #ifdef CYBLE_BLS_CLIENT
 569:.\Generated_Source\PSoC4/BLE_eventHandler.c ****     if((cyBle_eventHandlerFlag & CYBLE_CALLBACK) != 0u)
 570:.\Generated_Source\PSoC4/BLE_eventHandler.c ****     {
 571:.\Generated_Source\PSoC4/BLE_eventHandler.c ****         CyBle_BlscNotificationEventHandler(eventParam);
 572:.\Generated_Source\PSoC4/BLE_eventHandler.c ****     }
 573:.\Generated_Source\PSoC4/BLE_eventHandler.c **** #endif /* CYBLE_BLS_CLIENT */
 574:.\Generated_Source\PSoC4/BLE_eventHandler.c **** #ifdef CYBLE_CGMS_CLIENT
 575:.\Generated_Source\PSoC4/BLE_eventHandler.c ****     if((cyBle_eventHandlerFlag & CYBLE_CALLBACK) != 0u)
 576:.\Generated_Source\PSoC4/BLE_eventHandler.c ****     {
 577:.\Generated_Source\PSoC4/BLE_eventHandler.c ****         CyBle_CgmscNotificationEventHandler(eventParam);
 578:.\Generated_Source\PSoC4/BLE_eventHandler.c ****     }
 579:.\Generated_Source\PSoC4/BLE_eventHandler.c **** #endif /* CYBLE_CGMS_CLIENT */
 580:.\Generated_Source\PSoC4/BLE_eventHandler.c **** #ifdef CYBLE_CPS_CLIENT
ARM GAS  C:\Users\Zachary\AppData\Local\Temp\ccNoimb2.s 			page 15


 581:.\Generated_Source\PSoC4/BLE_eventHandler.c ****     if((cyBle_eventHandlerFlag & CYBLE_CALLBACK) != 0u)
 582:.\Generated_Source\PSoC4/BLE_eventHandler.c ****     {
 583:.\Generated_Source\PSoC4/BLE_eventHandler.c ****         CyBle_CpscNotificationEventHandler(eventParam);
 584:.\Generated_Source\PSoC4/BLE_eventHandler.c ****     }
 585:.\Generated_Source\PSoC4/BLE_eventHandler.c **** #endif /* CYBLE_CPS_CLIENT */
 586:.\Generated_Source\PSoC4/BLE_eventHandler.c **** #ifdef CYBLE_CSCS_CLIENT
 587:.\Generated_Source\PSoC4/BLE_eventHandler.c ****     if((cyBle_eventHandlerFlag & CYBLE_CALLBACK) != 0u)
 588:.\Generated_Source\PSoC4/BLE_eventHandler.c ****     {
 589:.\Generated_Source\PSoC4/BLE_eventHandler.c ****         CyBle_CscscNotificationEventHandler(eventParam);
 590:.\Generated_Source\PSoC4/BLE_eventHandler.c ****     }
 591:.\Generated_Source\PSoC4/BLE_eventHandler.c **** #endif /* CYBLE_CSCS_CLIENT */
 592:.\Generated_Source\PSoC4/BLE_eventHandler.c **** #ifdef CYBLE_CTS_CLIENT
 593:.\Generated_Source\PSoC4/BLE_eventHandler.c ****     if((cyBle_eventHandlerFlag & CYBLE_CALLBACK) != 0u)
 594:.\Generated_Source\PSoC4/BLE_eventHandler.c ****     {
 595:.\Generated_Source\PSoC4/BLE_eventHandler.c ****         CyBle_CtscNotificationEventHandler(eventParam);
 596:.\Generated_Source\PSoC4/BLE_eventHandler.c ****     }
 597:.\Generated_Source\PSoC4/BLE_eventHandler.c **** #endif /* CYBLE_CTS_CLIENT */
 598:.\Generated_Source\PSoC4/BLE_eventHandler.c **** #ifdef CYBLE_GLS_CLIENT
 599:.\Generated_Source\PSoC4/BLE_eventHandler.c ****     if((cyBle_eventHandlerFlag & CYBLE_CALLBACK) != 0u)
 600:.\Generated_Source\PSoC4/BLE_eventHandler.c ****     {
 601:.\Generated_Source\PSoC4/BLE_eventHandler.c ****         CyBle_GlscNotificationEventHandler(eventParam);
 602:.\Generated_Source\PSoC4/BLE_eventHandler.c ****     }
 603:.\Generated_Source\PSoC4/BLE_eventHandler.c **** #endif /* CYBLE_GLS_CLIENT */
 604:.\Generated_Source\PSoC4/BLE_eventHandler.c **** #ifdef CYBLE_HIDS_CLIENT
 605:.\Generated_Source\PSoC4/BLE_eventHandler.c ****     if((cyBle_eventHandlerFlag & CYBLE_CALLBACK) != 0u)
 606:.\Generated_Source\PSoC4/BLE_eventHandler.c ****     {
 607:.\Generated_Source\PSoC4/BLE_eventHandler.c ****         CyBle_HidscNotificationEventHandler(eventParam);
 608:.\Generated_Source\PSoC4/BLE_eventHandler.c ****     }
 609:.\Generated_Source\PSoC4/BLE_eventHandler.c **** #endif /* CYBLE_HIDS_CLIENT */
 610:.\Generated_Source\PSoC4/BLE_eventHandler.c **** #ifdef CYBLE_HRS_CLIENT
 611:.\Generated_Source\PSoC4/BLE_eventHandler.c ****     if((cyBle_eventHandlerFlag & CYBLE_CALLBACK) != 0u)
 612:.\Generated_Source\PSoC4/BLE_eventHandler.c ****     {
 613:.\Generated_Source\PSoC4/BLE_eventHandler.c ****         CyBle_HrscNotificationEventHandler(eventParam);
 614:.\Generated_Source\PSoC4/BLE_eventHandler.c ****     }
 615:.\Generated_Source\PSoC4/BLE_eventHandler.c **** #endif /* CYBLE_HRS_CLIENT */
 616:.\Generated_Source\PSoC4/BLE_eventHandler.c **** #ifdef CYBLE_HTS_CLIENT
 617:.\Generated_Source\PSoC4/BLE_eventHandler.c ****     if((cyBle_eventHandlerFlag & CYBLE_CALLBACK) != 0u)
 618:.\Generated_Source\PSoC4/BLE_eventHandler.c ****     {
 619:.\Generated_Source\PSoC4/BLE_eventHandler.c ****         CyBle_HtscNotificationEventHandler(eventParam);
 620:.\Generated_Source\PSoC4/BLE_eventHandler.c ****     }
 621:.\Generated_Source\PSoC4/BLE_eventHandler.c **** #endif /* CYBLE_HTS_CLIENT */
 622:.\Generated_Source\PSoC4/BLE_eventHandler.c **** #ifdef CYBLE_LNS_CLIENT
 623:.\Generated_Source\PSoC4/BLE_eventHandler.c ****     if((cyBle_eventHandlerFlag & CYBLE_CALLBACK) != 0u)
 624:.\Generated_Source\PSoC4/BLE_eventHandler.c ****     {
 625:.\Generated_Source\PSoC4/BLE_eventHandler.c ****         CyBle_LnscNotificationEventHandler(eventParam);
 626:.\Generated_Source\PSoC4/BLE_eventHandler.c ****     }
 627:.\Generated_Source\PSoC4/BLE_eventHandler.c **** #endif /* CYBLE_LNS_CLIENT */
 628:.\Generated_Source\PSoC4/BLE_eventHandler.c **** #ifdef CYBLE_PASS_CLIENT
 629:.\Generated_Source\PSoC4/BLE_eventHandler.c ****     if((cyBle_eventHandlerFlag & CYBLE_CALLBACK) != 0u)
 630:.\Generated_Source\PSoC4/BLE_eventHandler.c ****     {
 631:.\Generated_Source\PSoC4/BLE_eventHandler.c ****         CyBle_PasscNotificationEventHandler(eventParam);
 632:.\Generated_Source\PSoC4/BLE_eventHandler.c ****     }
 633:.\Generated_Source\PSoC4/BLE_eventHandler.c **** #endif /* CYBLE_PASS_CLIENT */
 634:.\Generated_Source\PSoC4/BLE_eventHandler.c **** #ifdef CYBLE_RSCS_CLIENT
 635:.\Generated_Source\PSoC4/BLE_eventHandler.c ****     if((cyBle_eventHandlerFlag & CYBLE_CALLBACK) != 0u)
 636:.\Generated_Source\PSoC4/BLE_eventHandler.c ****     {
 637:.\Generated_Source\PSoC4/BLE_eventHandler.c ****         CyBle_RscscNotificationEventHandler(eventParam);
ARM GAS  C:\Users\Zachary\AppData\Local\Temp\ccNoimb2.s 			page 16


 638:.\Generated_Source\PSoC4/BLE_eventHandler.c ****     }
 639:.\Generated_Source\PSoC4/BLE_eventHandler.c **** #endif /* CYBLE_RSCS_CLIENT */
 640:.\Generated_Source\PSoC4/BLE_eventHandler.c **** #ifdef CYBLE_SCPS_CLIENT
 641:.\Generated_Source\PSoC4/BLE_eventHandler.c ****     if((cyBle_eventHandlerFlag & CYBLE_CALLBACK) != 0u)
 642:.\Generated_Source\PSoC4/BLE_eventHandler.c ****     {
 643:.\Generated_Source\PSoC4/BLE_eventHandler.c ****         CyBle_ScpscNotificationEventHandler(eventParam);
 644:.\Generated_Source\PSoC4/BLE_eventHandler.c ****     }
 645:.\Generated_Source\PSoC4/BLE_eventHandler.c **** #endif /* CYBLE_SCPS_CLIENT */
 646:.\Generated_Source\PSoC4/BLE_eventHandler.c **** #ifdef CYBLE_TPS_CLIENT
 647:.\Generated_Source\PSoC4/BLE_eventHandler.c ****     if((cyBle_eventHandlerFlag & CYBLE_CALLBACK) != 0u)
 648:.\Generated_Source\PSoC4/BLE_eventHandler.c ****     {
 649:.\Generated_Source\PSoC4/BLE_eventHandler.c ****         CyBle_TpscNotificationEventHandler(eventParam);
 650:.\Generated_Source\PSoC4/BLE_eventHandler.c ****     }
 651:.\Generated_Source\PSoC4/BLE_eventHandler.c **** #endif /* CYBLE_TPS_CLIENT */
 652:.\Generated_Source\PSoC4/BLE_eventHandler.c **** #ifdef CYBLE_UDS_CLIENT
 653:.\Generated_Source\PSoC4/BLE_eventHandler.c ****     if((cyBle_eventHandlerFlag & CYBLE_CALLBACK) != 0u)
 654:.\Generated_Source\PSoC4/BLE_eventHandler.c ****     {
 655:.\Generated_Source\PSoC4/BLE_eventHandler.c ****         CyBle_UdscNotificationEventHandler(eventParam);
 656:.\Generated_Source\PSoC4/BLE_eventHandler.c ****     }
 657:.\Generated_Source\PSoC4/BLE_eventHandler.c **** #endif /* CYBLE_UDS_CLIENT */
 658:.\Generated_Source\PSoC4/BLE_eventHandler.c **** }
 659:.\Generated_Source\PSoC4/BLE_eventHandler.c **** 
 660:.\Generated_Source\PSoC4/BLE_eventHandler.c **** 
 661:.\Generated_Source\PSoC4/BLE_eventHandler.c **** /******************************************************************************    
 662:.\Generated_Source\PSoC4/BLE_eventHandler.c **** ##Function Name: CyBle_IndicationEventHandler
 663:.\Generated_Source\PSoC4/BLE_eventHandler.c **** *******************************************************************************
 664:.\Generated_Source\PSoC4/BLE_eventHandler.c **** 
 665:.\Generated_Source\PSoC4/BLE_eventHandler.c **** Summary:
 666:.\Generated_Source\PSoC4/BLE_eventHandler.c ****  Handles the Indication event from BLE stack.
 667:.\Generated_Source\PSoC4/BLE_eventHandler.c **** 
 668:.\Generated_Source\PSoC4/BLE_eventHandler.c **** Parameters:
 669:.\Generated_Source\PSoC4/BLE_eventHandler.c ****  CYBLE_GATTC_HANDLE_VALUE_IND_PARAM_T * eventParam - event parameter
 670:.\Generated_Source\PSoC4/BLE_eventHandler.c **** 
 671:.\Generated_Source\PSoC4/BLE_eventHandler.c **** Return:
 672:.\Generated_Source\PSoC4/BLE_eventHandler.c ****  None
 673:.\Generated_Source\PSoC4/BLE_eventHandler.c **** 
 674:.\Generated_Source\PSoC4/BLE_eventHandler.c **** ******************************************************************************/
 675:.\Generated_Source\PSoC4/BLE_eventHandler.c **** static void CyBle_IndicationEventHandler(CYBLE_GATTC_HANDLE_VALUE_IND_PARAM_T *eventParam)
 676:.\Generated_Source\PSoC4/BLE_eventHandler.c **** {
 677:.\Generated_Source\PSoC4/BLE_eventHandler.c **** #ifdef CYBLE_BLS_CLIENT
 678:.\Generated_Source\PSoC4/BLE_eventHandler.c ****     if((cyBle_eventHandlerFlag & CYBLE_CALLBACK) != 0u)
 679:.\Generated_Source\PSoC4/BLE_eventHandler.c ****     {
 680:.\Generated_Source\PSoC4/BLE_eventHandler.c ****         CyBle_BlscIndicationEventHandler(eventParam);
 681:.\Generated_Source\PSoC4/BLE_eventHandler.c ****     }
 682:.\Generated_Source\PSoC4/BLE_eventHandler.c **** #endif /* CYBLE_BLS_CLIENT */
 683:.\Generated_Source\PSoC4/BLE_eventHandler.c **** #ifdef CYBLE_CGMS_CLIENT
 684:.\Generated_Source\PSoC4/BLE_eventHandler.c ****     if((cyBle_eventHandlerFlag & CYBLE_CALLBACK) != 0u)
 685:.\Generated_Source\PSoC4/BLE_eventHandler.c ****     {
 686:.\Generated_Source\PSoC4/BLE_eventHandler.c ****         CyBle_CgmscIndicationEventHandler(eventParam);
 687:.\Generated_Source\PSoC4/BLE_eventHandler.c ****     }
 688:.\Generated_Source\PSoC4/BLE_eventHandler.c **** #endif /* CYBLE_CGMS_CLIENT */
 689:.\Generated_Source\PSoC4/BLE_eventHandler.c **** #ifdef CYBLE_CPS_CLIENT
 690:.\Generated_Source\PSoC4/BLE_eventHandler.c ****     if((cyBle_eventHandlerFlag & CYBLE_CALLBACK) != 0u)
 691:.\Generated_Source\PSoC4/BLE_eventHandler.c ****     {
 692:.\Generated_Source\PSoC4/BLE_eventHandler.c ****         CyBle_CpscIndicationEventHandler(eventParam);
 693:.\Generated_Source\PSoC4/BLE_eventHandler.c ****     }
 694:.\Generated_Source\PSoC4/BLE_eventHandler.c **** #endif /* CYBLE_CPS_CLIENT */
ARM GAS  C:\Users\Zachary\AppData\Local\Temp\ccNoimb2.s 			page 17


 695:.\Generated_Source\PSoC4/BLE_eventHandler.c **** #ifdef CYBLE_CSCS_CLIENT
 696:.\Generated_Source\PSoC4/BLE_eventHandler.c ****     if((cyBle_eventHandlerFlag & CYBLE_CALLBACK) != 0u)
 697:.\Generated_Source\PSoC4/BLE_eventHandler.c ****     {
 698:.\Generated_Source\PSoC4/BLE_eventHandler.c ****         CyBle_CscscIndicationEventHandler(eventParam);
 699:.\Generated_Source\PSoC4/BLE_eventHandler.c ****     }
 700:.\Generated_Source\PSoC4/BLE_eventHandler.c **** #endif /* CYBLE_CSCS_CLIENT */
 701:.\Generated_Source\PSoC4/BLE_eventHandler.c **** #ifdef CYBLE_GLS_CLIENT
 702:.\Generated_Source\PSoC4/BLE_eventHandler.c ****     if((cyBle_eventHandlerFlag & CYBLE_CALLBACK) != 0u)
 703:.\Generated_Source\PSoC4/BLE_eventHandler.c ****     {
 704:.\Generated_Source\PSoC4/BLE_eventHandler.c ****         CyBle_GlscIndicationEventHandler(eventParam);
 705:.\Generated_Source\PSoC4/BLE_eventHandler.c ****     }
 706:.\Generated_Source\PSoC4/BLE_eventHandler.c **** #endif /* CYBLE_GLS_CLIENT */
 707:.\Generated_Source\PSoC4/BLE_eventHandler.c **** #ifdef CYBLE_HTS_CLIENT
 708:.\Generated_Source\PSoC4/BLE_eventHandler.c ****     if((cyBle_eventHandlerFlag & CYBLE_CALLBACK) != 0u)
 709:.\Generated_Source\PSoC4/BLE_eventHandler.c ****     {
 710:.\Generated_Source\PSoC4/BLE_eventHandler.c ****         CyBle_HtscIndicationEventHandler(eventParam);
 711:.\Generated_Source\PSoC4/BLE_eventHandler.c ****     }
 712:.\Generated_Source\PSoC4/BLE_eventHandler.c **** #endif /* CYBLE_HTS_CLIENT */
 713:.\Generated_Source\PSoC4/BLE_eventHandler.c **** #ifdef CYBLE_LNS_CLIENT
 714:.\Generated_Source\PSoC4/BLE_eventHandler.c ****     if((cyBle_eventHandlerFlag & CYBLE_CALLBACK) != 0u)
 715:.\Generated_Source\PSoC4/BLE_eventHandler.c ****     {
 716:.\Generated_Source\PSoC4/BLE_eventHandler.c ****         CyBle_LnscIndicationEventHandler(eventParam);
 717:.\Generated_Source\PSoC4/BLE_eventHandler.c ****     }
 718:.\Generated_Source\PSoC4/BLE_eventHandler.c **** #endif /* CYBLE_LNS_CLIENT */
 719:.\Generated_Source\PSoC4/BLE_eventHandler.c **** #ifdef CYBLE_RSCS_CLIENT
 720:.\Generated_Source\PSoC4/BLE_eventHandler.c ****     if((cyBle_eventHandlerFlag & CYBLE_CALLBACK) != 0u)
 721:.\Generated_Source\PSoC4/BLE_eventHandler.c ****     {
 722:.\Generated_Source\PSoC4/BLE_eventHandler.c ****         CyBle_RscscIndicationEventHandler(eventParam);
 723:.\Generated_Source\PSoC4/BLE_eventHandler.c ****     }
 724:.\Generated_Source\PSoC4/BLE_eventHandler.c **** #endif /* CYBLE_RSCS_CLIENT */
 725:.\Generated_Source\PSoC4/BLE_eventHandler.c **** #ifdef CYBLE_UDS_CLIENT
 726:.\Generated_Source\PSoC4/BLE_eventHandler.c ****     if((cyBle_eventHandlerFlag & CYBLE_CALLBACK) != 0u)
 727:.\Generated_Source\PSoC4/BLE_eventHandler.c ****     {
 728:.\Generated_Source\PSoC4/BLE_eventHandler.c ****         CyBle_UdscIndicationEventHandler(eventParam);
 729:.\Generated_Source\PSoC4/BLE_eventHandler.c ****     }
 730:.\Generated_Source\PSoC4/BLE_eventHandler.c **** #endif /* CYBLE_UDS_CLIENT */
 731:.\Generated_Source\PSoC4/BLE_eventHandler.c **** }
 732:.\Generated_Source\PSoC4/BLE_eventHandler.c **** 
 733:.\Generated_Source\PSoC4/BLE_eventHandler.c **** 
 734:.\Generated_Source\PSoC4/BLE_eventHandler.c **** 
 735:.\Generated_Source\PSoC4/BLE_eventHandler.c **** /******************************************************************************    
 736:.\Generated_Source\PSoC4/BLE_eventHandler.c **** ##Function Name: CyBle_ReadResponseEventHandler
 737:.\Generated_Source\PSoC4/BLE_eventHandler.c **** *******************************************************************************
 738:.\Generated_Source\PSoC4/BLE_eventHandler.c **** 
 739:.\Generated_Source\PSoC4/BLE_eventHandler.c **** Summary:
 740:.\Generated_Source\PSoC4/BLE_eventHandler.c ****  Handles the Read Response event from BLE stack.
 741:.\Generated_Source\PSoC4/BLE_eventHandler.c **** 
 742:.\Generated_Source\PSoC4/BLE_eventHandler.c **** Parameters:
 743:.\Generated_Source\PSoC4/BLE_eventHandler.c ****  CYBLE_GATTC_READ_RSP_PARAM_T * eventParam - event parameter
 744:.\Generated_Source\PSoC4/BLE_eventHandler.c **** 
 745:.\Generated_Source\PSoC4/BLE_eventHandler.c **** Return:
 746:.\Generated_Source\PSoC4/BLE_eventHandler.c ****  None
 747:.\Generated_Source\PSoC4/BLE_eventHandler.c **** 
 748:.\Generated_Source\PSoC4/BLE_eventHandler.c **** ******************************************************************************/
 749:.\Generated_Source\PSoC4/BLE_eventHandler.c **** static void CyBle_ReadResponseEventHandler(CYBLE_GATTC_READ_RSP_PARAM_T *eventParam)
 750:.\Generated_Source\PSoC4/BLE_eventHandler.c **** {
 751:.\Generated_Source\PSoC4/BLE_eventHandler.c **** #ifdef CYBLE_ANS_CLIENT
ARM GAS  C:\Users\Zachary\AppData\Local\Temp\ccNoimb2.s 			page 18


 752:.\Generated_Source\PSoC4/BLE_eventHandler.c ****     CyBle_AnscReadResponseEventHandler(eventParam);
 753:.\Generated_Source\PSoC4/BLE_eventHandler.c **** #endif /* CYBLE_ANS_CLIENT */
 754:.\Generated_Source\PSoC4/BLE_eventHandler.c **** #ifdef CYBLE_BAS_CLIENT
 755:.\Generated_Source\PSoC4/BLE_eventHandler.c ****     if((cyBle_eventHandlerFlag & CYBLE_CALLBACK) != 0u)
 756:.\Generated_Source\PSoC4/BLE_eventHandler.c ****     {
 757:.\Generated_Source\PSoC4/BLE_eventHandler.c ****         CyBle_BascReadResponseEventHandler(eventParam);
 758:.\Generated_Source\PSoC4/BLE_eventHandler.c ****     }
 759:.\Generated_Source\PSoC4/BLE_eventHandler.c **** #endif /* CYBLE_BAS_CLIENT */
 760:.\Generated_Source\PSoC4/BLE_eventHandler.c **** #ifdef CYBLE_BLS_CLIENT
 761:.\Generated_Source\PSoC4/BLE_eventHandler.c ****     if((cyBle_eventHandlerFlag & CYBLE_CALLBACK) != 0u)
 762:.\Generated_Source\PSoC4/BLE_eventHandler.c ****     {
 763:.\Generated_Source\PSoC4/BLE_eventHandler.c ****         CyBle_BlscReadResponseEventHandler(eventParam);
 764:.\Generated_Source\PSoC4/BLE_eventHandler.c ****     }
 765:.\Generated_Source\PSoC4/BLE_eventHandler.c **** #endif /* CYBLE_BLS_CLIENT */
 766:.\Generated_Source\PSoC4/BLE_eventHandler.c **** #ifdef CYBLE_CGMS_CLIENT
 767:.\Generated_Source\PSoC4/BLE_eventHandler.c ****     if((cyBle_eventHandlerFlag & CYBLE_CALLBACK) != 0u)
 768:.\Generated_Source\PSoC4/BLE_eventHandler.c ****     {
 769:.\Generated_Source\PSoC4/BLE_eventHandler.c ****         CyBle_CgmscReadResponseEventHandler(eventParam);
 770:.\Generated_Source\PSoC4/BLE_eventHandler.c ****     }
 771:.\Generated_Source\PSoC4/BLE_eventHandler.c **** #endif /* CYBLE_CGMS_CLIENT */
 772:.\Generated_Source\PSoC4/BLE_eventHandler.c **** #ifdef CYBLE_CPS_CLIENT
 773:.\Generated_Source\PSoC4/BLE_eventHandler.c ****     if((cyBle_eventHandlerFlag & CYBLE_CALLBACK) != 0u)
 774:.\Generated_Source\PSoC4/BLE_eventHandler.c ****     {
 775:.\Generated_Source\PSoC4/BLE_eventHandler.c ****         CyBle_CpscReadResponseEventHandler(eventParam);
 776:.\Generated_Source\PSoC4/BLE_eventHandler.c ****     }
 777:.\Generated_Source\PSoC4/BLE_eventHandler.c **** #endif /* CYBLE_CPS_CLIENT */
 778:.\Generated_Source\PSoC4/BLE_eventHandler.c **** #ifdef CYBLE_CSCS_CLIENT
 779:.\Generated_Source\PSoC4/BLE_eventHandler.c ****     if((cyBle_eventHandlerFlag & CYBLE_CALLBACK) != 0u)
 780:.\Generated_Source\PSoC4/BLE_eventHandler.c ****     {
 781:.\Generated_Source\PSoC4/BLE_eventHandler.c ****         CyBle_CscscReadResponseEventHandler(eventParam);
 782:.\Generated_Source\PSoC4/BLE_eventHandler.c ****     }
 783:.\Generated_Source\PSoC4/BLE_eventHandler.c **** #endif /* CYBLE_CSCS_CLIENT */
 784:.\Generated_Source\PSoC4/BLE_eventHandler.c **** #ifdef CYBLE_CTS_CLIENT
 785:.\Generated_Source\PSoC4/BLE_eventHandler.c ****     if((cyBle_eventHandlerFlag & CYBLE_CALLBACK) != 0u)
 786:.\Generated_Source\PSoC4/BLE_eventHandler.c ****     {
 787:.\Generated_Source\PSoC4/BLE_eventHandler.c ****         CyBle_CtscReadResponseEventHandler(eventParam);
 788:.\Generated_Source\PSoC4/BLE_eventHandler.c ****     }
 789:.\Generated_Source\PSoC4/BLE_eventHandler.c **** #endif /* CYBLE_BAS_CLIENT */
 790:.\Generated_Source\PSoC4/BLE_eventHandler.c **** #ifdef CYBLE_DIS_CLIENT
 791:.\Generated_Source\PSoC4/BLE_eventHandler.c ****     if((cyBle_eventHandlerFlag & CYBLE_CALLBACK) != 0u)
 792:.\Generated_Source\PSoC4/BLE_eventHandler.c ****     {
 793:.\Generated_Source\PSoC4/BLE_eventHandler.c ****         CyBle_DiscReadResponseEventHandler(eventParam);
 794:.\Generated_Source\PSoC4/BLE_eventHandler.c ****     }
 795:.\Generated_Source\PSoC4/BLE_eventHandler.c **** #endif /* CYBLE_DIS_CLIENT */
 796:.\Generated_Source\PSoC4/BLE_eventHandler.c **** #ifdef CYBLE_GLS_CLIENT
 797:.\Generated_Source\PSoC4/BLE_eventHandler.c ****     if((cyBle_eventHandlerFlag & CYBLE_CALLBACK) != 0u)
 798:.\Generated_Source\PSoC4/BLE_eventHandler.c ****     {
 799:.\Generated_Source\PSoC4/BLE_eventHandler.c ****         CyBle_GlscReadResponseEventHandler(eventParam);
 800:.\Generated_Source\PSoC4/BLE_eventHandler.c ****     }
 801:.\Generated_Source\PSoC4/BLE_eventHandler.c **** #endif /* CYBLE_GLS_CLIENT */
 802:.\Generated_Source\PSoC4/BLE_eventHandler.c **** #ifdef CYBLE_HIDS_CLIENT
 803:.\Generated_Source\PSoC4/BLE_eventHandler.c ****     if((cyBle_eventHandlerFlag & CYBLE_CALLBACK) != 0u)
 804:.\Generated_Source\PSoC4/BLE_eventHandler.c ****     {
 805:.\Generated_Source\PSoC4/BLE_eventHandler.c ****         CyBle_HidscReadResponseEventHandler(eventParam);
 806:.\Generated_Source\PSoC4/BLE_eventHandler.c ****     }
 807:.\Generated_Source\PSoC4/BLE_eventHandler.c **** #endif /* CYBLE_HIDS_CLIENT */
 808:.\Generated_Source\PSoC4/BLE_eventHandler.c **** #ifdef CYBLE_HRS_CLIENT
ARM GAS  C:\Users\Zachary\AppData\Local\Temp\ccNoimb2.s 			page 19


 809:.\Generated_Source\PSoC4/BLE_eventHandler.c ****     if((cyBle_eventHandlerFlag & CYBLE_CALLBACK) != 0u)
 810:.\Generated_Source\PSoC4/BLE_eventHandler.c ****     {
 811:.\Generated_Source\PSoC4/BLE_eventHandler.c ****         CyBle_HrscReadResponseEventHandler(eventParam);
 812:.\Generated_Source\PSoC4/BLE_eventHandler.c ****     }
 813:.\Generated_Source\PSoC4/BLE_eventHandler.c **** #endif /* CYBLE_HRS_CLIENT */
 814:.\Generated_Source\PSoC4/BLE_eventHandler.c **** #ifdef CYBLE_HTS_CLIENT
 815:.\Generated_Source\PSoC4/BLE_eventHandler.c ****     if((cyBle_eventHandlerFlag & CYBLE_CALLBACK) != 0u)
 816:.\Generated_Source\PSoC4/BLE_eventHandler.c ****     {
 817:.\Generated_Source\PSoC4/BLE_eventHandler.c ****         CyBle_HtscReadResponseEventHandler(eventParam);
 818:.\Generated_Source\PSoC4/BLE_eventHandler.c ****     }
 819:.\Generated_Source\PSoC4/BLE_eventHandler.c **** #endif /* CYBLE_HTS_CLIENT */
 820:.\Generated_Source\PSoC4/BLE_eventHandler.c **** #ifdef CYBLE_LLS_CLIENT
 821:.\Generated_Source\PSoC4/BLE_eventHandler.c ****     if((cyBle_eventHandlerFlag & CYBLE_CALLBACK) != 0u)
 822:.\Generated_Source\PSoC4/BLE_eventHandler.c ****     {
 823:.\Generated_Source\PSoC4/BLE_eventHandler.c ****         CyBle_LlscReadResponseEventHandler(eventParam);
 824:.\Generated_Source\PSoC4/BLE_eventHandler.c ****     }
 825:.\Generated_Source\PSoC4/BLE_eventHandler.c **** #endif /* CYBLE_LLS_CLIENT */
 826:.\Generated_Source\PSoC4/BLE_eventHandler.c **** #ifdef CYBLE_LNS_CLIENT
 827:.\Generated_Source\PSoC4/BLE_eventHandler.c ****     if((cyBle_eventHandlerFlag & CYBLE_CALLBACK) != 0u)
 828:.\Generated_Source\PSoC4/BLE_eventHandler.c ****     {
 829:.\Generated_Source\PSoC4/BLE_eventHandler.c ****         CyBle_LnscReadResponseEventHandler(eventParam);
 830:.\Generated_Source\PSoC4/BLE_eventHandler.c ****     }
 831:.\Generated_Source\PSoC4/BLE_eventHandler.c **** #endif /* CYBLE_LNS_CLIENT */
 832:.\Generated_Source\PSoC4/BLE_eventHandler.c **** #ifdef CYBLE_NDCS_CLIENT
 833:.\Generated_Source\PSoC4/BLE_eventHandler.c ****     if((cyBle_eventHandlerFlag & CYBLE_CALLBACK) != 0u)
 834:.\Generated_Source\PSoC4/BLE_eventHandler.c ****     {
 835:.\Generated_Source\PSoC4/BLE_eventHandler.c ****         CyBle_NdcscReadResponseEventHandler(eventParam);
 836:.\Generated_Source\PSoC4/BLE_eventHandler.c ****     }
 837:.\Generated_Source\PSoC4/BLE_eventHandler.c **** #endif /* CYBLE_NDCS_CLIENT */
 838:.\Generated_Source\PSoC4/BLE_eventHandler.c **** #ifdef CYBLE_PASS_CLIENT
 839:.\Generated_Source\PSoC4/BLE_eventHandler.c ****     if((cyBle_eventHandlerFlag & CYBLE_CALLBACK) != 0u)
 840:.\Generated_Source\PSoC4/BLE_eventHandler.c ****     {
 841:.\Generated_Source\PSoC4/BLE_eventHandler.c ****         CyBle_PasscReadResponseEventHandler(eventParam);
 842:.\Generated_Source\PSoC4/BLE_eventHandler.c ****     }
 843:.\Generated_Source\PSoC4/BLE_eventHandler.c **** #endif /* CYBLE_PASS_CLIENT */
 844:.\Generated_Source\PSoC4/BLE_eventHandler.c **** #ifdef CYBLE_RSCS_CLIENT
 845:.\Generated_Source\PSoC4/BLE_eventHandler.c ****     if((cyBle_eventHandlerFlag & CYBLE_CALLBACK) != 0u)
 846:.\Generated_Source\PSoC4/BLE_eventHandler.c ****     {
 847:.\Generated_Source\PSoC4/BLE_eventHandler.c ****         CyBle_RscscReadResponseEventHandler(eventParam);
 848:.\Generated_Source\PSoC4/BLE_eventHandler.c ****     }
 849:.\Generated_Source\PSoC4/BLE_eventHandler.c **** #endif /* CYBLE_RSCS_CLIENT */
 850:.\Generated_Source\PSoC4/BLE_eventHandler.c **** #ifdef CYBLE_RTUS_CLIENT
 851:.\Generated_Source\PSoC4/BLE_eventHandler.c ****     if((cyBle_eventHandlerFlag & CYBLE_CALLBACK) != 0u)
 852:.\Generated_Source\PSoC4/BLE_eventHandler.c ****     {
 853:.\Generated_Source\PSoC4/BLE_eventHandler.c ****         CyBle_RtuscReadResponseEventHandler(eventParam);
 854:.\Generated_Source\PSoC4/BLE_eventHandler.c ****     }
 855:.\Generated_Source\PSoC4/BLE_eventHandler.c **** #endif /* CYBLE_RTUS_CLIENT */
 856:.\Generated_Source\PSoC4/BLE_eventHandler.c **** #ifdef CYBLE_SCPS_CLIENT
 857:.\Generated_Source\PSoC4/BLE_eventHandler.c ****     if((cyBle_eventHandlerFlag & CYBLE_CALLBACK) != 0u)
 858:.\Generated_Source\PSoC4/BLE_eventHandler.c ****     {
 859:.\Generated_Source\PSoC4/BLE_eventHandler.c ****         CyBle_ScpscReadResponseEventHandler(eventParam);
 860:.\Generated_Source\PSoC4/BLE_eventHandler.c ****     }
 861:.\Generated_Source\PSoC4/BLE_eventHandler.c **** #endif /* CYBLE_SCPS_CLIENT */
 862:.\Generated_Source\PSoC4/BLE_eventHandler.c **** #ifdef CYBLE_TPS_CLIENT
 863:.\Generated_Source\PSoC4/BLE_eventHandler.c ****     if((cyBle_eventHandlerFlag & CYBLE_CALLBACK) != 0u)
 864:.\Generated_Source\PSoC4/BLE_eventHandler.c ****     {
 865:.\Generated_Source\PSoC4/BLE_eventHandler.c ****         CyBle_TpscReadResponseEventHandler(eventParam);
ARM GAS  C:\Users\Zachary\AppData\Local\Temp\ccNoimb2.s 			page 20


 866:.\Generated_Source\PSoC4/BLE_eventHandler.c ****     }
 867:.\Generated_Source\PSoC4/BLE_eventHandler.c **** #endif /* CYBLE_TPS_CLIENT */
 868:.\Generated_Source\PSoC4/BLE_eventHandler.c **** #ifdef CYBLE_UDS_CLIENT
 869:.\Generated_Source\PSoC4/BLE_eventHandler.c ****     if((cyBle_eventHandlerFlag & CYBLE_CALLBACK) != 0u)
 870:.\Generated_Source\PSoC4/BLE_eventHandler.c ****     {
 871:.\Generated_Source\PSoC4/BLE_eventHandler.c ****         CyBle_UdscReadResponseEventHandler(eventParam);
 872:.\Generated_Source\PSoC4/BLE_eventHandler.c ****     }
 873:.\Generated_Source\PSoC4/BLE_eventHandler.c **** #endif /* CYBLE_UDS_CLIENT */
 874:.\Generated_Source\PSoC4/BLE_eventHandler.c **** }
 875:.\Generated_Source\PSoC4/BLE_eventHandler.c **** #endif /* CYBLE_GATT_ROLE_CLIENT */
 876:.\Generated_Source\PSoC4/BLE_eventHandler.c **** 
 877:.\Generated_Source\PSoC4/BLE_eventHandler.c **** 
 878:.\Generated_Source\PSoC4/BLE_eventHandler.c **** /****************************************************************************** 
 879:.\Generated_Source\PSoC4/BLE_eventHandler.c **** ##Function Name: CyBle_DisconnectEventHandler
 880:.\Generated_Source\PSoC4/BLE_eventHandler.c **** *******************************************************************************
 881:.\Generated_Source\PSoC4/BLE_eventHandler.c **** 
 882:.\Generated_Source\PSoC4/BLE_eventHandler.c **** Summary:
 883:.\Generated_Source\PSoC4/BLE_eventHandler.c ****  Handles the GATT Disconnection event from the BLE stack.
 884:.\Generated_Source\PSoC4/BLE_eventHandler.c **** 
 885:.\Generated_Source\PSoC4/BLE_eventHandler.c **** Parameters:
 886:.\Generated_Source\PSoC4/BLE_eventHandler.c ****  None
 887:.\Generated_Source\PSoC4/BLE_eventHandler.c **** 
 888:.\Generated_Source\PSoC4/BLE_eventHandler.c **** Return:
 889:.\Generated_Source\PSoC4/BLE_eventHandler.c ****  None
 890:.\Generated_Source\PSoC4/BLE_eventHandler.c **** 
 891:.\Generated_Source\PSoC4/BLE_eventHandler.c **** ******************************************************************************/
 892:.\Generated_Source\PSoC4/BLE_eventHandler.c **** static void CyBle_GattDisconnectEventHandler(void)
 893:.\Generated_Source\PSoC4/BLE_eventHandler.c **** {
 219              		.loc 1 893 0
 220              		.cfi_startproc
 221 0000 80B5     		push	{r7, lr}
 222              		.cfi_def_cfa_offset 8
 223              		.cfi_offset 7, -8
 224              		.cfi_offset 14, -4
 225 0002 00AF     		add	r7, sp, #0
 226              		.cfi_def_cfa_register 7
 894:.\Generated_Source\PSoC4/BLE_eventHandler.c ****     cyBle_connHandle.attId = 0u;
 227              		.loc 1 894 0
 228 0004 034B     		ldr	r3, .L13
 229 0006 0022     		mov	r2, #0
 230 0008 5A70     		strb	r2, [r3, #1]
 895:.\Generated_Source\PSoC4/BLE_eventHandler.c ****     cyBle_connHandle.bdHandle = 0u;
 231              		.loc 1 895 0
 232 000a 024B     		ldr	r3, .L13
 233 000c 0022     		mov	r2, #0
 234 000e 1A70     		strb	r2, [r3]
 896:.\Generated_Source\PSoC4/BLE_eventHandler.c ****     
 897:.\Generated_Source\PSoC4/BLE_eventHandler.c ****     #if (CYBLE_GATT_ROLE_CLIENT)
 898:.\Generated_Source\PSoC4/BLE_eventHandler.c ****         if(CYBLE_CLIENT_STATE_DISCOVERED == CyBle_GetClientState())
 899:.\Generated_Source\PSoC4/BLE_eventHandler.c ****         {
 900:.\Generated_Source\PSoC4/BLE_eventHandler.c ****             CyBle_SetClientState(CYBLE_CLIENT_STATE_DISCONNECTED_DISCOVERED);
 901:.\Generated_Source\PSoC4/BLE_eventHandler.c ****         }
 902:.\Generated_Source\PSoC4/BLE_eventHandler.c ****         else
 903:.\Generated_Source\PSoC4/BLE_eventHandler.c ****         {
 904:.\Generated_Source\PSoC4/BLE_eventHandler.c ****             CyBle_SetClientState(CYBLE_CLIENT_STATE_DISCONNECTED);
 905:.\Generated_Source\PSoC4/BLE_eventHandler.c ****         }
 906:.\Generated_Source\PSoC4/BLE_eventHandler.c ****     #endif /* CYBLE_GATT_ROLE_CLIENT */
ARM GAS  C:\Users\Zachary\AppData\Local\Temp\ccNoimb2.s 			page 21


 907:.\Generated_Source\PSoC4/BLE_eventHandler.c ****         
 908:.\Generated_Source\PSoC4/BLE_eventHandler.c ****     #ifdef CYBLE_CPS_SERVER
 909:.\Generated_Source\PSoC4/BLE_eventHandler.c ****         #if CYBLE_GAP_ROLE_BROADCASTER
 910:.\Generated_Source\PSoC4/BLE_eventHandler.c ****             CyBle_CpssDisconnectEventHandler();
 911:.\Generated_Source\PSoC4/BLE_eventHandler.c ****         #endif /* CYBLE_GAP_ROLE_BROADCASTER */
 912:.\Generated_Source\PSoC4/BLE_eventHandler.c ****     #endif /* CYBLE_CPS_SERVER */
 913:.\Generated_Source\PSoC4/BLE_eventHandler.c **** 
 914:.\Generated_Source\PSoC4/BLE_eventHandler.c ****     #ifdef CYBLE_CPS_CLIENT
 915:.\Generated_Source\PSoC4/BLE_eventHandler.c ****         CyBle_CpscDisconnectEventHandler();
 916:.\Generated_Source\PSoC4/BLE_eventHandler.c ****     #endif /* CYBLE_CPS_CLIENT */
 917:.\Generated_Source\PSoC4/BLE_eventHandler.c **** 
 918:.\Generated_Source\PSoC4/BLE_eventHandler.c ****     #ifdef CYBLE_IAS_SERVER
 919:.\Generated_Source\PSoC4/BLE_eventHandler.c ****         CyBle_IassDisconnectEventHandler();
 920:.\Generated_Source\PSoC4/BLE_eventHandler.c ****     #endif /* CYBLE_IAS_SERVER */
 921:.\Generated_Source\PSoC4/BLE_eventHandler.c ****     
 922:.\Generated_Source\PSoC4/BLE_eventHandler.c ****     #ifdef CYBLE_GLS_SERVER
 923:.\Generated_Source\PSoC4/BLE_eventHandler.c ****         CyBle_GlsInit();
 924:.\Generated_Source\PSoC4/BLE_eventHandler.c ****     #endif /* CYBLE_GLS_SERVER */
 925:.\Generated_Source\PSoC4/BLE_eventHandler.c ****     
 926:.\Generated_Source\PSoC4/BLE_eventHandler.c ****     #ifdef CYBLE_LNS_SERVER
 927:.\Generated_Source\PSoC4/BLE_eventHandler.c ****         CyBle_LnsInit();
 928:.\Generated_Source\PSoC4/BLE_eventHandler.c ****     #endif /* CYBLE_LNS_SERVER */
 929:.\Generated_Source\PSoC4/BLE_eventHandler.c ****     
 930:.\Generated_Source\PSoC4/BLE_eventHandler.c ****     #ifdef CYBLE_UDS_SERVER
 931:.\Generated_Source\PSoC4/BLE_eventHandler.c ****         CyBle_UdsInit();
 932:.\Generated_Source\PSoC4/BLE_eventHandler.c ****     #endif /* CYBLE_UDS_SERVER */
 933:.\Generated_Source\PSoC4/BLE_eventHandler.c **** }
 235              		.loc 1 933 0
 236 0010 BD46     		mov	sp, r7
 237              		@ sp needed
 238 0012 80BD     		pop	{r7, pc}
 239              	.L14:
 240              		.align	2
 241              	.L13:
 242 0014 00000000 		.word	cyBle_connHandle
 243              		.cfi_endproc
 244              	.LFE4:
 245              		.size	CyBle_GattDisconnectEventHandler, .-CyBle_GattDisconnectEventHandler
 246              		.section	.text.CyBle_TimeOutEventHandler,"ax",%progbits
 247              		.align	2
 248              		.code	16
 249              		.thumb_func
 250              		.type	CyBle_TimeOutEventHandler, %function
 251              	CyBle_TimeOutEventHandler:
 252              	.LFB5:
 934:.\Generated_Source\PSoC4/BLE_eventHandler.c **** 
 935:.\Generated_Source\PSoC4/BLE_eventHandler.c **** 
 936:.\Generated_Source\PSoC4/BLE_eventHandler.c **** /****************************************************************************** 
 937:.\Generated_Source\PSoC4/BLE_eventHandler.c **** ##Function Name: CyBle_TimeOutEventHandler
 938:.\Generated_Source\PSoC4/BLE_eventHandler.c **** *******************************************************************************
 939:.\Generated_Source\PSoC4/BLE_eventHandler.c **** 
 940:.\Generated_Source\PSoC4/BLE_eventHandler.c **** Summary:
 941:.\Generated_Source\PSoC4/BLE_eventHandler.c ****  Handles the CYBLE_EVT_TIMEOUT event from the BLE stack.
 942:.\Generated_Source\PSoC4/BLE_eventHandler.c **** 
 943:.\Generated_Source\PSoC4/BLE_eventHandler.c **** Parameters:
 944:.\Generated_Source\PSoC4/BLE_eventHandler.c ****  *eventParam - The pointer to a structure of type CYBLE_TO_REASON_CODE_T.
 945:.\Generated_Source\PSoC4/BLE_eventHandler.c **** 
ARM GAS  C:\Users\Zachary\AppData\Local\Temp\ccNoimb2.s 			page 22


 946:.\Generated_Source\PSoC4/BLE_eventHandler.c **** Return:
 947:.\Generated_Source\PSoC4/BLE_eventHandler.c ****  None
 948:.\Generated_Source\PSoC4/BLE_eventHandler.c **** 
 949:.\Generated_Source\PSoC4/BLE_eventHandler.c **** ******************************************************************************/
 950:.\Generated_Source\PSoC4/BLE_eventHandler.c **** static void CyBle_TimeOutEventHandler(const CYBLE_TO_REASON_CODE_T *eventParam)
 951:.\Generated_Source\PSoC4/BLE_eventHandler.c **** {
 253              		.loc 1 951 0
 254              		.cfi_startproc
 255 0000 80B5     		push	{r7, lr}
 256              		.cfi_def_cfa_offset 8
 257              		.cfi_offset 7, -8
 258              		.cfi_offset 14, -4
 259 0002 82B0     		sub	sp, sp, #8
 260              		.cfi_def_cfa_offset 16
 261 0004 00AF     		add	r7, sp, #0
 262              		.cfi_def_cfa_register 7
 263 0006 7860     		str	r0, [r7, #4]
 952:.\Generated_Source\PSoC4/BLE_eventHandler.c ****     if(*eventParam == CYBLE_GATT_RSP_TO)
 953:.\Generated_Source\PSoC4/BLE_eventHandler.c ****     {
 954:.\Generated_Source\PSoC4/BLE_eventHandler.c ****     #if (CYBLE_GATT_ROLE_CLIENT)
 955:.\Generated_Source\PSoC4/BLE_eventHandler.c ****         if(0u != (cyBle_eventHandlerFlag & CYBLE_AUTO_DISCOVERY))
 956:.\Generated_Source\PSoC4/BLE_eventHandler.c ****         {
 957:.\Generated_Source\PSoC4/BLE_eventHandler.c ****             switch(CyBle_GetClientState())
 958:.\Generated_Source\PSoC4/BLE_eventHandler.c ****             {
 959:.\Generated_Source\PSoC4/BLE_eventHandler.c ****                 case CYBLE_CLIENT_STATE_SRVC_DISCOVERING:
 960:.\Generated_Source\PSoC4/BLE_eventHandler.c ****                     CyBle_ApplCallback(CYBLE_EVT_GATTC_SRVC_DISCOVERY_FAILED, NULL);
 961:.\Generated_Source\PSoC4/BLE_eventHandler.c ****                     break;
 962:.\Generated_Source\PSoC4/BLE_eventHandler.c ****                 case CYBLE_CLIENT_STATE_INCL_DISCOVERING:
 963:.\Generated_Source\PSoC4/BLE_eventHandler.c ****                     CyBle_ApplCallback(CYBLE_EVT_GATTC_INCL_DISCOVERY_FAILED, NULL);
 964:.\Generated_Source\PSoC4/BLE_eventHandler.c ****                     break;
 965:.\Generated_Source\PSoC4/BLE_eventHandler.c ****                 case CYBLE_CLIENT_STATE_CHAR_DISCOVERING:
 966:.\Generated_Source\PSoC4/BLE_eventHandler.c ****                     CyBle_ApplCallback(CYBLE_EVT_GATTC_CHAR_DISCOVERY_FAILED, NULL);
 967:.\Generated_Source\PSoC4/BLE_eventHandler.c ****                     break;
 968:.\Generated_Source\PSoC4/BLE_eventHandler.c ****                 case CYBLE_CLIENT_STATE_DESCR_DISCOVERING:
 969:.\Generated_Source\PSoC4/BLE_eventHandler.c ****                     CyBle_ApplCallback(CYBLE_EVT_GATTC_DESCR_DISCOVERY_FAILED, NULL);
 970:.\Generated_Source\PSoC4/BLE_eventHandler.c ****                     break;
 971:.\Generated_Source\PSoC4/BLE_eventHandler.c ****                 default:        /* Other states should not be set in Auto discovery mode */
 972:.\Generated_Source\PSoC4/BLE_eventHandler.c ****                     break;
 973:.\Generated_Source\PSoC4/BLE_eventHandler.c ****             }
 974:.\Generated_Source\PSoC4/BLE_eventHandler.c ****             cyBle_eventHandlerFlag &= (uint8)~CYBLE_AUTO_DISCOVERY;
 975:.\Generated_Source\PSoC4/BLE_eventHandler.c ****             CyBle_SetClientState(CYBLE_CLIENT_STATE_CONNECTED);
 976:.\Generated_Source\PSoC4/BLE_eventHandler.c ****         }
 977:.\Generated_Source\PSoC4/BLE_eventHandler.c ****     #endif /* CYBLE_GATT_ROLE_CLIENT */
 978:.\Generated_Source\PSoC4/BLE_eventHandler.c ****     #ifdef CYBLE_CPS_SERVER
 979:.\Generated_Source\PSoC4/BLE_eventHandler.c ****         CyBle_CpssTimeOutEventHandler();
 980:.\Generated_Source\PSoC4/BLE_eventHandler.c ****     #endif /* CYBLE_CPS_SERVER */
 981:.\Generated_Source\PSoC4/BLE_eventHandler.c ****     }
 982:.\Generated_Source\PSoC4/BLE_eventHandler.c ****     
 983:.\Generated_Source\PSoC4/BLE_eventHandler.c ****     /* Connection procedure timeout */
 984:.\Generated_Source\PSoC4/BLE_eventHandler.c ****     if(*eventParam == CYBLE_GENERIC_TO)
 985:.\Generated_Source\PSoC4/BLE_eventHandler.c ****     {
 986:.\Generated_Source\PSoC4/BLE_eventHandler.c ****     #if(CYBLE_GAP_ROLE_CENTRAL)
 987:.\Generated_Source\PSoC4/BLE_eventHandler.c ****         if(CYBLE_STATE_CONNECTING == CyBle_GetState())
 988:.\Generated_Source\PSoC4/BLE_eventHandler.c ****         {
 989:.\Generated_Source\PSoC4/BLE_eventHandler.c ****             (void)CyBle_GapcCancelDeviceConnection();
 990:.\Generated_Source\PSoC4/BLE_eventHandler.c ****         }
 991:.\Generated_Source\PSoC4/BLE_eventHandler.c ****     #endif /* CYBLE_GAP_ROLE_CENTRAL */
ARM GAS  C:\Users\Zachary\AppData\Local\Temp\ccNoimb2.s 			page 23


 992:.\Generated_Source\PSoC4/BLE_eventHandler.c ****     }
 993:.\Generated_Source\PSoC4/BLE_eventHandler.c **** }
 264              		.loc 1 993 0
 265 0008 BD46     		mov	sp, r7
 266 000a 02B0     		add	sp, sp, #8
 267              		@ sp needed
 268 000c 80BD     		pop	{r7, pc}
 269              		.cfi_endproc
 270              	.LFE5:
 271              		.size	CyBle_TimeOutEventHandler, .-CyBle_TimeOutEventHandler
 272              		.section	.text.CyBle_GattConnectReqHandler,"ax",%progbits
 273              		.align	2
 274              		.code	16
 275              		.thumb_func
 276              		.type	CyBle_GattConnectReqHandler, %function
 277              	CyBle_GattConnectReqHandler:
 278              	.LFB6:
 994:.\Generated_Source\PSoC4/BLE_eventHandler.c **** 
 995:.\Generated_Source\PSoC4/BLE_eventHandler.c **** 
 996:.\Generated_Source\PSoC4/BLE_eventHandler.c **** /****************************************************************************** 
 997:.\Generated_Source\PSoC4/BLE_eventHandler.c **** ##Function Name: CyBle_GattConnectReqHandler
 998:.\Generated_Source\PSoC4/BLE_eventHandler.c **** *******************************************************************************
 999:.\Generated_Source\PSoC4/BLE_eventHandler.c **** 
1000:.\Generated_Source\PSoC4/BLE_eventHandler.c **** Summary:
1001:.\Generated_Source\PSoC4/BLE_eventHandler.c ****  Handles the GATT connect event from the BLE stack.
1002:.\Generated_Source\PSoC4/BLE_eventHandler.c **** 
1003:.\Generated_Source\PSoC4/BLE_eventHandler.c **** Parameters:
1004:.\Generated_Source\PSoC4/BLE_eventHandler.c ****  None
1005:.\Generated_Source\PSoC4/BLE_eventHandler.c **** 
1006:.\Generated_Source\PSoC4/BLE_eventHandler.c **** Return:
1007:.\Generated_Source\PSoC4/BLE_eventHandler.c ****  None
1008:.\Generated_Source\PSoC4/BLE_eventHandler.c **** 
1009:.\Generated_Source\PSoC4/BLE_eventHandler.c **** ******************************************************************************/
1010:.\Generated_Source\PSoC4/BLE_eventHandler.c **** static void CyBle_GattConnectReqHandler(void)
1011:.\Generated_Source\PSoC4/BLE_eventHandler.c **** {
 279              		.loc 1 1011 0
 280              		.cfi_startproc
 281 0000 80B5     		push	{r7, lr}
 282              		.cfi_def_cfa_offset 8
 283              		.cfi_offset 7, -8
 284              		.cfi_offset 14, -4
 285 0002 00AF     		add	r7, sp, #0
 286              		.cfi_def_cfa_register 7
1012:.\Generated_Source\PSoC4/BLE_eventHandler.c ****     #ifdef CYBLE_CPS_SERVER
1013:.\Generated_Source\PSoC4/BLE_eventHandler.c ****         CyBle_CpssConnectEventHandler();
1014:.\Generated_Source\PSoC4/BLE_eventHandler.c ****     #endif /* CYBLE_CPS_SERVER */
1015:.\Generated_Source\PSoC4/BLE_eventHandler.c ****     
1016:.\Generated_Source\PSoC4/BLE_eventHandler.c ****     #ifdef CYBLE_CSCS_SERVER
1017:.\Generated_Source\PSoC4/BLE_eventHandler.c ****             CyBle_CscsInit();
1018:.\Generated_Source\PSoC4/BLE_eventHandler.c ****     #endif /* CYBLE_CSCS_SERVER */
1019:.\Generated_Source\PSoC4/BLE_eventHandler.c ****     
1020:.\Generated_Source\PSoC4/BLE_eventHandler.c ****     #ifdef CYBLE_LLS_SERVER
1021:.\Generated_Source\PSoC4/BLE_eventHandler.c ****         CyBle_LlssConnectEventHandler();
1022:.\Generated_Source\PSoC4/BLE_eventHandler.c ****     #endif /* CYBLE_LLS_SERVER */
1023:.\Generated_Source\PSoC4/BLE_eventHandler.c ****     
1024:.\Generated_Source\PSoC4/BLE_eventHandler.c ****     #ifdef CYBLE_HIDS_SERVER
1025:.\Generated_Source\PSoC4/BLE_eventHandler.c ****         CyBle_HidssOnDeviceConnected();
ARM GAS  C:\Users\Zachary\AppData\Local\Temp\ccNoimb2.s 			page 24


1026:.\Generated_Source\PSoC4/BLE_eventHandler.c ****     #endif /* CYBLE_HIDS_SERVER */
1027:.\Generated_Source\PSoC4/BLE_eventHandler.c **** 
1028:.\Generated_Source\PSoC4/BLE_eventHandler.c ****     #ifdef CYBLE_RSCS_SERVER
1029:.\Generated_Source\PSoC4/BLE_eventHandler.c ****         CyBle_RscsInit();
1030:.\Generated_Source\PSoC4/BLE_eventHandler.c ****     #endif /* CYBLE_RSCS_SERVER */
1031:.\Generated_Source\PSoC4/BLE_eventHandler.c **** }
 287              		.loc 1 1031 0
 288 0004 BD46     		mov	sp, r7
 289              		@ sp needed
 290 0006 80BD     		pop	{r7, pc}
 291              		.cfi_endproc
 292              	.LFE6:
 293              		.size	CyBle_GattConnectReqHandler, .-CyBle_GattConnectReqHandler
 294              		.section	.text.CyBle_IsDeviceAddressValid,"ax",%progbits
 295              		.align	2
 296              		.code	16
 297              		.thumb_func
 298              		.type	CyBle_IsDeviceAddressValid, %function
 299              	CyBle_IsDeviceAddressValid:
 300              	.LFB7:
1032:.\Generated_Source\PSoC4/BLE_eventHandler.c **** 
1033:.\Generated_Source\PSoC4/BLE_eventHandler.c **** 
1034:.\Generated_Source\PSoC4/BLE_eventHandler.c **** #if (CYBLE_GATT_ROLE_SERVER || CYBLE_GATT_ROLE_CLIENT)
1035:.\Generated_Source\PSoC4/BLE_eventHandler.c **** 
1036:.\Generated_Source\PSoC4/BLE_eventHandler.c **** /****************************************************************************** 
1037:.\Generated_Source\PSoC4/BLE_eventHandler.c **** ##Function Name: CyBle_IsDeviceAddressValid
1038:.\Generated_Source\PSoC4/BLE_eventHandler.c **** *******************************************************************************
1039:.\Generated_Source\PSoC4/BLE_eventHandler.c **** 
1040:.\Generated_Source\PSoC4/BLE_eventHandler.c **** Summary:
1041:.\Generated_Source\PSoC4/BLE_eventHandler.c ****  This function verifies that BLE public address has been programmed to SFLASH 
1042:.\Generated_Source\PSoC4/BLE_eventHandler.c ****  during manufacture.
1043:.\Generated_Source\PSoC4/BLE_eventHandler.c **** 
1044:.\Generated_Source\PSoC4/BLE_eventHandler.c **** Parameters:
1045:.\Generated_Source\PSoC4/BLE_eventHandler.c ****  CYBLE_GAP_BD_ADDR_T *sflashDeviceAddress: the pointer to the BD address of 
1046:.\Generated_Source\PSoC4/BLE_eventHandler.c ****                                            type CYBLE_GAP_BD_ADDR_T. 
1047:.\Generated_Source\PSoC4/BLE_eventHandler.c **** 
1048:.\Generated_Source\PSoC4/BLE_eventHandler.c **** Return:
1049:.\Generated_Source\PSoC4/BLE_eventHandler.c ****  Non zero value when a device address differs from the default SFLASH content.
1050:.\Generated_Source\PSoC4/BLE_eventHandler.c **** 
1051:.\Generated_Source\PSoC4/BLE_eventHandler.c **** ******************************************************************************/
1052:.\Generated_Source\PSoC4/BLE_eventHandler.c **** static uint8 CyBle_IsDeviceAddressValid(const CYBLE_GAP_BD_ADDR_T *sflashDeviceAddress)
1053:.\Generated_Source\PSoC4/BLE_eventHandler.c **** {
 301              		.loc 1 1053 0
 302              		.cfi_startproc
 303 0000 80B5     		push	{r7, lr}
 304              		.cfi_def_cfa_offset 8
 305              		.cfi_offset 7, -8
 306              		.cfi_offset 14, -4
 307 0002 84B0     		sub	sp, sp, #16
 308              		.cfi_def_cfa_offset 24
 309 0004 00AF     		add	r7, sp, #0
 310              		.cfi_def_cfa_register 7
 311 0006 7860     		str	r0, [r7, #4]
1054:.\Generated_Source\PSoC4/BLE_eventHandler.c ****     uint8 i;
1055:.\Generated_Source\PSoC4/BLE_eventHandler.c ****     uint8 sflashAddressValid = 0u;
 312              		.loc 1 1055 0
 313 0008 3B1C     		mov	r3, r7
ARM GAS  C:\Users\Zachary\AppData\Local\Temp\ccNoimb2.s 			page 25


 314 000a 0E33     		add	r3, r3, #14
 315 000c 0022     		mov	r2, #0
 316 000e 1A70     		strb	r2, [r3]
1056:.\Generated_Source\PSoC4/BLE_eventHandler.c ****     
1057:.\Generated_Source\PSoC4/BLE_eventHandler.c ****     if(sflashDeviceAddress -> type == CYBLE_GAP_ADDR_TYPE_PUBLIC)  
 317              		.loc 1 1057 0
 318 0010 7B68     		ldr	r3, [r7, #4]
 319 0012 9B79     		ldrb	r3, [r3, #6]
 320 0014 002B     		cmp	r3, #0
 321 0016 1CD1     		bne	.L18
1058:.\Generated_Source\PSoC4/BLE_eventHandler.c ****     {
1059:.\Generated_Source\PSoC4/BLE_eventHandler.c ****         for(i = 0u; i < CYBLE_GAP_BD_ADDR_SIZE; i++)
 322              		.loc 1 1059 0
 323 0018 3B1C     		mov	r3, r7
 324 001a 0F33     		add	r3, r3, #15
 325 001c 0022     		mov	r2, #0
 326 001e 1A70     		strb	r2, [r3]
 327 0020 12E0     		b	.L19
 328              	.L21:
1060:.\Generated_Source\PSoC4/BLE_eventHandler.c ****         {
1061:.\Generated_Source\PSoC4/BLE_eventHandler.c ****             if(sflashDeviceAddress->bdAddr[i] != 0u)
 329              		.loc 1 1061 0
 330 0022 3B1C     		mov	r3, r7
 331 0024 0F33     		add	r3, r3, #15
 332 0026 1B78     		ldrb	r3, [r3]
 333 0028 7A68     		ldr	r2, [r7, #4]
 334 002a D35C     		ldrb	r3, [r2, r3]
 335 002c 002B     		cmp	r3, #0
 336 002e 04D0     		beq	.L20
1062:.\Generated_Source\PSoC4/BLE_eventHandler.c ****             {
1063:.\Generated_Source\PSoC4/BLE_eventHandler.c ****                 sflashAddressValid = 1u;
 337              		.loc 1 1063 0
 338 0030 3B1C     		mov	r3, r7
 339 0032 0E33     		add	r3, r3, #14
 340 0034 0122     		mov	r2, #1
 341 0036 1A70     		strb	r2, [r3]
1064:.\Generated_Source\PSoC4/BLE_eventHandler.c ****                 break;
 342              		.loc 1 1064 0
 343 0038 0BE0     		b	.L18
 344              	.L20:
1059:.\Generated_Source\PSoC4/BLE_eventHandler.c ****         for(i = 0u; i < CYBLE_GAP_BD_ADDR_SIZE; i++)
 345              		.loc 1 1059 0
 346 003a 3B1C     		mov	r3, r7
 347 003c 0F33     		add	r3, r3, #15
 348 003e 1A78     		ldrb	r2, [r3]
 349 0040 3B1C     		mov	r3, r7
 350 0042 0F33     		add	r3, r3, #15
 351 0044 0132     		add	r2, r2, #1
 352 0046 1A70     		strb	r2, [r3]
 353              	.L19:
1059:.\Generated_Source\PSoC4/BLE_eventHandler.c ****         for(i = 0u; i < CYBLE_GAP_BD_ADDR_SIZE; i++)
 354              		.loc 1 1059 0 is_stmt 0 discriminator 1
 355 0048 3B1C     		mov	r3, r7
 356 004a 0F33     		add	r3, r3, #15
 357 004c 1B78     		ldrb	r3, [r3]
 358 004e 052B     		cmp	r3, #5
 359 0050 E7D9     		bls	.L21
ARM GAS  C:\Users\Zachary\AppData\Local\Temp\ccNoimb2.s 			page 26


 360              	.L18:
1065:.\Generated_Source\PSoC4/BLE_eventHandler.c ****             }
1066:.\Generated_Source\PSoC4/BLE_eventHandler.c ****         }
1067:.\Generated_Source\PSoC4/BLE_eventHandler.c ****     }
1068:.\Generated_Source\PSoC4/BLE_eventHandler.c ****     return (sflashAddressValid);
 361              		.loc 1 1068 0 is_stmt 1
 362 0052 3B1C     		mov	r3, r7
 363 0054 0E33     		add	r3, r3, #14
 364 0056 1B78     		ldrb	r3, [r3]
1069:.\Generated_Source\PSoC4/BLE_eventHandler.c **** }
 365              		.loc 1 1069 0
 366 0058 181C     		mov	r0, r3
 367 005a BD46     		mov	sp, r7
 368 005c 04B0     		add	sp, sp, #16
 369              		@ sp needed
 370 005e 80BD     		pop	{r7, pc}
 371              		.cfi_endproc
 372              	.LFE7:
 373              		.size	CyBle_IsDeviceAddressValid, .-CyBle_IsDeviceAddressValid
 374              		.section	.text.CyBle_L2Cap_ConnParamUpdateRspEventHandler,"ax",%progbits
 375              		.align	2
 376              		.code	16
 377              		.thumb_func
 378              		.type	CyBle_L2Cap_ConnParamUpdateRspEventHandler, %function
 379              	CyBle_L2Cap_ConnParamUpdateRspEventHandler:
 380              	.LFB8:
1070:.\Generated_Source\PSoC4/BLE_eventHandler.c **** #endif /* CYBLE_GATT_ROLE_SERVER || CYBLE_GATT_ROLE_CLIENT */
1071:.\Generated_Source\PSoC4/BLE_eventHandler.c **** 
1072:.\Generated_Source\PSoC4/BLE_eventHandler.c **** 
1073:.\Generated_Source\PSoC4/BLE_eventHandler.c **** /****************************************************************************** 
1074:.\Generated_Source\PSoC4/BLE_eventHandler.c **** ##Function Name: CyBle_L2Cap_ConnParamUpdateRspHandler
1075:.\Generated_Source\PSoC4/BLE_eventHandler.c **** *******************************************************************************
1076:.\Generated_Source\PSoC4/BLE_eventHandler.c **** 
1077:.\Generated_Source\PSoC4/BLE_eventHandler.c **** Summary:
1078:.\Generated_Source\PSoC4/BLE_eventHandler.c ****  Handles the L2CAP connection parameter response event from
1079:.\Generated_Source\PSoC4/BLE_eventHandler.c ****  the BLE stack.
1080:.\Generated_Source\PSoC4/BLE_eventHandler.c **** 
1081:.\Generated_Source\PSoC4/BLE_eventHandler.c **** Parameters:
1082:.\Generated_Source\PSoC4/BLE_eventHandler.c ****  uint16 response:
1083:.\Generated_Source\PSoC4/BLE_eventHandler.c ****      * Accepted = 0x0000
1084:.\Generated_Source\PSoC4/BLE_eventHandler.c ****      * Rejected = 0x0001
1085:.\Generated_Source\PSoC4/BLE_eventHandler.c **** 
1086:.\Generated_Source\PSoC4/BLE_eventHandler.c **** Return:
1087:.\Generated_Source\PSoC4/BLE_eventHandler.c ****  None
1088:.\Generated_Source\PSoC4/BLE_eventHandler.c **** 
1089:.\Generated_Source\PSoC4/BLE_eventHandler.c **** ******************************************************************************/
1090:.\Generated_Source\PSoC4/BLE_eventHandler.c **** static void CyBle_L2Cap_ConnParamUpdateRspEventHandler(uint16 response)
1091:.\Generated_Source\PSoC4/BLE_eventHandler.c **** {
 381              		.loc 1 1091 0
 382              		.cfi_startproc
 383 0000 80B5     		push	{r7, lr}
 384              		.cfi_def_cfa_offset 8
 385              		.cfi_offset 7, -8
 386              		.cfi_offset 14, -4
 387 0002 82B0     		sub	sp, sp, #8
 388              		.cfi_def_cfa_offset 16
 389 0004 00AF     		add	r7, sp, #0
ARM GAS  C:\Users\Zachary\AppData\Local\Temp\ccNoimb2.s 			page 27


 390              		.cfi_def_cfa_register 7
 391 0006 021C     		mov	r2, r0
 392 0008 BB1D     		add	r3, r7, #6
 393 000a 1A80     		strh	r2, [r3]
1092:.\Generated_Source\PSoC4/BLE_eventHandler.c ****     #ifdef CYBLE_CPS_SERVER
1093:.\Generated_Source\PSoC4/BLE_eventHandler.c ****         CyBle_CpssConnParamUpdateRspEventHandler(response);
1094:.\Generated_Source\PSoC4/BLE_eventHandler.c ****     #endif /* CYBLE_CPS_SERVER */
1095:.\Generated_Source\PSoC4/BLE_eventHandler.c ****     
1096:.\Generated_Source\PSoC4/BLE_eventHandler.c ****     /* Unreferenced variable warning workaround */
1097:.\Generated_Source\PSoC4/BLE_eventHandler.c ****     if(response != 0u)
1098:.\Generated_Source\PSoC4/BLE_eventHandler.c ****     {
1099:.\Generated_Source\PSoC4/BLE_eventHandler.c ****     }
1100:.\Generated_Source\PSoC4/BLE_eventHandler.c **** }
 394              		.loc 1 1100 0
 395 000c BD46     		mov	sp, r7
 396 000e 02B0     		add	sp, sp, #8
 397              		@ sp needed
 398 0010 80BD     		pop	{r7, pc}
 399              		.cfi_endproc
 400              	.LFE8:
 401              		.size	CyBle_L2Cap_ConnParamUpdateRspEventHandler, .-CyBle_L2Cap_ConnParamUpdateRspEventHandler
 402 0012 C046     		.section	.text.CyBle_GapConnUpdateCompleteEventHandler,"ax",%progbits
 403              		.align	2
 404              		.code	16
 405              		.thumb_func
 406              		.type	CyBle_GapConnUpdateCompleteEventHandler, %function
 407              	CyBle_GapConnUpdateCompleteEventHandler:
 408              	.LFB9:
1101:.\Generated_Source\PSoC4/BLE_eventHandler.c **** 
1102:.\Generated_Source\PSoC4/BLE_eventHandler.c **** 
1103:.\Generated_Source\PSoC4/BLE_eventHandler.c **** /****************************************************************************** 
1104:.\Generated_Source\PSoC4/BLE_eventHandler.c **** ##Function Name: CyBle_GapConnUpdateCompleteEventHandler
1105:.\Generated_Source\PSoC4/BLE_eventHandler.c **** *******************************************************************************
1106:.\Generated_Source\PSoC4/BLE_eventHandler.c **** 
1107:.\Generated_Source\PSoC4/BLE_eventHandler.c **** Summary:
1108:.\Generated_Source\PSoC4/BLE_eventHandler.c ****  Handles the CYBLE_EVT_GAP_CONNECTION_UPDATE_COMPLETE event from
1109:.\Generated_Source\PSoC4/BLE_eventHandler.c ****  the BLE stack.
1110:.\Generated_Source\PSoC4/BLE_eventHandler.c **** 
1111:.\Generated_Source\PSoC4/BLE_eventHandler.c **** Parameters:
1112:.\Generated_Source\PSoC4/BLE_eventHandler.c ****  *eventParam: The pointer to the data structure specified by the event.
1113:.\Generated_Source\PSoC4/BLE_eventHandler.c **** 
1114:.\Generated_Source\PSoC4/BLE_eventHandler.c **** Return:
1115:.\Generated_Source\PSoC4/BLE_eventHandler.c ****  None
1116:.\Generated_Source\PSoC4/BLE_eventHandler.c **** 
1117:.\Generated_Source\PSoC4/BLE_eventHandler.c **** ******************************************************************************/
1118:.\Generated_Source\PSoC4/BLE_eventHandler.c **** static void CyBle_GapConnUpdateCompleteEventHandler(const CYBLE_GAP_CONN_PARAM_UPDATED_IN_CONTROLLE
1119:.\Generated_Source\PSoC4/BLE_eventHandler.c **** {
 409              		.loc 1 1119 0
 410              		.cfi_startproc
 411 0000 80B5     		push	{r7, lr}
 412              		.cfi_def_cfa_offset 8
 413              		.cfi_offset 7, -8
 414              		.cfi_offset 14, -4
 415 0002 82B0     		sub	sp, sp, #8
 416              		.cfi_def_cfa_offset 16
 417 0004 00AF     		add	r7, sp, #0
 418              		.cfi_def_cfa_register 7
ARM GAS  C:\Users\Zachary\AppData\Local\Temp\ccNoimb2.s 			page 28


 419 0006 7860     		str	r0, [r7, #4]
1120:.\Generated_Source\PSoC4/BLE_eventHandler.c ****     #ifdef CYBLE_CPS_SERVER
1121:.\Generated_Source\PSoC4/BLE_eventHandler.c ****         CyBle_CpssConnUpdateCompleteEventHandler(eventParam);
1122:.\Generated_Source\PSoC4/BLE_eventHandler.c ****     #endif /* CYBLE_CPS_SERVER */
1123:.\Generated_Source\PSoC4/BLE_eventHandler.c ****     
1124:.\Generated_Source\PSoC4/BLE_eventHandler.c ****     /* Unreferenced variable warning workaround */
1125:.\Generated_Source\PSoC4/BLE_eventHandler.c ****     if(eventParam != 0u)
1126:.\Generated_Source\PSoC4/BLE_eventHandler.c ****     {
1127:.\Generated_Source\PSoC4/BLE_eventHandler.c ****     }
1128:.\Generated_Source\PSoC4/BLE_eventHandler.c **** }
 420              		.loc 1 1128 0
 421 0008 BD46     		mov	sp, r7
 422 000a 02B0     		add	sp, sp, #8
 423              		@ sp needed
 424 000c 80BD     		pop	{r7, pc}
 425              		.cfi_endproc
 426              	.LFE9:
 427              		.size	CyBle_GapConnUpdateCompleteEventHandler, .-CyBle_GapConnUpdateCompleteEventHandler
 428              		.section	.text.CyBle_EventHandler,"ax",%progbits
 429              		.align	2
 430              		.global	CyBle_EventHandler
 431              		.code	16
 432              		.thumb_func
 433              		.type	CyBle_EventHandler, %function
 434              	CyBle_EventHandler:
 435              	.LFB10:
1129:.\Generated_Source\PSoC4/BLE_eventHandler.c **** 
1130:.\Generated_Source\PSoC4/BLE_eventHandler.c **** 
1131:.\Generated_Source\PSoC4/BLE_eventHandler.c **** /****************************************************************************** 
1132:.\Generated_Source\PSoC4/BLE_eventHandler.c **** ##Function Name: CyBle_EventHandler
1133:.\Generated_Source\PSoC4/BLE_eventHandler.c **** *******************************************************************************
1134:.\Generated_Source\PSoC4/BLE_eventHandler.c **** 
1135:.\Generated_Source\PSoC4/BLE_eventHandler.c **** Summary:
1136:.\Generated_Source\PSoC4/BLE_eventHandler.c ****  Handles the events from the BLE stack
1137:.\Generated_Source\PSoC4/BLE_eventHandler.c **** 
1138:.\Generated_Source\PSoC4/BLE_eventHandler.c **** Parameters:
1139:.\Generated_Source\PSoC4/BLE_eventHandler.c ****  eventCode:    the event code
1140:.\Generated_Source\PSoC4/BLE_eventHandler.c ****  *eventParam:  the event parameters
1141:.\Generated_Source\PSoC4/BLE_eventHandler.c **** 
1142:.\Generated_Source\PSoC4/BLE_eventHandler.c **** Return:
1143:.\Generated_Source\PSoC4/BLE_eventHandler.c ****  None.
1144:.\Generated_Source\PSoC4/BLE_eventHandler.c **** 
1145:.\Generated_Source\PSoC4/BLE_eventHandler.c **** ******************************************************************************/
1146:.\Generated_Source\PSoC4/BLE_eventHandler.c **** void CyBle_EventHandler(uint8 eventCode, void *eventParam)
1147:.\Generated_Source\PSoC4/BLE_eventHandler.c **** {
 436              		.loc 1 1147 0
 437              		.cfi_startproc
 438 0000 80B5     		push	{r7, lr}
 439              		.cfi_def_cfa_offset 8
 440              		.cfi_offset 7, -8
 441              		.cfi_offset 14, -4
 442 0002 84B0     		sub	sp, sp, #16
 443              		.cfi_def_cfa_offset 24
 444 0004 00AF     		add	r7, sp, #0
 445              		.cfi_def_cfa_register 7
 446 0006 021C     		mov	r2, r0
 447 0008 3960     		str	r1, [r7]
ARM GAS  C:\Users\Zachary\AppData\Local\Temp\ccNoimb2.s 			page 29


 448 000a FB1D     		add	r3, r7, #7
 449 000c 1A70     		strb	r2, [r3]
1148:.\Generated_Source\PSoC4/BLE_eventHandler.c ****     cyBle_eventHandlerFlag |= CYBLE_CALLBACK;
 450              		.loc 1 1148 0
 451 000e 9F4B     		ldr	r3, .L55
 452 0010 1B78     		ldrb	r3, [r3]
 453 0012 DBB2     		uxtb	r3, r3
 454 0014 0122     		mov	r2, #1
 455 0016 1343     		orr	r3, r2
 456 0018 DAB2     		uxtb	r2, r3
 457 001a 9C4B     		ldr	r3, .L55
 458 001c 1A70     		strb	r2, [r3]
1149:.\Generated_Source\PSoC4/BLE_eventHandler.c **** 
1150:.\Generated_Source\PSoC4/BLE_eventHandler.c ****     /* Common Profile event handling */
1151:.\Generated_Source\PSoC4/BLE_eventHandler.c ****     switch(eventCode)
 459              		.loc 1 1151 0
 460 001e FB1D     		add	r3, r7, #7
 461 0020 1B78     		ldrb	r3, [r3]
 462 0022 712B     		cmp	r3, #113
 463 0024 00D9     		bls	.LCB390
 464 0026 16E1     		b	.L54	@long jump
 465              	.LCB390:
 466 0028 9A00     		lsl	r2, r3, #2
 467 002a 994B     		ldr	r3, .L55+4
 468 002c D318     		add	r3, r2, r3
 469 002e 1B68     		ldr	r3, [r3]
 470 0030 9F46     		mov	pc, r3
 471              		.section	.rodata
 472              		.align	2
 473              	.L28:
 474 0000 56020000 		.word	.L54
 475 0004 32000000 		.word	.L27
 476 0008 C4000000 		.word	.L29
 477 000c 56020000 		.word	.L54
 478 0010 56020000 		.word	.L54
 479 0014 CE000000 		.word	.L30
 480 0018 56020000 		.word	.L54
 481 001c 56020000 		.word	.L54
 482 0020 56020000 		.word	.L54
 483 0024 56020000 		.word	.L54
 484 0028 56020000 		.word	.L54
 485 002c 56020000 		.word	.L54
 486 0030 56020000 		.word	.L54
 487 0034 56020000 		.word	.L54
 488 0038 56020000 		.word	.L54
 489 003c 56020000 		.word	.L54
 490 0040 56020000 		.word	.L54
 491 0044 56020000 		.word	.L54
 492 0048 56020000 		.word	.L54
 493 004c 56020000 		.word	.L54
 494 0050 56020000 		.word	.L54
 495 0054 56020000 		.word	.L54
 496 0058 56020000 		.word	.L54
 497 005c 56020000 		.word	.L54
 498 0060 56020000 		.word	.L54
 499 0064 56020000 		.word	.L54
 500 0068 56020000 		.word	.L54
ARM GAS  C:\Users\Zachary\AppData\Local\Temp\ccNoimb2.s 			page 30


 501 006c 56020000 		.word	.L54
 502 0070 56020000 		.word	.L54
 503 0074 56020000 		.word	.L54
 504 0078 56020000 		.word	.L54
 505 007c 56020000 		.word	.L54
 506 0080 56020000 		.word	.L54
 507 0084 D8000000 		.word	.L31
 508 0088 56020000 		.word	.L54
 509 008c 56020000 		.word	.L54
 510 0090 56020000 		.word	.L54
 511 0094 56020000 		.word	.L54
 512 0098 28010000 		.word	.L32
 513 009c 10010000 		.word	.L33
 514 00a0 20010000 		.word	.L34
 515 00a4 56020000 		.word	.L54
 516 00a8 06010000 		.word	.L35
 517 00ac 56020000 		.word	.L54
 518 00b0 56020000 		.word	.L54
 519 00b4 56020000 		.word	.L54
 520 00b8 56020000 		.word	.L54
 521 00bc 56020000 		.word	.L54
 522 00c0 56020000 		.word	.L54
 523 00c4 56020000 		.word	.L54
 524 00c8 56020000 		.word	.L54
 525 00cc 56020000 		.word	.L54
 526 00d0 56020000 		.word	.L54
 527 00d4 56020000 		.word	.L54
 528 00d8 56020000 		.word	.L54
 529 00dc 56020000 		.word	.L54
 530 00e0 56020000 		.word	.L54
 531 00e4 56020000 		.word	.L54
 532 00e8 56020000 		.word	.L54
 533 00ec 56020000 		.word	.L54
 534 00f0 56020000 		.word	.L54
 535 00f4 56020000 		.word	.L54
 536 00f8 56020000 		.word	.L54
 537 00fc 56020000 		.word	.L54
 538 0100 56020000 		.word	.L54
 539 0104 C2010000 		.word	.L36
 540 0108 00020000 		.word	.L37
 541 010c 06020000 		.word	.L38
 542 0110 56020000 		.word	.L54
 543 0114 56020000 		.word	.L54
 544 0118 56020000 		.word	.L54
 545 011c 56020000 		.word	.L54
 546 0120 56020000 		.word	.L54
 547 0124 56020000 		.word	.L54
 548 0128 56020000 		.word	.L54
 549 012c 56020000 		.word	.L54
 550 0130 42020000 		.word	.L39
 551 0134 56020000 		.word	.L54
 552 0138 56020000 		.word	.L54
 553 013c 56020000 		.word	.L54
 554 0140 56020000 		.word	.L54
 555 0144 56020000 		.word	.L54
 556 0148 56020000 		.word	.L54
 557 014c 56020000 		.word	.L54
ARM GAS  C:\Users\Zachary\AppData\Local\Temp\ccNoimb2.s 			page 31


 558 0150 4C020000 		.word	.L41
 559 0154 56020000 		.word	.L54
 560 0158 56020000 		.word	.L54
 561 015c 56020000 		.word	.L54
 562 0160 56020000 		.word	.L54
 563 0164 56020000 		.word	.L54
 564 0168 56020000 		.word	.L54
 565 016c 56020000 		.word	.L54
 566 0170 56020000 		.word	.L54
 567 0174 56020000 		.word	.L54
 568 0178 56020000 		.word	.L54
 569 017c 56020000 		.word	.L54
 570 0180 56020000 		.word	.L54
 571 0184 56020000 		.word	.L54
 572 0188 56020000 		.word	.L54
 573 018c 56020000 		.word	.L54
 574 0190 56020000 		.word	.L54
 575 0194 56020000 		.word	.L54
 576 0198 56020000 		.word	.L54
 577 019c 56020000 		.word	.L54
 578 01a0 56020000 		.word	.L54
 579 01a4 56020000 		.word	.L54
 580 01a8 56020000 		.word	.L54
 581 01ac 56020000 		.word	.L54
 582 01b0 56020000 		.word	.L54
 583 01b4 56020000 		.word	.L54
 584 01b8 56020000 		.word	.L54
 585 01bc 56020000 		.word	.L54
 586 01c0 56020000 		.word	.L54
 587 01c4 B6010000 		.word	.L42
 588              		.section	.text.CyBle_EventHandler
 589              	.L27:
 590              	.LBB3:
1152:.\Generated_Source\PSoC4/BLE_eventHandler.c ****     {
1153:.\Generated_Source\PSoC4/BLE_eventHandler.c ****         /**********************************************************
1154:.\Generated_Source\PSoC4/BLE_eventHandler.c ****         ##General events
1155:.\Generated_Source\PSoC4/BLE_eventHandler.c ****         ***********************************************************/
1156:.\Generated_Source\PSoC4/BLE_eventHandler.c ****         case CYBLE_EVT_STACK_ON:
1157:.\Generated_Source\PSoC4/BLE_eventHandler.c ****         #if(CYBLE_MODE_PROFILE)
1158:.\Generated_Source\PSoC4/BLE_eventHandler.c ****         {
1159:.\Generated_Source\PSoC4/BLE_eventHandler.c ****             CYBLE_BLESS_PWR_IN_DB_T bleSsPowerLevel;
1160:.\Generated_Source\PSoC4/BLE_eventHandler.c ****             
1161:.\Generated_Source\PSoC4/BLE_eventHandler.c ****             /* Set Tx Power Level for advertising and connection channels */
1162:.\Generated_Source\PSoC4/BLE_eventHandler.c ****             bleSsPowerLevel.blePwrLevelInDbm = CYBLE_TX_POWER_LEVEL;
 591              		.loc 1 1162 0
 592 0032 3B1C     		mov	r3, r7
 593 0034 0C33     		add	r3, r3, #12
 594 0036 0722     		mov	r2, #7
 595 0038 1A70     		strb	r2, [r3]
1163:.\Generated_Source\PSoC4/BLE_eventHandler.c ****             bleSsPowerLevel.bleSsChId = CYBLE_LL_ADV_CH_TYPE;
 596              		.loc 1 1163 0
 597 003a 3B1C     		mov	r3, r7
 598 003c 0C33     		add	r3, r3, #12
 599 003e 0022     		mov	r2, #0
 600 0040 5A70     		strb	r2, [r3, #1]
1164:.\Generated_Source\PSoC4/BLE_eventHandler.c ****             (void) CyBle_SetTxPowerLevel (&bleSsPowerLevel);
 601              		.loc 1 1164 0
ARM GAS  C:\Users\Zachary\AppData\Local\Temp\ccNoimb2.s 			page 32


 602 0042 3B1C     		mov	r3, r7
 603 0044 0C33     		add	r3, r3, #12
 604 0046 181C     		mov	r0, r3
 605 0048 FFF7FEFF 		bl	CyBle_SetTxPowerLevel
1165:.\Generated_Source\PSoC4/BLE_eventHandler.c ****             bleSsPowerLevel.blePwrLevelInDbm = CYBLE_TX_POWER_LEVEL;
 606              		.loc 1 1165 0
 607 004c 3B1C     		mov	r3, r7
 608 004e 0C33     		add	r3, r3, #12
 609 0050 0722     		mov	r2, #7
 610 0052 1A70     		strb	r2, [r3]
1166:.\Generated_Source\PSoC4/BLE_eventHandler.c ****             bleSsPowerLevel.bleSsChId = CYBLE_LL_CONN_CH_TYPE;
 611              		.loc 1 1166 0
 612 0054 3B1C     		mov	r3, r7
 613 0056 0C33     		add	r3, r3, #12
 614 0058 0122     		mov	r2, #1
 615 005a 5A70     		strb	r2, [r3, #1]
1167:.\Generated_Source\PSoC4/BLE_eventHandler.c ****             (void) CyBle_SetTxPowerLevel (&bleSsPowerLevel);
 616              		.loc 1 1167 0
 617 005c 3B1C     		mov	r3, r7
 618 005e 0C33     		add	r3, r3, #12
 619 0060 181C     		mov	r0, r3
 620 0062 FFF7FEFF 		bl	CyBle_SetTxPowerLevel
 621              	.LBE3:
1168:.\Generated_Source\PSoC4/BLE_eventHandler.c ****         }
1169:.\Generated_Source\PSoC4/BLE_eventHandler.c ****         #endif /* CYBLE_MODE_PROFILE */
1170:.\Generated_Source\PSoC4/BLE_eventHandler.c ****         #if (CYBLE_GATT_ROLE_SERVER || CYBLE_GATT_ROLE_CLIENT)
1171:.\Generated_Source\PSoC4/BLE_eventHandler.c ****             /* Set device Address  */
1172:.\Generated_Source\PSoC4/BLE_eventHandler.c ****             if(CyBle_IsDeviceAddressValid(cyBle_sflashDeviceAddress) != 0u)
 622              		.loc 1 1172 0
 623 0066 8B4B     		ldr	r3, .L55+8
 624 0068 1B68     		ldr	r3, [r3]
 625 006a 181C     		mov	r0, r3
 626 006c FFF7FEFF 		bl	CyBle_IsDeviceAddressValid
 627 0070 031C     		mov	r3, r0
 628 0072 002B     		cmp	r3, #0
 629 0074 11D0     		beq	.L43
1173:.\Generated_Source\PSoC4/BLE_eventHandler.c ****             {
1174:.\Generated_Source\PSoC4/BLE_eventHandler.c ****                 (void) CyBle_SetDeviceAddress(cyBle_sflashDeviceAddress);
 630              		.loc 1 1174 0
 631 0076 874B     		ldr	r3, .L55+8
 632 0078 1B68     		ldr	r3, [r3]
 633 007a 181C     		mov	r0, r3
 634 007c FFF7FEFF 		bl	CyBle_SetDeviceAddress
1175:.\Generated_Source\PSoC4/BLE_eventHandler.c ****                 #if(CYBLE_GAP_ROLE_PERIPHERAL || CYBLE_GAP_ROLE_BROADCASTER)
1176:.\Generated_Source\PSoC4/BLE_eventHandler.c ****                     CyBle_ChangeAdDeviceAddress(cyBle_sflashDeviceAddress, 0u);
 635              		.loc 1 1176 0
 636 0080 844B     		ldr	r3, .L55+8
 637 0082 1B68     		ldr	r3, [r3]
 638 0084 181C     		mov	r0, r3
 639 0086 0021     		mov	r1, #0
 640 0088 FFF7FEFF 		bl	CyBle_ChangeAdDeviceAddress
1177:.\Generated_Source\PSoC4/BLE_eventHandler.c ****                     CyBle_ChangeAdDeviceAddress(cyBle_sflashDeviceAddress, 1u);
 641              		.loc 1 1177 0
 642 008c 814B     		ldr	r3, .L55+8
 643 008e 1B68     		ldr	r3, [r3]
 644 0090 181C     		mov	r0, r3
 645 0092 0121     		mov	r1, #1
ARM GAS  C:\Users\Zachary\AppData\Local\Temp\ccNoimb2.s 			page 33


 646 0094 FFF7FEFF 		bl	CyBle_ChangeAdDeviceAddress
 647 0098 0DE0     		b	.L44
 648              	.L43:
1178:.\Generated_Source\PSoC4/BLE_eventHandler.c ****                 #endif /* CYBLE_GAP_ROLE_PERIPHERAL || CYBLE_GAP_ROLE_BROADCASTER */    
1179:.\Generated_Source\PSoC4/BLE_eventHandler.c ****             }
1180:.\Generated_Source\PSoC4/BLE_eventHandler.c ****             else
1181:.\Generated_Source\PSoC4/BLE_eventHandler.c ****             {
1182:.\Generated_Source\PSoC4/BLE_eventHandler.c ****             #if (SILICON_GENERATED_DEVICE_ADDRESS != 0u)
1183:.\Generated_Source\PSoC4/BLE_eventHandler.c ****                 cyBle_deviceAddress.bdAddr[0] = CYBLE_SFLASH_DIE_X_REG;
1184:.\Generated_Source\PSoC4/BLE_eventHandler.c ****                 cyBle_deviceAddress.bdAddr[1] = CYBLE_SFLASH_DIE_Y_REG;
1185:.\Generated_Source\PSoC4/BLE_eventHandler.c ****                 cyBle_deviceAddress.bdAddr[2] = CYBLE_SFLASH_DIE_WAFER_REG;
1186:.\Generated_Source\PSoC4/BLE_eventHandler.c ****             #endif /* SILICON_GENERATED_DEVICE_ADDRESS != 0u */
1187:.\Generated_Source\PSoC4/BLE_eventHandler.c ****                 (void) CyBle_SetDeviceAddress(&cyBle_deviceAddress);
 649              		.loc 1 1187 0
 650 009a 7F4B     		ldr	r3, .L55+12
 651 009c 181C     		mov	r0, r3
 652 009e FFF7FEFF 		bl	CyBle_SetDeviceAddress
1188:.\Generated_Source\PSoC4/BLE_eventHandler.c ****                 #if(CYBLE_GAP_ROLE_PERIPHERAL || CYBLE_GAP_ROLE_BROADCASTER)
1189:.\Generated_Source\PSoC4/BLE_eventHandler.c ****                     CyBle_ChangeAdDeviceAddress(&cyBle_deviceAddress, 0u);
 653              		.loc 1 1189 0
 654 00a2 7D4B     		ldr	r3, .L55+12
 655 00a4 181C     		mov	r0, r3
 656 00a6 0021     		mov	r1, #0
 657 00a8 FFF7FEFF 		bl	CyBle_ChangeAdDeviceAddress
1190:.\Generated_Source\PSoC4/BLE_eventHandler.c ****                     CyBle_ChangeAdDeviceAddress(&cyBle_deviceAddress, 1u);
 658              		.loc 1 1190 0
 659 00ac 7A4B     		ldr	r3, .L55+12
 660 00ae 181C     		mov	r0, r3
 661 00b0 0121     		mov	r1, #1
 662 00b2 FFF7FEFF 		bl	CyBle_ChangeAdDeviceAddress
 663              	.L44:
1191:.\Generated_Source\PSoC4/BLE_eventHandler.c ****                 #endif /* CYBLE_GAP_ROLE_PERIPHERAL || CYBLE_GAP_ROLE_BROADCASTER */    
1192:.\Generated_Source\PSoC4/BLE_eventHandler.c ****             }
1193:.\Generated_Source\PSoC4/BLE_eventHandler.c ****             /* Set device IO Capability  */
1194:.\Generated_Source\PSoC4/BLE_eventHandler.c ****             (void) CyBle_GapSetIoCap(CYBLE_IO_CAPABILITY);    
 664              		.loc 1 1194 0
 665 00b6 0320     		mov	r0, #3
 666 00b8 FFF7FEFF 		bl	CyBle_GapSetIoCap
1195:.\Generated_Source\PSoC4/BLE_eventHandler.c ****         #endif /* CYBLE_GATT_ROLE_SERVER || CYBLE_GATT_ROLE_CLIENT */
1196:.\Generated_Source\PSoC4/BLE_eventHandler.c ****             CyBle_SetState(CYBLE_STATE_DISCONNECTED);
 667              		.loc 1 1196 0
 668 00bc 774B     		ldr	r3, .L55+16
 669 00be 0422     		mov	r2, #4
 670 00c0 1A70     		strb	r2, [r3]
1197:.\Generated_Source\PSoC4/BLE_eventHandler.c ****             break;
 671              		.loc 1 1197 0
 672 00c2 C9E0     		b	.L45
 673              	.L29:
1198:.\Generated_Source\PSoC4/BLE_eventHandler.c ****         case CYBLE_EVT_TIMEOUT:
1199:.\Generated_Source\PSoC4/BLE_eventHandler.c ****             CyBle_TimeOutEventHandler((CYBLE_TO_REASON_CODE_T *)eventParam);
 674              		.loc 1 1199 0
 675 00c4 3B68     		ldr	r3, [r7]
 676 00c6 181C     		mov	r0, r3
 677 00c8 FFF7FEFF 		bl	CyBle_TimeOutEventHandler
1200:.\Generated_Source\PSoC4/BLE_eventHandler.c ****             break;
 678              		.loc 1 1200 0
 679 00cc C4E0     		b	.L45
ARM GAS  C:\Users\Zachary\AppData\Local\Temp\ccNoimb2.s 			page 34


 680              	.L30:
1201:.\Generated_Source\PSoC4/BLE_eventHandler.c ****     	case CYBLE_EVT_STACK_BUSY_STATUS:
1202:.\Generated_Source\PSoC4/BLE_eventHandler.c ****             cyBle_busyStatus = *(uint8 *)eventParam;
 681              		.loc 1 1202 0
 682 00ce 3B68     		ldr	r3, [r7]
 683 00d0 1A78     		ldrb	r2, [r3]
 684 00d2 734B     		ldr	r3, .L55+20
 685 00d4 1A70     		strb	r2, [r3]
1203:.\Generated_Source\PSoC4/BLE_eventHandler.c ****             break;
 686              		.loc 1 1203 0
 687 00d6 BFE0     		b	.L45
 688              	.L31:
1204:.\Generated_Source\PSoC4/BLE_eventHandler.c **** 
1205:.\Generated_Source\PSoC4/BLE_eventHandler.c ****         /**********************************************************
1206:.\Generated_Source\PSoC4/BLE_eventHandler.c ****         ##GAP events
1207:.\Generated_Source\PSoC4/BLE_eventHandler.c ****         ***********************************************************/
1208:.\Generated_Source\PSoC4/BLE_eventHandler.c ****         case CYBLE_EVT_GAP_AUTH_REQ:
1209:.\Generated_Source\PSoC4/BLE_eventHandler.c ****         #if(CYBLE_MODE_PROFILE)
1210:.\Generated_Source\PSoC4/BLE_eventHandler.c ****             if(0u == (cyBle_eventHandlerFlag & CYBLE_DISABLE_AUTOMATIC_AUTH))
 689              		.loc 1 1210 0
 690 00d8 6C4B     		ldr	r3, .L55
 691 00da 1B78     		ldrb	r3, [r3]
 692 00dc DBB2     		uxtb	r3, r3
 693 00de 1A1C     		mov	r2, r3
 694 00e0 2023     		mov	r3, #32
 695 00e2 1340     		and	r3, r2
 696 00e4 0ED1     		bne	.L46
1211:.\Generated_Source\PSoC4/BLE_eventHandler.c ****             {
1212:.\Generated_Source\PSoC4/BLE_eventHandler.c ****                 /* If the responding device does not support pairing then the responding 
1213:.\Generated_Source\PSoC4/BLE_eventHandler.c ****                    device shall respond using the Pairing Failed message with the error 
1214:.\Generated_Source\PSoC4/BLE_eventHandler.c ****                    code "Pairing Not Supported" otherwise it responds with a Pairing 
1215:.\Generated_Source\PSoC4/BLE_eventHandler.c ****                    Response message.
1216:.\Generated_Source\PSoC4/BLE_eventHandler.c ****                 */
1217:.\Generated_Source\PSoC4/BLE_eventHandler.c ****                 if(cyBle_authInfo.security == (CYBLE_GAP_SEC_MODE_1 | CYBLE_GAP_SEC_LEVEL_1))
 697              		.loc 1 1217 0
 698 00e6 6F4B     		ldr	r3, .L55+24
 699 00e8 1B78     		ldrb	r3, [r3]
 700 00ea 102B     		cmp	r3, #16
 701 00ec 02D1     		bne	.L47
1218:.\Generated_Source\PSoC4/BLE_eventHandler.c ****                 {
1219:.\Generated_Source\PSoC4/BLE_eventHandler.c ****                     cyBle_authInfo.authErr = CYBLE_GAP_AUTH_ERROR_PAIRING_NOT_SUPPORTED;
 702              		.loc 1 1219 0
 703 00ee 6D4B     		ldr	r3, .L55+24
 704 00f0 0522     		mov	r2, #5
 705 00f2 DA70     		strb	r2, [r3, #3]
 706              	.L47:
1220:.\Generated_Source\PSoC4/BLE_eventHandler.c ****                 }    
1221:.\Generated_Source\PSoC4/BLE_eventHandler.c ****             #if(CYBLE_GAP_ROLE_PERIPHERAL)
1222:.\Generated_Source\PSoC4/BLE_eventHandler.c ****                 (void)CyBle_GappAuthReqReply(cyBle_connHandle.bdHandle, &cyBle_authInfo);
 707              		.loc 1 1222 0
 708 00f4 6C4B     		ldr	r3, .L55+28
 709 00f6 1A78     		ldrb	r2, [r3]
 710 00f8 6A4B     		ldr	r3, .L55+24
 711 00fa 101C     		mov	r0, r2
 712 00fc 191C     		mov	r1, r3
 713 00fe FFF7FEFF 		bl	CyBle_GappAuthReqReply
1223:.\Generated_Source\PSoC4/BLE_eventHandler.c ****             #endif /* CYBLE_GAP_ROLE_PERIPHERAL */
ARM GAS  C:\Users\Zachary\AppData\Local\Temp\ccNoimb2.s 			page 35


1224:.\Generated_Source\PSoC4/BLE_eventHandler.c ****             #if (CYBLE_GAP_ROLE_CENTRAL)
1225:.\Generated_Source\PSoC4/BLE_eventHandler.c ****                 (void)CyBle_GapAuthReq(cyBle_connHandle.bdHandle, &cyBle_authInfo);
1226:.\Generated_Source\PSoC4/BLE_eventHandler.c ****             #endif /* CYBLE_GAP_ROLE_CENTRAL */
1227:.\Generated_Source\PSoC4/BLE_eventHandler.c ****             }
1228:.\Generated_Source\PSoC4/BLE_eventHandler.c ****         #endif /* CYBLE_MODE_PROFILE */
1229:.\Generated_Source\PSoC4/BLE_eventHandler.c ****             break;
 714              		.loc 1 1229 0
 715 0102 A9E0     		b	.L45
 716              	.L46:
 717 0104 A8E0     		b	.L45
 718              	.L35:
1230:.\Generated_Source\PSoC4/BLE_eventHandler.c **** 
1231:.\Generated_Source\PSoC4/BLE_eventHandler.c ****         case CYBLE_EVT_GAP_CONNECTION_UPDATE_COMPLETE:
1232:.\Generated_Source\PSoC4/BLE_eventHandler.c ****             CyBle_GapConnUpdateCompleteEventHandler((const CYBLE_GAP_CONN_PARAM_UPDATED_IN_CONTROLL
 719              		.loc 1 1232 0
 720 0106 3B68     		ldr	r3, [r7]
 721 0108 181C     		mov	r0, r3
 722 010a FFF7FEFF 		bl	CyBle_GapConnUpdateCompleteEventHandler
1233:.\Generated_Source\PSoC4/BLE_eventHandler.c ****             break;
 723              		.loc 1 1233 0
 724 010e A3E0     		b	.L45
 725              	.L33:
1234:.\Generated_Source\PSoC4/BLE_eventHandler.c ****             
1235:.\Generated_Source\PSoC4/BLE_eventHandler.c ****         case CYBLE_EVT_GAP_DEVICE_CONNECTED:
1236:.\Generated_Source\PSoC4/BLE_eventHandler.c ****             CyBle_GapConnUpdateCompleteEventHandler((const CYBLE_GAP_CONN_PARAM_UPDATED_IN_CONTROLL
 726              		.loc 1 1236 0
 727 0110 3B68     		ldr	r3, [r7]
 728 0112 181C     		mov	r0, r3
 729 0114 FFF7FEFF 		bl	CyBle_GapConnUpdateCompleteEventHandler
1237:.\Generated_Source\PSoC4/BLE_eventHandler.c ****             #if(CYBLE_GAP_ROLE_CENTRAL)
1238:.\Generated_Source\PSoC4/BLE_eventHandler.c ****                 if(cyBle_connectingTimeout != 0u)
1239:.\Generated_Source\PSoC4/BLE_eventHandler.c ****                 {
1240:.\Generated_Source\PSoC4/BLE_eventHandler.c ****                    (void)CyBle_StopTimer();
1241:.\Generated_Source\PSoC4/BLE_eventHandler.c ****                 }
1242:.\Generated_Source\PSoC4/BLE_eventHandler.c ****             #endif /* CYBLE_GAP_ROLE_CENTRAL */
1243:.\Generated_Source\PSoC4/BLE_eventHandler.c ****             CyBle_SetState(CYBLE_STATE_CONNECTED);
 730              		.loc 1 1243 0
 731 0118 604B     		ldr	r3, .L55+16
 732 011a 0222     		mov	r2, #2
 733 011c 1A70     		strb	r2, [r3]
1244:.\Generated_Source\PSoC4/BLE_eventHandler.c ****             break;
 734              		.loc 1 1244 0
 735 011e 9BE0     		b	.L45
 736              	.L34:
1245:.\Generated_Source\PSoC4/BLE_eventHandler.c **** 
1246:.\Generated_Source\PSoC4/BLE_eventHandler.c ****         case CYBLE_EVT_GAP_DEVICE_DISCONNECTED:
1247:.\Generated_Source\PSoC4/BLE_eventHandler.c ****             CyBle_SetState(CYBLE_STATE_DISCONNECTED);
 737              		.loc 1 1247 0
 738 0120 5E4B     		ldr	r3, .L55+16
 739 0122 0422     		mov	r2, #4
 740 0124 1A70     		strb	r2, [r3]
1248:.\Generated_Source\PSoC4/BLE_eventHandler.c ****             break;
 741              		.loc 1 1248 0
 742 0126 97E0     		b	.L45
 743              	.L32:
1249:.\Generated_Source\PSoC4/BLE_eventHandler.c ****         #if(CYBLE_GAP_ROLE_PERIPHERAL || CYBLE_GAP_ROLE_BROADCASTER)
1250:.\Generated_Source\PSoC4/BLE_eventHandler.c ****             
ARM GAS  C:\Users\Zachary\AppData\Local\Temp\ccNoimb2.s 			page 36


1251:.\Generated_Source\PSoC4/BLE_eventHandler.c ****         case CYBLE_EVT_GAPP_ADVERTISEMENT_START_STOP:
1252:.\Generated_Source\PSoC4/BLE_eventHandler.c ****             #ifdef CYBLE_CPS_SERVER
1253:.\Generated_Source\PSoC4/BLE_eventHandler.c ****                 #if(CYBLE_GAP_ROLE_BROADCASTER)
1254:.\Generated_Source\PSoC4/BLE_eventHandler.c ****                     CyBle_CpssAdvertisementStartStopEventHandler();
1255:.\Generated_Source\PSoC4/BLE_eventHandler.c ****                 #endif /* CYBLE_GAP_ROLE_BROADCASTER */
1256:.\Generated_Source\PSoC4/BLE_eventHandler.c ****             #endif /* CYBLE_CPS_SERVER */
1257:.\Generated_Source\PSoC4/BLE_eventHandler.c ****             
1258:.\Generated_Source\PSoC4/BLE_eventHandler.c ****             if((CYBLE_STATE_CONNECTED != CyBle_GetState()) && ((cyBle_eventHandlerFlag & CYBLE_CALL
 744              		.loc 1 1258 0
 745 0128 5C4B     		ldr	r3, .L55+16
 746 012a 1B78     		ldrb	r3, [r3]
 747 012c 022B     		cmp	r3, #2
 748 012e 41D0     		beq	.L48
 749              		.loc 1 1258 0 is_stmt 0 discriminator 1
 750 0130 564B     		ldr	r3, .L55
 751 0132 1B78     		ldrb	r3, [r3]
 752 0134 DBB2     		uxtb	r3, r3
 753 0136 1A1C     		mov	r2, r3
 754 0138 0123     		mov	r3, #1
 755 013a 1340     		and	r3, r2
 756 013c 3AD0     		beq	.L48
1259:.\Generated_Source\PSoC4/BLE_eventHandler.c ****             {
1260:.\Generated_Source\PSoC4/BLE_eventHandler.c ****                 /* After CyBle_GappStartAdvertisement first event indicates that advertising has be
1261:.\Generated_Source\PSoC4/BLE_eventHandler.c ****                 if(0u != (cyBle_eventHandlerFlag & CYBLE_START_FLAG))
 757              		.loc 1 1261 0 is_stmt 1
 758 013e 534B     		ldr	r3, .L55
 759 0140 1B78     		ldrb	r3, [r3]
 760 0142 DBB2     		uxtb	r3, r3
 761 0144 1A1C     		mov	r2, r3
 762 0146 0423     		mov	r3, #4
 763 0148 1340     		and	r3, r2
 764 014a 0BD0     		beq	.L49
1262:.\Generated_Source\PSoC4/BLE_eventHandler.c ****                 {
1263:.\Generated_Source\PSoC4/BLE_eventHandler.c ****                     CyBle_SetState(CYBLE_STATE_ADVERTISING);
 765              		.loc 1 1263 0
 766 014c 534B     		ldr	r3, .L55+16
 767 014e 0322     		mov	r2, #3
 768 0150 1A70     		strb	r2, [r3]
1264:.\Generated_Source\PSoC4/BLE_eventHandler.c ****                     cyBle_eventHandlerFlag &= (uint8)~CYBLE_START_FLAG;
 769              		.loc 1 1264 0
 770 0152 4E4B     		ldr	r3, .L55
 771 0154 1B78     		ldrb	r3, [r3]
 772 0156 DBB2     		uxtb	r3, r3
 773 0158 0422     		mov	r2, #4
 774 015a 9343     		bic	r3, r2
 775 015c DAB2     		uxtb	r2, r3
 776 015e 4B4B     		ldr	r3, .L55
 777 0160 1A70     		strb	r2, [r3]
 778 0162 27E0     		b	.L48
 779              	.L49:
1265:.\Generated_Source\PSoC4/BLE_eventHandler.c ****                 }
1266:.\Generated_Source\PSoC4/BLE_eventHandler.c ****                 /* When application initiated stop advertisement */
1267:.\Generated_Source\PSoC4/BLE_eventHandler.c ****                 else if(0u != (cyBle_eventHandlerFlag & CYBLE_STOP_FLAG))
 780              		.loc 1 1267 0
 781 0164 494B     		ldr	r3, .L55
 782 0166 1B78     		ldrb	r3, [r3]
 783 0168 DBB2     		uxtb	r3, r3
ARM GAS  C:\Users\Zachary\AppData\Local\Temp\ccNoimb2.s 			page 37


 784 016a 1A1C     		mov	r2, r3
 785 016c 0823     		mov	r3, #8
 786 016e 1340     		and	r3, r2
 787 0170 0BD0     		beq	.L50
1268:.\Generated_Source\PSoC4/BLE_eventHandler.c ****                 {
1269:.\Generated_Source\PSoC4/BLE_eventHandler.c ****                     CyBle_SetState(CYBLE_STATE_DISCONNECTED);  
 788              		.loc 1 1269 0
 789 0172 4A4B     		ldr	r3, .L55+16
 790 0174 0422     		mov	r2, #4
 791 0176 1A70     		strb	r2, [r3]
1270:.\Generated_Source\PSoC4/BLE_eventHandler.c ****                     cyBle_eventHandlerFlag &= (uint8)~CYBLE_STOP_FLAG;
 792              		.loc 1 1270 0
 793 0178 444B     		ldr	r3, .L55
 794 017a 1B78     		ldrb	r3, [r3]
 795 017c DBB2     		uxtb	r3, r3
 796 017e 0822     		mov	r2, #8
 797 0180 9343     		bic	r3, r2
 798 0182 DAB2     		uxtb	r2, r3
 799 0184 414B     		ldr	r3, .L55
 800 0186 1A70     		strb	r2, [r3]
 801 0188 14E0     		b	.L48
 802              	.L50:
1271:.\Generated_Source\PSoC4/BLE_eventHandler.c ****                 }
1272:.\Generated_Source\PSoC4/BLE_eventHandler.c ****                 else /* Following event indicates that advertising has been stopped */
1273:.\Generated_Source\PSoC4/BLE_eventHandler.c ****                 {
1274:.\Generated_Source\PSoC4/BLE_eventHandler.c ****                     if(CYBLE_STATE_ADVERTISING == CyBle_GetState())
 803              		.loc 1 1274 0
 804 018a 444B     		ldr	r3, .L55+16
 805 018c 1B78     		ldrb	r3, [r3]
 806 018e 032B     		cmp	r3, #3
 807 0190 10D1     		bne	.L48
1275:.\Generated_Source\PSoC4/BLE_eventHandler.c ****                     {
1276:.\Generated_Source\PSoC4/BLE_eventHandler.c ****                         CyBle_SetState(CYBLE_STATE_DISCONNECTED);
 808              		.loc 1 1276 0
 809 0192 424B     		ldr	r3, .L55+16
 810 0194 0422     		mov	r2, #4
 811 0196 1A70     		strb	r2, [r3]
1277:.\Generated_Source\PSoC4/BLE_eventHandler.c ****                     #if (CYBLE_SLOW_ADV_ENABLED != 0u)
1278:.\Generated_Source\PSoC4/BLE_eventHandler.c ****                         if(cyBle_advertisingIntervalType == CYBLE_ADVERTISING_FAST)
 812              		.loc 1 1278 0
 813 0198 444B     		ldr	r3, .L55+32
 814 019a 1B78     		ldrb	r3, [r3]
 815 019c 002B     		cmp	r3, #0
 816 019e 09D1     		bne	.L48
1279:.\Generated_Source\PSoC4/BLE_eventHandler.c ****                         {
1280:.\Generated_Source\PSoC4/BLE_eventHandler.c ****                             /* When fast advertising time out occur: Start slow advertising */
1281:.\Generated_Source\PSoC4/BLE_eventHandler.c ****                             if(CYBLE_ERROR_OK == CyBle_GappStartAdvertisement(CYBLE_ADVERTISING_SLO
 817              		.loc 1 1281 0
 818 01a0 0120     		mov	r0, #1
 819 01a2 FFF7FEFF 		bl	CyBle_GappStartAdvertisement
 820 01a6 031C     		mov	r3, r0
 821 01a8 002B     		cmp	r3, #0
 822 01aa 03D1     		bne	.L48
1282:.\Generated_Source\PSoC4/BLE_eventHandler.c ****                             {
1283:.\Generated_Source\PSoC4/BLE_eventHandler.c ****                                 CyBle_SetState(CYBLE_STATE_ADVERTISING);
 823              		.loc 1 1283 0
 824 01ac 3B4B     		ldr	r3, .L55+16
ARM GAS  C:\Users\Zachary\AppData\Local\Temp\ccNoimb2.s 			page 38


 825 01ae 0322     		mov	r2, #3
 826 01b0 1A70     		strb	r2, [r3]
1284:.\Generated_Source\PSoC4/BLE_eventHandler.c ****                             }
1285:.\Generated_Source\PSoC4/BLE_eventHandler.c ****                         }
1286:.\Generated_Source\PSoC4/BLE_eventHandler.c ****                     #endif /* CYBLE_SLOW_ADV_ENABLED */
1287:.\Generated_Source\PSoC4/BLE_eventHandler.c ****                     }
1288:.\Generated_Source\PSoC4/BLE_eventHandler.c ****                 }
1289:.\Generated_Source\PSoC4/BLE_eventHandler.c ****             }
1290:.\Generated_Source\PSoC4/BLE_eventHandler.c ****             break;
 827              		.loc 1 1290 0
 828 01b2 51E0     		b	.L45
 829              	.L48:
 830 01b4 50E0     		b	.L45
 831              	.L42:
1291:.\Generated_Source\PSoC4/BLE_eventHandler.c ****         #endif /* CYBLE_GAP_ROLE_PERIPHERAL || CYBLE_GAP_ROLE_BROADCASTER */
1292:.\Generated_Source\PSoC4/BLE_eventHandler.c ****         
1293:.\Generated_Source\PSoC4/BLE_eventHandler.c ****         #if(CYBLE_GAP_ROLE_CENTRAL || CYBLE_GAP_ROLE_OBSERVER)    
1294:.\Generated_Source\PSoC4/BLE_eventHandler.c ****         case CYBLE_EVT_GAPC_SCAN_START_STOP:
1295:.\Generated_Source\PSoC4/BLE_eventHandler.c ****             #ifdef CYBLE_CPS_CLIENT
1296:.\Generated_Source\PSoC4/BLE_eventHandler.c ****                 CyBle_CpscScanStartStopEventHandler();
1297:.\Generated_Source\PSoC4/BLE_eventHandler.c ****             #endif /* CYBLE_CPS_CLIENT */
1298:.\Generated_Source\PSoC4/BLE_eventHandler.c ****             
1299:.\Generated_Source\PSoC4/BLE_eventHandler.c ****             if((CYBLE_STATE_CONNECTED != CyBle_GetState()) && ((cyBle_eventHandlerFlag & CYBLE_CALL
1300:.\Generated_Source\PSoC4/BLE_eventHandler.c ****             {
1301:.\Generated_Source\PSoC4/BLE_eventHandler.c ****                 /* After CyBle_GapcStartScan first event indicates that scanning has been started *
1302:.\Generated_Source\PSoC4/BLE_eventHandler.c ****                 if(0u != (cyBle_eventHandlerFlag & CYBLE_START_FLAG))
1303:.\Generated_Source\PSoC4/BLE_eventHandler.c ****                 {
1304:.\Generated_Source\PSoC4/BLE_eventHandler.c ****                     CyBle_SetState(CYBLE_STATE_SCANNING);
1305:.\Generated_Source\PSoC4/BLE_eventHandler.c ****                     cyBle_eventHandlerFlag &= (uint8)~CYBLE_START_FLAG;
1306:.\Generated_Source\PSoC4/BLE_eventHandler.c ****                 }
1307:.\Generated_Source\PSoC4/BLE_eventHandler.c ****                 /* When application initiated stop scanning */
1308:.\Generated_Source\PSoC4/BLE_eventHandler.c ****                 else if(0u != (cyBle_eventHandlerFlag & CYBLE_STOP_FLAG))
1309:.\Generated_Source\PSoC4/BLE_eventHandler.c ****                 {
1310:.\Generated_Source\PSoC4/BLE_eventHandler.c ****                     CyBle_SetState(CYBLE_STATE_DISCONNECTED);  
1311:.\Generated_Source\PSoC4/BLE_eventHandler.c ****                     cyBle_eventHandlerFlag &= (uint8)~CYBLE_STOP_FLAG;
1312:.\Generated_Source\PSoC4/BLE_eventHandler.c ****                 }
1313:.\Generated_Source\PSoC4/BLE_eventHandler.c ****                 else /* Following event indicates that scanning has been stopped by stack */
1314:.\Generated_Source\PSoC4/BLE_eventHandler.c ****                 {
1315:.\Generated_Source\PSoC4/BLE_eventHandler.c ****                     if(CYBLE_STATE_SCANNING == CyBle_GetState())
1316:.\Generated_Source\PSoC4/BLE_eventHandler.c ****                     {
1317:.\Generated_Source\PSoC4/BLE_eventHandler.c ****                         CyBle_SetState(CYBLE_STATE_DISCONNECTED);  
1318:.\Generated_Source\PSoC4/BLE_eventHandler.c ****                     #if (CYBLE_SLOW_SCAN_ENABLED != 0u)
1319:.\Generated_Source\PSoC4/BLE_eventHandler.c ****                         if(cyBle_scanningIntervalType == CYBLE_SCANNING_FAST)
1320:.\Generated_Source\PSoC4/BLE_eventHandler.c ****                         {
1321:.\Generated_Source\PSoC4/BLE_eventHandler.c ****                             /* When fast scanning time out occur: Start slow scanning */
1322:.\Generated_Source\PSoC4/BLE_eventHandler.c ****                             if(CYBLE_ERROR_OK == CyBle_GapcStartScan(CYBLE_SCANNING_SLOW))
1323:.\Generated_Source\PSoC4/BLE_eventHandler.c ****                             {
1324:.\Generated_Source\PSoC4/BLE_eventHandler.c ****                                 CyBle_SetState(CYBLE_STATE_SCANNING);
1325:.\Generated_Source\PSoC4/BLE_eventHandler.c ****                             }
1326:.\Generated_Source\PSoC4/BLE_eventHandler.c ****                         }
1327:.\Generated_Source\PSoC4/BLE_eventHandler.c ****                     #endif /* CYBLE_SLOW_ADV_ENABLED */
1328:.\Generated_Source\PSoC4/BLE_eventHandler.c ****                     }
1329:.\Generated_Source\PSoC4/BLE_eventHandler.c ****                 }
1330:.\Generated_Source\PSoC4/BLE_eventHandler.c ****             }
1331:.\Generated_Source\PSoC4/BLE_eventHandler.c ****             break;
1332:.\Generated_Source\PSoC4/BLE_eventHandler.c ****         #endif /* CYBLE_GAP_ROLE_CENTRAL || CYBLE_GAP_ROLE_OBSERVER */
1333:.\Generated_Source\PSoC4/BLE_eventHandler.c **** 
ARM GAS  C:\Users\Zachary\AppData\Local\Temp\ccNoimb2.s 			page 39


1334:.\Generated_Source\PSoC4/BLE_eventHandler.c ****         /**********************************************************
1335:.\Generated_Source\PSoC4/BLE_eventHandler.c ****         ##L2AP events 
1336:.\Generated_Source\PSoC4/BLE_eventHandler.c ****         ***********************************************************/
1337:.\Generated_Source\PSoC4/BLE_eventHandler.c ****         case CYBLE_EVT_L2CAP_CONN_PARAM_UPDATE_RSP:
1338:.\Generated_Source\PSoC4/BLE_eventHandler.c ****             CyBle_L2Cap_ConnParamUpdateRspEventHandler(*(uint16 *)eventParam);
 832              		.loc 1 1338 0
 833 01b6 3B68     		ldr	r3, [r7]
 834 01b8 1B88     		ldrh	r3, [r3]
 835 01ba 181C     		mov	r0, r3
 836 01bc FFF7FEFF 		bl	CyBle_L2Cap_ConnParamUpdateRspEventHandler
1339:.\Generated_Source\PSoC4/BLE_eventHandler.c ****             break;
 837              		.loc 1 1339 0
 838 01c0 4AE0     		b	.L45
 839              	.L36:
1340:.\Generated_Source\PSoC4/BLE_eventHandler.c ****         
1341:.\Generated_Source\PSoC4/BLE_eventHandler.c ****         /**********************************************************
1342:.\Generated_Source\PSoC4/BLE_eventHandler.c ****         ##GATT events
1343:.\Generated_Source\PSoC4/BLE_eventHandler.c ****         ***********************************************************/        
1344:.\Generated_Source\PSoC4/BLE_eventHandler.c ****         case CYBLE_EVT_GATT_CONNECT_IND:
1345:.\Generated_Source\PSoC4/BLE_eventHandler.c ****             cyBle_connHandle = *(CYBLE_CONN_HANDLE_T *)eventParam;
 840              		.loc 1 1345 0
 841 01c2 394A     		ldr	r2, .L55+28
 842 01c4 3B68     		ldr	r3, [r7]
 843 01c6 111C     		mov	r1, r2
 844 01c8 1A1C     		mov	r2, r3
 845 01ca 0223     		mov	r3, #2
 846 01cc 081C     		mov	r0, r1
 847 01ce 111C     		mov	r1, r2
 848 01d0 1A1C     		mov	r2, r3
 849 01d2 FFF7FEFF 		bl	memcpy
1346:.\Generated_Source\PSoC4/BLE_eventHandler.c ****             
1347:.\Generated_Source\PSoC4/BLE_eventHandler.c ****         #if((CYBLE_GATT_ROLE_SERVER) && (CYBLE_GATT_DB_CCCD_COUNT != 0u))
1348:.\Generated_Source\PSoC4/BLE_eventHandler.c ****             /* Init CCCD values in RAM */
1349:.\Generated_Source\PSoC4/BLE_eventHandler.c ****         	(void) memcpy (cyBle_attValuesCCCD, cyBle_attValuesCCCDFlashMemory[cyBle_connHandle.bdHand
 850              		.loc 1 1349 0
 851 01d6 344B     		ldr	r3, .L55+28
 852 01d8 1B78     		ldrb	r3, [r3]
 853 01da 1A1C     		mov	r2, r3
 854 01dc 131C     		mov	r3, r2
 855 01de 5B00     		lsl	r3, r3, #1
 856 01e0 9B18     		add	r3, r3, r2
 857 01e2 5B00     		lsl	r3, r3, #1
 858 01e4 324A     		ldr	r2, .L55+36
 859 01e6 9B18     		add	r3, r3, r2
 860 01e8 324A     		ldr	r2, .L55+40
 861 01ea 111C     		mov	r1, r2
 862 01ec 1A1C     		mov	r2, r3
 863 01ee 0623     		mov	r3, #6
 864 01f0 081C     		mov	r0, r1
 865 01f2 111C     		mov	r1, r2
 866 01f4 1A1C     		mov	r2, r3
 867 01f6 FFF7FEFF 		bl	memcpy
1350:.\Generated_Source\PSoC4/BLE_eventHandler.c ****                             CYBLE_GATT_DB_CCCD_COUNT);
1351:.\Generated_Source\PSoC4/BLE_eventHandler.c ****         #endif /* CYBLE_GATT_ROLE_SERVER */
1352:.\Generated_Source\PSoC4/BLE_eventHandler.c ****         
1353:.\Generated_Source\PSoC4/BLE_eventHandler.c ****         #if (CYBLE_GATT_ROLE_CLIENT)
1354:.\Generated_Source\PSoC4/BLE_eventHandler.c ****             CyBle_SetClientState(CYBLE_CLIENT_STATE_CONNECTED);
ARM GAS  C:\Users\Zachary\AppData\Local\Temp\ccNoimb2.s 			page 40


1355:.\Generated_Source\PSoC4/BLE_eventHandler.c ****         #endif /* CYBLE_GATT_ROLE_CLIENT */
1356:.\Generated_Source\PSoC4/BLE_eventHandler.c ****         
1357:.\Generated_Source\PSoC4/BLE_eventHandler.c ****             CyBle_GattConnectReqHandler();
 868              		.loc 1 1357 0
 869 01fa FFF7FEFF 		bl	CyBle_GattConnectReqHandler
1358:.\Generated_Source\PSoC4/BLE_eventHandler.c ****             break;
 870              		.loc 1 1358 0
 871 01fe 2BE0     		b	.L45
 872              	.L37:
1359:.\Generated_Source\PSoC4/BLE_eventHandler.c **** 
1360:.\Generated_Source\PSoC4/BLE_eventHandler.c ****         case CYBLE_EVT_GATT_DISCONNECT_IND:
1361:.\Generated_Source\PSoC4/BLE_eventHandler.c ****             CyBle_GattDisconnectEventHandler();
 873              		.loc 1 1361 0
 874 0200 FFF7FEFF 		bl	CyBle_GattDisconnectEventHandler
1362:.\Generated_Source\PSoC4/BLE_eventHandler.c ****             break;
 875              		.loc 1 1362 0
 876 0204 28E0     		b	.L45
 877              	.L38:
 878              	.LBB4:
1363:.\Generated_Source\PSoC4/BLE_eventHandler.c **** 
1364:.\Generated_Source\PSoC4/BLE_eventHandler.c ****     #if((CYBLE_GATT_ROLE_SERVER) || (CYBLE_GATT_ROLE_CLIENT))
1365:.\Generated_Source\PSoC4/BLE_eventHandler.c ****         case CYBLE_EVT_GATTS_XCNHG_MTU_REQ:
1366:.\Generated_Source\PSoC4/BLE_eventHandler.c ****             {
1367:.\Generated_Source\PSoC4/BLE_eventHandler.c ****                 uint16 cyBle_mtuSize;
1368:.\Generated_Source\PSoC4/BLE_eventHandler.c ****                 if(CYBLE_GATT_MTU > ((CYBLE_GATT_XCHG_MTU_PARAM_T *)eventParam)->mtu)
 879              		.loc 1 1368 0
 880 0206 3B68     		ldr	r3, [r7]
 881 0208 5B88     		ldrh	r3, [r3, #2]
 882 020a 162B     		cmp	r3, #22
 883 020c 05D8     		bhi	.L51
1369:.\Generated_Source\PSoC4/BLE_eventHandler.c ****                 {
1370:.\Generated_Source\PSoC4/BLE_eventHandler.c ****                     cyBle_mtuSize = ((CYBLE_GATT_XCHG_MTU_PARAM_T *)eventParam)->mtu;
 884              		.loc 1 1370 0
 885 020e 3B1C     		mov	r3, r7
 886 0210 0E33     		add	r3, r3, #14
 887 0212 3A68     		ldr	r2, [r7]
 888 0214 5288     		ldrh	r2, [r2, #2]
 889 0216 1A80     		strh	r2, [r3]
 890 0218 03E0     		b	.L52
 891              	.L51:
1371:.\Generated_Source\PSoC4/BLE_eventHandler.c ****                 }
1372:.\Generated_Source\PSoC4/BLE_eventHandler.c ****                 else
1373:.\Generated_Source\PSoC4/BLE_eventHandler.c ****                 {
1374:.\Generated_Source\PSoC4/BLE_eventHandler.c ****                     cyBle_mtuSize = CYBLE_GATT_MTU;
 892              		.loc 1 1374 0
 893 021a 3B1C     		mov	r3, r7
 894 021c 0E33     		add	r3, r3, #14
 895 021e 1722     		mov	r2, #23
 896 0220 1A80     		strh	r2, [r3]
 897              	.L52:
1375:.\Generated_Source\PSoC4/BLE_eventHandler.c ****                 }
1376:.\Generated_Source\PSoC4/BLE_eventHandler.c ****                 (void)CyBle_GattsExchangeMtuRsp(((CYBLE_GATT_XCHG_MTU_PARAM_T *)eventParam)->connHa
 898              		.loc 1 1376 0
 899 0222 3B68     		ldr	r3, [r7]
 900 0224 3A1C     		mov	r2, r7
 901 0226 0E32     		add	r2, r2, #14
 902 0228 1288     		ldrh	r2, [r2]
ARM GAS  C:\Users\Zachary\AppData\Local\Temp\ccNoimb2.s 			page 41


 903 022a 1988     		ldrh	r1, [r3]
 904 022c 0023     		mov	r3, #0
 905 022e 0904     		lsl	r1, r1, #16
 906 0230 090C     		lsr	r1, r1, #16
 907 0232 1B0C     		lsr	r3, r3, #16
 908 0234 1B04     		lsl	r3, r3, #16
 909 0236 0B43     		orr	r3, r1
 910 0238 181C     		mov	r0, r3
 911 023a 111C     		mov	r1, r2
 912 023c FFF7FEFF 		bl	CyBle_GattsExchangeMtuRsp
 913              	.LBE4:
1377:.\Generated_Source\PSoC4/BLE_eventHandler.c ****             }
1378:.\Generated_Source\PSoC4/BLE_eventHandler.c ****             break;
 914              		.loc 1 1378 0
 915 0240 0AE0     		b	.L45
 916              	.L39:
1379:.\Generated_Source\PSoC4/BLE_eventHandler.c ****     #endif /* CYBLE_GATT_ROLE_SERVER || CYBLE_GATT_ROLE_CLIENT */
1380:.\Generated_Source\PSoC4/BLE_eventHandler.c ****     
1381:.\Generated_Source\PSoC4/BLE_eventHandler.c ****     #if (CYBLE_GATT_ROLE_CLIENT)
1382:.\Generated_Source\PSoC4/BLE_eventHandler.c ****         case CYBLE_EVT_GAPC_SCAN_PROGRESS_RESULT:
1383:.\Generated_Source\PSoC4/BLE_eventHandler.c ****         #ifdef CYBLE_CPS_CLIENT
1384:.\Generated_Source\PSoC4/BLE_eventHandler.c ****                 CyBle_CpscScanProcessEventHandler((CYBLE_GAPC_ADV_REPORT_T *)eventParam);
1385:.\Generated_Source\PSoC4/BLE_eventHandler.c ****         #endif /* CYBLE_CPS_CLIENT */
1386:.\Generated_Source\PSoC4/BLE_eventHandler.c ****             break;
1387:.\Generated_Source\PSoC4/BLE_eventHandler.c ****     #endif /* CYBLE_GATT_ROLE_CLIENT */
1388:.\Generated_Source\PSoC4/BLE_eventHandler.c **** 
1389:.\Generated_Source\PSoC4/BLE_eventHandler.c ****     #if(CYBLE_GATT_ROLE_SERVER)
1390:.\Generated_Source\PSoC4/BLE_eventHandler.c ****         case CYBLE_EVT_GATTS_WRITE_REQ:
1391:.\Generated_Source\PSoC4/BLE_eventHandler.c ****             CyBle_WriteReqHandler((CYBLE_GATTS_WRITE_REQ_PARAM_T *)eventParam);
 917              		.loc 1 1391 0
 918 0242 3B68     		ldr	r3, [r7]
 919 0244 181C     		mov	r0, r3
 920 0246 FFF7FEFF 		bl	CyBle_WriteReqHandler
1392:.\Generated_Source\PSoC4/BLE_eventHandler.c ****             break;
 921              		.loc 1 1392 0
 922 024a 05E0     		b	.L45
 923              	.L41:
1393:.\Generated_Source\PSoC4/BLE_eventHandler.c **** 
1394:.\Generated_Source\PSoC4/BLE_eventHandler.c ****         case CYBLE_EVT_GATTS_WRITE_CMD_REQ:
1395:.\Generated_Source\PSoC4/BLE_eventHandler.c ****         #ifdef CYBLE_IAS_SERVER
1396:.\Generated_Source\PSoC4/BLE_eventHandler.c ****             if((cyBle_eventHandlerFlag & CYBLE_CALLBACK) != 0u)
1397:.\Generated_Source\PSoC4/BLE_eventHandler.c ****             {
1398:.\Generated_Source\PSoC4/BLE_eventHandler.c ****                 (void)CyBle_IassWriteCmdEventHandler((CYBLE_GATTS_WRITE_REQ_PARAM_T *)eventParam);
1399:.\Generated_Source\PSoC4/BLE_eventHandler.c ****             }
1400:.\Generated_Source\PSoC4/BLE_eventHandler.c ****         #endif /* CYBLE_IAS_SERVER */
1401:.\Generated_Source\PSoC4/BLE_eventHandler.c ****         #ifdef CYBLE_HIDS_SERVER
1402:.\Generated_Source\PSoC4/BLE_eventHandler.c ****             if((cyBle_eventHandlerFlag & CYBLE_CALLBACK) != 0u)
1403:.\Generated_Source\PSoC4/BLE_eventHandler.c ****             {
1404:.\Generated_Source\PSoC4/BLE_eventHandler.c ****                 (void)CyBle_HidssWriteEventHandler((CYBLE_GATTS_WRITE_REQ_PARAM_T *)eventParam);
1405:.\Generated_Source\PSoC4/BLE_eventHandler.c ****             }
1406:.\Generated_Source\PSoC4/BLE_eventHandler.c ****         #endif /* CYBLE_HIDS_SERVER */
1407:.\Generated_Source\PSoC4/BLE_eventHandler.c ****         #ifdef CYBLE_PASS_SERVER
1408:.\Generated_Source\PSoC4/BLE_eventHandler.c ****             if((cyBle_eventHandlerFlag & CYBLE_CALLBACK) != 0u)
1409:.\Generated_Source\PSoC4/BLE_eventHandler.c ****             {
1410:.\Generated_Source\PSoC4/BLE_eventHandler.c ****                 (void)CyBle_PasssWriteCmdEventHandler((CYBLE_GATTS_WRITE_REQ_PARAM_T *)eventParam);
1411:.\Generated_Source\PSoC4/BLE_eventHandler.c ****             }
1412:.\Generated_Source\PSoC4/BLE_eventHandler.c ****         #endif /* CYBLE_PASS_SERVER */
ARM GAS  C:\Users\Zachary\AppData\Local\Temp\ccNoimb2.s 			page 42


1413:.\Generated_Source\PSoC4/BLE_eventHandler.c ****         #ifdef CYBLE_RTUS_SERVER
1414:.\Generated_Source\PSoC4/BLE_eventHandler.c ****             if((cyBle_eventHandlerFlag & CYBLE_CALLBACK) != 0u)
1415:.\Generated_Source\PSoC4/BLE_eventHandler.c ****             {
1416:.\Generated_Source\PSoC4/BLE_eventHandler.c ****                 (void)CyBle_RtussWriteCmdEventHandler((CYBLE_GATTS_WRITE_REQ_PARAM_T *)eventParam);
1417:.\Generated_Source\PSoC4/BLE_eventHandler.c ****             }
1418:.\Generated_Source\PSoC4/BLE_eventHandler.c ****         #endif /* CYBLE_RTUS_SERVER */
1419:.\Generated_Source\PSoC4/BLE_eventHandler.c ****         #ifdef CYBLE_SCPS_SERVER
1420:.\Generated_Source\PSoC4/BLE_eventHandler.c ****             if((cyBle_eventHandlerFlag & CYBLE_CALLBACK) != 0u)
1421:.\Generated_Source\PSoC4/BLE_eventHandler.c ****             {
1422:.\Generated_Source\PSoC4/BLE_eventHandler.c ****                 (void)CyBle_ScpssWriteEventHandler((CYBLE_GATTS_WRITE_REQ_PARAM_T *)eventParam);
1423:.\Generated_Source\PSoC4/BLE_eventHandler.c ****             }
1424:.\Generated_Source\PSoC4/BLE_eventHandler.c ****         #endif /* CYBLE_SCPS_SERVER */
1425:.\Generated_Source\PSoC4/BLE_eventHandler.c ****             break;
1426:.\Generated_Source\PSoC4/BLE_eventHandler.c ****             
1427:.\Generated_Source\PSoC4/BLE_eventHandler.c ****         case CYBLE_EVT_GATTS_HANDLE_VALUE_CNF:
1428:.\Generated_Source\PSoC4/BLE_eventHandler.c ****             CyBle_ValueConfirmation((CYBLE_CONN_HANDLE_T *)eventParam);
 924              		.loc 1 1428 0
 925 024c 3B68     		ldr	r3, [r7]
 926 024e 181C     		mov	r0, r3
 927 0250 FFF7FEFF 		bl	CyBle_ValueConfirmation
1429:.\Generated_Source\PSoC4/BLE_eventHandler.c ****             break;
 928              		.loc 1 1429 0
 929 0254 00E0     		b	.L45
 930              	.L54:
1430:.\Generated_Source\PSoC4/BLE_eventHandler.c ****             
1431:.\Generated_Source\PSoC4/BLE_eventHandler.c ****     #endif /* CYBLE_GATT_ROLE_SERVER */
1432:.\Generated_Source\PSoC4/BLE_eventHandler.c **** 
1433:.\Generated_Source\PSoC4/BLE_eventHandler.c ****     #if (CYBLE_GATT_ROLE_CLIENT)
1434:.\Generated_Source\PSoC4/BLE_eventHandler.c ****         
1435:.\Generated_Source\PSoC4/BLE_eventHandler.c ****         case CYBLE_EVT_GATTC_READ_BY_GROUP_TYPE_RSP:
1436:.\Generated_Source\PSoC4/BLE_eventHandler.c ****             CyBle_ReadByGroupEventHandler((CYBLE_GATTC_READ_BY_GRP_RSP_PARAM_T *)eventParam);
1437:.\Generated_Source\PSoC4/BLE_eventHandler.c ****             break;
1438:.\Generated_Source\PSoC4/BLE_eventHandler.c **** 
1439:.\Generated_Source\PSoC4/BLE_eventHandler.c ****         case CYBLE_EVT_GATTC_READ_BY_TYPE_RSP:
1440:.\Generated_Source\PSoC4/BLE_eventHandler.c ****             CyBle_ReadByTypeEventHandler((CYBLE_GATTC_READ_BY_TYPE_RSP_PARAM_T *)eventParam);
1441:.\Generated_Source\PSoC4/BLE_eventHandler.c ****             break;
1442:.\Generated_Source\PSoC4/BLE_eventHandler.c **** 
1443:.\Generated_Source\PSoC4/BLE_eventHandler.c ****         case CYBLE_EVT_GATTC_FIND_INFO_RSP:
1444:.\Generated_Source\PSoC4/BLE_eventHandler.c ****             CyBle_FindInfoEventHandler((CYBLE_GATTC_FIND_INFO_RSP_PARAM_T *)eventParam);
1445:.\Generated_Source\PSoC4/BLE_eventHandler.c ****             break;
1446:.\Generated_Source\PSoC4/BLE_eventHandler.c **** 
1447:.\Generated_Source\PSoC4/BLE_eventHandler.c ****         case CYBLE_EVT_GATTC_ERROR_RSP:
1448:.\Generated_Source\PSoC4/BLE_eventHandler.c ****             CyBle_ErrorResponseEventHandler((CYBLE_GATTC_ERR_RSP_PARAM_T *)eventParam);
1449:.\Generated_Source\PSoC4/BLE_eventHandler.c ****             break;
1450:.\Generated_Source\PSoC4/BLE_eventHandler.c **** 
1451:.\Generated_Source\PSoC4/BLE_eventHandler.c ****         case CYBLE_EVT_GATTC_HANDLE_VALUE_NTF:
1452:.\Generated_Source\PSoC4/BLE_eventHandler.c ****             CyBle_NotificationEventHandler((CYBLE_GATTC_HANDLE_VALUE_NTF_PARAM_T *)eventParam);
1453:.\Generated_Source\PSoC4/BLE_eventHandler.c ****             break;
1454:.\Generated_Source\PSoC4/BLE_eventHandler.c **** 
1455:.\Generated_Source\PSoC4/BLE_eventHandler.c ****         case CYBLE_EVT_GATTC_HANDLE_VALUE_IND:
1456:.\Generated_Source\PSoC4/BLE_eventHandler.c ****             CyBle_GattcIndicationEventHandler((CYBLE_GATTC_HANDLE_VALUE_IND_PARAM_T *)eventParam);
1457:.\Generated_Source\PSoC4/BLE_eventHandler.c ****             CyBle_IndicationEventHandler((CYBLE_GATTC_HANDLE_VALUE_IND_PARAM_T *)eventParam);
1458:.\Generated_Source\PSoC4/BLE_eventHandler.c ****         
1459:.\Generated_Source\PSoC4/BLE_eventHandler.c ****             /* Respond with a Handle Value Confirmation when request handled */
1460:.\Generated_Source\PSoC4/BLE_eventHandler.c ****             if((cyBle_eventHandlerFlag & CYBLE_CALLBACK) == 0u)
1461:.\Generated_Source\PSoC4/BLE_eventHandler.c ****             {
1462:.\Generated_Source\PSoC4/BLE_eventHandler.c ****                 (void)CyBle_GattcConfirmation(((CYBLE_GATTC_HANDLE_VALUE_IND_PARAM_T *)eventParam)-
ARM GAS  C:\Users\Zachary\AppData\Local\Temp\ccNoimb2.s 			page 43


1463:.\Generated_Source\PSoC4/BLE_eventHandler.c ****             }
1464:.\Generated_Source\PSoC4/BLE_eventHandler.c ****             break;
1465:.\Generated_Source\PSoC4/BLE_eventHandler.c ****         
1466:.\Generated_Source\PSoC4/BLE_eventHandler.c ****         case CYBLE_EVT_GATTC_READ_RSP:
1467:.\Generated_Source\PSoC4/BLE_eventHandler.c ****             CyBle_ReadResponseEventHandler((CYBLE_GATTC_READ_RSP_PARAM_T *)eventParam);
1468:.\Generated_Source\PSoC4/BLE_eventHandler.c ****             break;
1469:.\Generated_Source\PSoC4/BLE_eventHandler.c **** 
1470:.\Generated_Source\PSoC4/BLE_eventHandler.c ****         case CYBLE_EVT_GATTC_WRITE_RSP:
1471:.\Generated_Source\PSoC4/BLE_eventHandler.c ****             CyBle_GattcWriteResponseEventHandler((CYBLE_CONN_HANDLE_T *)eventParam);
1472:.\Generated_Source\PSoC4/BLE_eventHandler.c ****             break;
1473:.\Generated_Source\PSoC4/BLE_eventHandler.c ****             
1474:.\Generated_Source\PSoC4/BLE_eventHandler.c ****     #endif /* CYBLE_GATT_ROLE_CLIENT */
1475:.\Generated_Source\PSoC4/BLE_eventHandler.c **** 
1476:.\Generated_Source\PSoC4/BLE_eventHandler.c ****     #if((CYBLE_GAP_ROLE_PERIPHERAL || CYBLE_GAP_ROLE_CENTRAL) && (CYBLE_BONDING_REQUIREMENT == CYBL
1477:.\Generated_Source\PSoC4/BLE_eventHandler.c **** 
1478:.\Generated_Source\PSoC4/BLE_eventHandler.c ****         case CYBLE_EVT_PENDING_FLASH_WRITE:
1479:.\Generated_Source\PSoC4/BLE_eventHandler.c ****             cyBle_pendingFlashWrite |= CYBLE_PENDING_STACK_FLASH_WRITE_BIT;
1480:.\Generated_Source\PSoC4/BLE_eventHandler.c ****             break;
1481:.\Generated_Source\PSoC4/BLE_eventHandler.c ****         
1482:.\Generated_Source\PSoC4/BLE_eventHandler.c ****     #endif  /* (CYBLE_BONDING_REQUIREMENT == CYBLE_BONDING_YES) */
1483:.\Generated_Source\PSoC4/BLE_eventHandler.c ****     
1484:.\Generated_Source\PSoC4/BLE_eventHandler.c ****         default:
1485:.\Generated_Source\PSoC4/BLE_eventHandler.c ****             break;
 931              		.loc 1 1485 0
 932 0256 C046     		mov	r8, r8
 933              	.L45:
1486:.\Generated_Source\PSoC4/BLE_eventHandler.c ****     }
1487:.\Generated_Source\PSoC4/BLE_eventHandler.c **** 
1488:.\Generated_Source\PSoC4/BLE_eventHandler.c ****     if(0u != (cyBle_eventHandlerFlag & (CYBLE_CALLBACK | CYBLE_ENABLE_ALL_EVENTS))) 
 934              		.loc 1 1488 0
 935 0258 0C4B     		ldr	r3, .L55
 936 025a 1B78     		ldrb	r3, [r3]
 937 025c DBB2     		uxtb	r3, r3
 938 025e 1A1C     		mov	r2, r3
 939 0260 1123     		mov	r3, #17
 940 0262 1340     		and	r3, r2
 941 0264 0FD0     		beq	.L25
1489:.\Generated_Source\PSoC4/BLE_eventHandler.c ****     {
1490:.\Generated_Source\PSoC4/BLE_eventHandler.c ****         cyBle_eventHandlerFlag &= (uint8)~CYBLE_CALLBACK;
 942              		.loc 1 1490 0
 943 0266 094B     		ldr	r3, .L55
 944 0268 1B78     		ldrb	r3, [r3]
 945 026a DBB2     		uxtb	r3, r3
 946 026c 0122     		mov	r2, #1
 947 026e 9343     		bic	r3, r2
 948 0270 DAB2     		uxtb	r2, r3
 949 0272 064B     		ldr	r3, .L55
 950 0274 1A70     		strb	r2, [r3]
1491:.\Generated_Source\PSoC4/BLE_eventHandler.c ****         CyBle_ApplCallback((uint32)eventCode, eventParam);
 951              		.loc 1 1491 0
 952 0276 104B     		ldr	r3, .L55+44
 953 0278 1B68     		ldr	r3, [r3]
 954 027a FA1D     		add	r2, r7, #7
 955 027c 1178     		ldrb	r1, [r2]
 956 027e 3A68     		ldr	r2, [r7]
 957 0280 081C     		mov	r0, r1
 958 0282 111C     		mov	r1, r2
ARM GAS  C:\Users\Zachary\AppData\Local\Temp\ccNoimb2.s 			page 44


 959 0284 9847     		blx	r3
 960              	.L25:
1492:.\Generated_Source\PSoC4/BLE_eventHandler.c ****     }
1493:.\Generated_Source\PSoC4/BLE_eventHandler.c **** 
1494:.\Generated_Source\PSoC4/BLE_eventHandler.c **** }
 961              		.loc 1 1494 0
 962 0286 BD46     		mov	sp, r7
 963 0288 04B0     		add	sp, sp, #16
 964              		@ sp needed
 965 028a 80BD     		pop	{r7, pc}
 966              	.L56:
 967              		.align	2
 968              	.L55:
 969 028c 00000000 		.word	cyBle_eventHandlerFlag
 970 0290 00000000 		.word	.L28
 971 0294 00000000 		.word	cyBle_sflashDeviceAddress
 972 0298 00000000 		.word	cyBle_deviceAddress
 973 029c 00000000 		.word	cyBle_state
 974 02a0 00000000 		.word	cyBle_busyStatus
 975 02a4 00000000 		.word	cyBle_authInfo
 976 02a8 00000000 		.word	cyBle_connHandle
 977 02ac 00000000 		.word	cyBle_advertisingIntervalType
 978 02b0 00000000 		.word	cyBle_attValuesCCCDFlashMemory
 979 02b4 00000000 		.word	cyBle_attValuesCCCD
 980 02b8 00000000 		.word	CyBle_ApplCallback
 981              		.cfi_endproc
 982              	.LFE10:
 983              		.size	CyBle_EventHandler, .-CyBle_EventHandler
 984              		.text
 985              	.Letext0:
 986              		.file 2 ".\\Generated_Source\\PSoC4\\cytypes.h"
 987              		.file 3 ".\\Generated_Source\\PSoC4\\BLE_Stack.h"
 988              		.file 4 ".\\Generated_Source\\PSoC4\\BLE_StackHostMain.h"
 989              		.file 5 ".\\Generated_Source\\PSoC4\\BLE_StackGap.h"
 990              		.file 6 ".\\Generated_Source\\PSoC4\\BLE_StackGatt.h"
 991              		.file 7 ".\\Generated_Source\\PSoC4\\BLE_StackGattServer.h"
 992              		.file 8 ".\\Generated_Source\\PSoC4\\BLE.h"
 993              		.file 9 ".\\Generated_Source\\PSoC4\\BLE_dis.h"
 994              		.file 10 ".\\Generated_Source\\PSoC4\\BLE_hts.h"
 995              		.file 11 ".\\Generated_Source\\PSoC4\\BLE_eventHandler.h"
 996              		.file 12 ".\\Generated_Source\\PSoC4\\BLE_gatt.h"
 997              		.section	.debug_info,"",%progbits
 998              	.Ldebug_info0:
 999 0000 7E0B0000 		.4byte	0xb7e
 1000 0004 0400     		.2byte	0x4
 1001 0006 00000000 		.4byte	.Ldebug_abbrev0
 1002 000a 04       		.byte	0x4
 1003 000b 01       		.uleb128 0x1
 1004 000c 6D120000 		.4byte	.LASF285
 1005 0010 01       		.byte	0x1
 1006 0011 68050000 		.4byte	.LASF286
 1007 0015 E2070000 		.4byte	.LASF287
 1008 0019 00000000 		.4byte	.Ldebug_ranges0+0
 1009 001d 00000000 		.4byte	0
 1010 0021 00000000 		.4byte	.Ldebug_line0
 1011 0025 02       		.uleb128 0x2
 1012 0026 01       		.byte	0x1
ARM GAS  C:\Users\Zachary\AppData\Local\Temp\ccNoimb2.s 			page 45


 1013 0027 06       		.byte	0x6
 1014 0028 62060000 		.4byte	.LASF0
 1015 002c 02       		.uleb128 0x2
 1016 002d 01       		.byte	0x1
 1017 002e 08       		.byte	0x8
 1018 002f 77070000 		.4byte	.LASF1
 1019 0033 02       		.uleb128 0x2
 1020 0034 02       		.byte	0x2
 1021 0035 05       		.byte	0x5
 1022 0036 57190000 		.4byte	.LASF2
 1023 003a 02       		.uleb128 0x2
 1024 003b 02       		.byte	0x2
 1025 003c 07       		.byte	0x7
 1026 003d C51C0000 		.4byte	.LASF3
 1027 0041 02       		.uleb128 0x2
 1028 0042 04       		.byte	0x4
 1029 0043 05       		.byte	0x5
 1030 0044 69040000 		.4byte	.LASF4
 1031 0048 02       		.uleb128 0x2
 1032 0049 04       		.byte	0x4
 1033 004a 07       		.byte	0x7
 1034 004b 0E0D0000 		.4byte	.LASF5
 1035 004f 02       		.uleb128 0x2
 1036 0050 08       		.byte	0x8
 1037 0051 05       		.byte	0x5
 1038 0052 5E0F0000 		.4byte	.LASF6
 1039 0056 02       		.uleb128 0x2
 1040 0057 08       		.byte	0x8
 1041 0058 07       		.byte	0x7
 1042 0059 3E160000 		.4byte	.LASF7
 1043 005d 03       		.uleb128 0x3
 1044 005e 04       		.byte	0x4
 1045 005f 05       		.byte	0x5
 1046 0060 696E7400 		.ascii	"int\000"
 1047 0064 02       		.uleb128 0x2
 1048 0065 04       		.byte	0x4
 1049 0066 07       		.byte	0x7
 1050 0067 CC110000 		.4byte	.LASF8
 1051 006b 04       		.uleb128 0x4
 1052 006c F9180000 		.4byte	.LASF9
 1053 0070 02       		.byte	0x2
 1054 0071 A1       		.byte	0xa1
 1055 0072 2C000000 		.4byte	0x2c
 1056 0076 04       		.uleb128 0x4
 1057 0077 471E0000 		.4byte	.LASF10
 1058 007b 02       		.byte	0x2
 1059 007c A2       		.byte	0xa2
 1060 007d 3A000000 		.4byte	0x3a
 1061 0081 04       		.uleb128 0x4
 1062 0082 E2000000 		.4byte	.LASF11
 1063 0086 02       		.byte	0x2
 1064 0087 A3       		.byte	0xa3
 1065 0088 48000000 		.4byte	0x48
 1066 008c 02       		.uleb128 0x2
 1067 008d 04       		.byte	0x4
 1068 008e 04       		.byte	0x4
 1069 008f 3F110000 		.4byte	.LASF12
ARM GAS  C:\Users\Zachary\AppData\Local\Temp\ccNoimb2.s 			page 46


 1070 0093 02       		.uleb128 0x2
 1071 0094 08       		.byte	0x8
 1072 0095 04       		.byte	0x4
 1073 0096 1D100000 		.4byte	.LASF13
 1074 009a 02       		.uleb128 0x2
 1075 009b 01       		.byte	0x1
 1076 009c 08       		.byte	0x8
 1077 009d C2080000 		.4byte	.LASF14
 1078 00a1 05       		.uleb128 0x5
 1079 00a2 6B000000 		.4byte	0x6b
 1080 00a6 02       		.uleb128 0x2
 1081 00a7 04       		.byte	0x4
 1082 00a8 07       		.byte	0x7
 1083 00a9 15000000 		.4byte	.LASF15
 1084 00ad 06       		.uleb128 0x6
 1085 00ae 04       		.byte	0x4
 1086 00af 07       		.uleb128 0x7
 1087 00b0 01       		.byte	0x1
 1088 00b1 03       		.byte	0x3
 1089 00b2 58       		.byte	0x58
 1090 00b3 1F020000 		.4byte	0x21f
 1091 00b7 08       		.uleb128 0x8
 1092 00b8 4A090000 		.4byte	.LASF16
 1093 00bc 00       		.sleb128 0
 1094 00bd 08       		.uleb128 0x8
 1095 00be EC040000 		.4byte	.LASF17
 1096 00c2 01       		.sleb128 1
 1097 00c3 08       		.uleb128 0x8
 1098 00c4 73160000 		.4byte	.LASF18
 1099 00c8 02       		.sleb128 2
 1100 00c9 08       		.uleb128 0x8
 1101 00ca A3060000 		.4byte	.LASF19
 1102 00ce 03       		.sleb128 3
 1103 00cf 08       		.uleb128 0x8
 1104 00d0 8D1D0000 		.4byte	.LASF20
 1105 00d4 04       		.sleb128 4
 1106 00d5 08       		.uleb128 0x8
 1107 00d6 A21B0000 		.4byte	.LASF21
 1108 00da 05       		.sleb128 5
 1109 00db 08       		.uleb128 0x8
 1110 00dc 621A0000 		.4byte	.LASF22
 1111 00e0 20       		.sleb128 32
 1112 00e1 08       		.uleb128 0x8
 1113 00e2 48030000 		.4byte	.LASF23
 1114 00e6 21       		.sleb128 33
 1115 00e7 08       		.uleb128 0x8
 1116 00e8 D20E0000 		.4byte	.LASF24
 1117 00ec 22       		.sleb128 34
 1118 00ed 08       		.uleb128 0x8
 1119 00ee 07140000 		.4byte	.LASF25
 1120 00f2 23       		.sleb128 35
 1121 00f3 08       		.uleb128 0x8
 1122 00f4 6C0C0000 		.4byte	.LASF26
 1123 00f8 24       		.sleb128 36
 1124 00f9 08       		.uleb128 0x8
 1125 00fa 880C0000 		.4byte	.LASF27
 1126 00fe 25       		.sleb128 37
ARM GAS  C:\Users\Zachary\AppData\Local\Temp\ccNoimb2.s 			page 47


 1127 00ff 08       		.uleb128 0x8
 1128 0100 D1180000 		.4byte	.LASF28
 1129 0104 26       		.sleb128 38
 1130 0105 08       		.uleb128 0x8
 1131 0106 64000000 		.4byte	.LASF29
 1132 010a 27       		.sleb128 39
 1133 010b 08       		.uleb128 0x8
 1134 010c 041E0000 		.4byte	.LASF30
 1135 0110 28       		.sleb128 40
 1136 0111 08       		.uleb128 0x8
 1137 0112 60150000 		.4byte	.LASF31
 1138 0116 29       		.sleb128 41
 1139 0117 08       		.uleb128 0x8
 1140 0118 290E0000 		.4byte	.LASF32
 1141 011c 2A       		.sleb128 42
 1142 011d 08       		.uleb128 0x8
 1143 011e 94130000 		.4byte	.LASF33
 1144 0122 2B       		.sleb128 43
 1145 0123 08       		.uleb128 0x8
 1146 0124 E81B0000 		.4byte	.LASF34
 1147 0128 2C       		.sleb128 44
 1148 0129 08       		.uleb128 0x8
 1149 012a DC190000 		.4byte	.LASF35
 1150 012e C000     		.sleb128 64
 1151 0130 08       		.uleb128 0x8
 1152 0131 A4000000 		.4byte	.LASF36
 1153 0135 C100     		.sleb128 65
 1154 0137 08       		.uleb128 0x8
 1155 0138 A21D0000 		.4byte	.LASF37
 1156 013c C200     		.sleb128 66
 1157 013e 08       		.uleb128 0x8
 1158 013f 92150000 		.4byte	.LASF38
 1159 0143 C300     		.sleb128 67
 1160 0145 08       		.uleb128 0x8
 1161 0146 85070000 		.4byte	.LASF39
 1162 014a C400     		.sleb128 68
 1163 014c 08       		.uleb128 0x8
 1164 014d 24070000 		.4byte	.LASF40
 1165 0151 C500     		.sleb128 69
 1166 0153 08       		.uleb128 0x8
 1167 0154 71180000 		.4byte	.LASF41
 1168 0158 C600     		.sleb128 70
 1169 015a 08       		.uleb128 0x8
 1170 015b 53180000 		.4byte	.LASF42
 1171 015f C700     		.sleb128 71
 1172 0161 08       		.uleb128 0x8
 1173 0162 9B080000 		.4byte	.LASF43
 1174 0166 C800     		.sleb128 72
 1175 0168 08       		.uleb128 0x8
 1176 0169 7C140000 		.4byte	.LASF44
 1177 016d C900     		.sleb128 73
 1178 016f 08       		.uleb128 0x8
 1179 0170 B5090000 		.4byte	.LASF45
 1180 0174 CA00     		.sleb128 74
 1181 0176 08       		.uleb128 0x8
 1182 0177 F7080000 		.4byte	.LASF46
 1183 017b CB00     		.sleb128 75
ARM GAS  C:\Users\Zachary\AppData\Local\Temp\ccNoimb2.s 			page 48


 1184 017d 08       		.uleb128 0x8
 1185 017e ED130000 		.4byte	.LASF47
 1186 0182 CC00     		.sleb128 76
 1187 0184 08       		.uleb128 0x8
 1188 0185 9E180000 		.4byte	.LASF48
 1189 0189 CD00     		.sleb128 77
 1190 018b 08       		.uleb128 0x8
 1191 018c 4B040000 		.4byte	.LASF49
 1192 0190 CE00     		.sleb128 78
 1193 0192 08       		.uleb128 0x8
 1194 0193 D9110000 		.4byte	.LASF50
 1195 0197 CF00     		.sleb128 79
 1196 0199 08       		.uleb128 0x8
 1197 019a 431A0000 		.4byte	.LASF51
 1198 019e D000     		.sleb128 80
 1199 01a0 08       		.uleb128 0x8
 1200 01a1 EA090000 		.4byte	.LASF52
 1201 01a5 D100     		.sleb128 81
 1202 01a7 08       		.uleb128 0x8
 1203 01a8 27030000 		.4byte	.LASF53
 1204 01ac D200     		.sleb128 82
 1205 01ae 08       		.uleb128 0x8
 1206 01af 601B0000 		.4byte	.LASF54
 1207 01b3 D300     		.sleb128 83
 1208 01b5 08       		.uleb128 0x8
 1209 01b6 261E0000 		.4byte	.LASF55
 1210 01ba D400     		.sleb128 84
 1211 01bc 08       		.uleb128 0x8
 1212 01bd FC010000 		.4byte	.LASF56
 1213 01c1 D500     		.sleb128 85
 1214 01c3 08       		.uleb128 0x8
 1215 01c4 561C0000 		.4byte	.LASF57
 1216 01c8 F000     		.sleb128 112
 1217 01ca 08       		.uleb128 0x8
 1218 01cb F10B0000 		.4byte	.LASF58
 1219 01cf F100     		.sleb128 113
 1220 01d1 08       		.uleb128 0x8
 1221 01d2 E0050000 		.4byte	.LASF59
 1222 01d6 F200     		.sleb128 114
 1223 01d8 08       		.uleb128 0x8
 1224 01d9 251A0000 		.4byte	.LASF60
 1225 01dd F300     		.sleb128 115
 1226 01df 08       		.uleb128 0x8
 1227 01e0 CF140000 		.4byte	.LASF61
 1228 01e4 F400     		.sleb128 116
 1229 01e6 08       		.uleb128 0x8
 1230 01e7 B10E0000 		.4byte	.LASF62
 1231 01eb F500     		.sleb128 117
 1232 01ed 08       		.uleb128 0x8
 1233 01ee 7A080000 		.4byte	.LASF63
 1234 01f2 F600     		.sleb128 118
 1235 01f4 08       		.uleb128 0x8
 1236 01f5 F9160000 		.4byte	.LASF64
 1237 01f9 F700     		.sleb128 119
 1238 01fb 08       		.uleb128 0x8
 1239 01fc 20020000 		.4byte	.LASF65
 1240 0200 F800     		.sleb128 120
ARM GAS  C:\Users\Zachary\AppData\Local\Temp\ccNoimb2.s 			page 49


 1241 0202 08       		.uleb128 0x8
 1242 0203 BF070000 		.4byte	.LASF66
 1243 0207 F900     		.sleb128 121
 1244 0209 08       		.uleb128 0x8
 1245 020a E01D0000 		.4byte	.LASF67
 1246 020e FA00     		.sleb128 122
 1247 0210 08       		.uleb128 0x8
 1248 0211 5C100000 		.4byte	.LASF68
 1249 0215 FA01     		.sleb128 250
 1250 0217 08       		.uleb128 0x8
 1251 0218 86130000 		.4byte	.LASF69
 1252 021c FF01     		.sleb128 255
 1253 021e 00       		.byte	0
 1254 021f 09       		.uleb128 0x9
 1255 0220 02       		.byte	0x2
 1256 0221 03       		.byte	0x3
 1257 0222 9A01     		.2byte	0x19a
 1258 0224 EB020000 		.4byte	0x2eb
 1259 0228 08       		.uleb128 0x8
 1260 0229 CF060000 		.4byte	.LASF70
 1261 022d 00       		.sleb128 0
 1262 022e 08       		.uleb128 0x8
 1263 022f E20A0000 		.4byte	.LASF71
 1264 0233 01       		.sleb128 1
 1265 0234 08       		.uleb128 0x8
 1266 0235 6F1D0000 		.4byte	.LASF72
 1267 0239 02       		.sleb128 2
 1268 023a 08       		.uleb128 0x8
 1269 023b 3E0B0000 		.4byte	.LASF73
 1270 023f 03       		.sleb128 3
 1271 0240 08       		.uleb128 0x8
 1272 0241 D40C0000 		.4byte	.LASF74
 1273 0245 04       		.sleb128 4
 1274 0246 08       		.uleb128 0x8
 1275 0247 FF0F0000 		.4byte	.LASF75
 1276 024b 05       		.sleb128 5
 1277 024c 08       		.uleb128 0x8
 1278 024d 061B0000 		.4byte	.LASF76
 1279 0251 06       		.sleb128 6
 1280 0252 08       		.uleb128 0x8
 1281 0253 98090000 		.4byte	.LASF77
 1282 0257 07       		.sleb128 7
 1283 0258 08       		.uleb128 0x8
 1284 0259 09110000 		.4byte	.LASF78
 1285 025d 08       		.sleb128 8
 1286 025e 08       		.uleb128 0x8
 1287 025f 861A0000 		.4byte	.LASF79
 1288 0263 09       		.sleb128 9
 1289 0264 08       		.uleb128 0x8
 1290 0265 4E1E0000 		.4byte	.LASF80
 1291 0269 0A       		.sleb128 10
 1292 026a 08       		.uleb128 0x8
 1293 026b 73030000 		.4byte	.LASF81
 1294 026f 0B       		.sleb128 11
 1295 0270 08       		.uleb128 0x8
 1296 0271 8B1B0000 		.4byte	.LASF82
 1297 0275 0C       		.sleb128 12
ARM GAS  C:\Users\Zachary\AppData\Local\Temp\ccNoimb2.s 			page 50


 1298 0276 08       		.uleb128 0x8
 1299 0277 21130000 		.4byte	.LASF83
 1300 027b 0D       		.sleb128 13
 1301 027c 08       		.uleb128 0x8
 1302 027d CD0D0000 		.4byte	.LASF84
 1303 0281 0E       		.sleb128 14
 1304 0282 08       		.uleb128 0x8
 1305 0283 DA0F0000 		.4byte	.LASF85
 1306 0287 0F       		.sleb128 15
 1307 0288 08       		.uleb128 0x8
 1308 0289 B2010000 		.4byte	.LASF86
 1309 028d 10       		.sleb128 16
 1310 028e 08       		.uleb128 0x8
 1311 028f E5100000 		.4byte	.LASF87
 1312 0293 11       		.sleb128 17
 1313 0294 08       		.uleb128 0x8
 1314 0295 FF040000 		.4byte	.LASF88
 1315 0299 12       		.sleb128 18
 1316 029a 08       		.uleb128 0x8
 1317 029b 3A060000 		.4byte	.LASF89
 1318 029f 13       		.sleb128 19
 1319 02a0 08       		.uleb128 0x8
 1320 02a1 24100000 		.4byte	.LASF90
 1321 02a5 27       		.sleb128 39
 1322 02a6 08       		.uleb128 0x8
 1323 02a7 45110000 		.4byte	.LASF91
 1324 02ab 28       		.sleb128 40
 1325 02ac 08       		.uleb128 0x8
 1326 02ad E0010000 		.4byte	.LASF92
 1327 02b1 29       		.sleb128 41
 1328 02b2 08       		.uleb128 0x8
 1329 02b3 E10B0000 		.4byte	.LASF93
 1330 02b7 FF01     		.sleb128 255
 1331 02b9 08       		.uleb128 0x8
 1332 02ba A20C0000 		.4byte	.LASF94
 1333 02be 8002     		.sleb128 256
 1334 02c0 08       		.uleb128 0x8
 1335 02c1 841C0000 		.4byte	.LASF95
 1336 02c5 8102     		.sleb128 257
 1337 02c7 08       		.uleb128 0x8
 1338 02c8 280B0000 		.4byte	.LASF96
 1339 02cc 8202     		.sleb128 258
 1340 02ce 08       		.uleb128 0x8
 1341 02cf 46140000 		.4byte	.LASF97
 1342 02d3 8302     		.sleb128 259
 1343 02d5 08       		.uleb128 0x8
 1344 02d6 2D140000 		.4byte	.LASF98
 1345 02da 8402     		.sleb128 260
 1346 02dc 08       		.uleb128 0x8
 1347 02dd 94050000 		.4byte	.LASF99
 1348 02e1 8502     		.sleb128 261
 1349 02e3 08       		.uleb128 0x8
 1350 02e4 B3160000 		.4byte	.LASF100
 1351 02e8 8602     		.sleb128 262
 1352 02ea 00       		.byte	0
 1353 02eb 09       		.uleb128 0x9
 1354 02ec 01       		.byte	0x1
ARM GAS  C:\Users\Zachary\AppData\Local\Temp\ccNoimb2.s 			page 51


 1355 02ed 03       		.byte	0x3
 1356 02ee 2502     		.2byte	0x225
 1357 02f0 2B030000 		.4byte	0x32b
 1358 02f4 08       		.uleb128 0x8
 1359 02f5 6E060000 		.4byte	.LASF101
 1360 02f9 01       		.sleb128 1
 1361 02fa 08       		.uleb128 0x8
 1362 02fb 16040000 		.4byte	.LASF102
 1363 02ff 02       		.sleb128 2
 1364 0300 08       		.uleb128 0x8
 1365 0301 2B150000 		.4byte	.LASF103
 1366 0305 03       		.sleb128 3
 1367 0306 08       		.uleb128 0x8
 1368 0307 B0030000 		.4byte	.LASF104
 1369 030b 04       		.sleb128 4
 1370 030c 08       		.uleb128 0x8
 1371 030d C7080000 		.4byte	.LASF105
 1372 0311 05       		.sleb128 5
 1373 0312 08       		.uleb128 0x8
 1374 0313 3B0D0000 		.4byte	.LASF106
 1375 0317 06       		.sleb128 6
 1376 0318 08       		.uleb128 0x8
 1377 0319 201B0000 		.4byte	.LASF107
 1378 031d 07       		.sleb128 7
 1379 031e 08       		.uleb128 0x8
 1380 031f F70C0000 		.4byte	.LASF108
 1381 0323 08       		.sleb128 8
 1382 0324 08       		.uleb128 0x8
 1383 0325 A3100000 		.4byte	.LASF109
 1384 0329 09       		.sleb128 9
 1385 032a 00       		.byte	0
 1386 032b 0A       		.uleb128 0xa
 1387 032c F60E0000 		.4byte	.LASF110
 1388 0330 03       		.byte	0x3
 1389 0331 2F02     		.2byte	0x22f
 1390 0333 EB020000 		.4byte	0x2eb
 1391 0337 09       		.uleb128 0x9
 1392 0338 01       		.byte	0x1
 1393 0339 03       		.byte	0x3
 1394 033a 3302     		.2byte	0x233
 1395 033c 53030000 		.4byte	0x353
 1396 0340 08       		.uleb128 0x8
 1397 0341 371B0000 		.4byte	.LASF111
 1398 0345 00       		.sleb128 0
 1399 0346 08       		.uleb128 0x8
 1400 0347 57120000 		.4byte	.LASF112
 1401 034b 01       		.sleb128 1
 1402 034c 08       		.uleb128 0x8
 1403 034d 411C0000 		.4byte	.LASF113
 1404 0351 02       		.sleb128 2
 1405 0352 00       		.byte	0
 1406 0353 0A       		.uleb128 0xa
 1407 0354 DE060000 		.4byte	.LASF114
 1408 0358 03       		.byte	0x3
 1409 0359 3A02     		.2byte	0x23a
 1410 035b 37030000 		.4byte	0x337
 1411 035f 0B       		.uleb128 0xb
ARM GAS  C:\Users\Zachary\AppData\Local\Temp\ccNoimb2.s 			page 52


 1412 0360 02       		.byte	0x2
 1413 0361 03       		.byte	0x3
 1414 0362 3D02     		.2byte	0x23d
 1415 0364 83030000 		.4byte	0x383
 1416 0368 0C       		.uleb128 0xc
 1417 0369 E9000000 		.4byte	.LASF115
 1418 036d 03       		.byte	0x3
 1419 036e 4002     		.2byte	0x240
 1420 0370 2B030000 		.4byte	0x32b
 1421 0374 00       		.byte	0
 1422 0375 0C       		.uleb128 0xc
 1423 0376 D6050000 		.4byte	.LASF116
 1424 037a 03       		.byte	0x3
 1425 037b 4202     		.2byte	0x242
 1426 037d 53030000 		.4byte	0x353
 1427 0381 01       		.byte	0x1
 1428 0382 00       		.byte	0
 1429 0383 0A       		.uleb128 0xa
 1430 0384 291C0000 		.4byte	.LASF117
 1431 0388 03       		.byte	0x3
 1432 0389 4302     		.2byte	0x243
 1433 038b 5F030000 		.4byte	0x35f
 1434 038f 0B       		.uleb128 0xb
 1435 0390 07       		.byte	0x7
 1436 0391 03       		.byte	0x3
 1437 0392 7502     		.2byte	0x275
 1438 0394 B3030000 		.4byte	0x3b3
 1439 0398 0C       		.uleb128 0xc
 1440 0399 B91A0000 		.4byte	.LASF118
 1441 039d 03       		.byte	0x3
 1442 039e 7702     		.2byte	0x277
 1443 03a0 B3030000 		.4byte	0x3b3
 1444 03a4 00       		.byte	0
 1445 03a5 0C       		.uleb128 0xc
 1446 03a6 73020000 		.4byte	.LASF119
 1447 03aa 03       		.byte	0x3
 1448 03ab 7802     		.2byte	0x278
 1449 03ad 6B000000 		.4byte	0x6b
 1450 03b1 06       		.byte	0x6
 1451 03b2 00       		.byte	0
 1452 03b3 0D       		.uleb128 0xd
 1453 03b4 6B000000 		.4byte	0x6b
 1454 03b8 C3030000 		.4byte	0x3c3
 1455 03bc 0E       		.uleb128 0xe
 1456 03bd A6000000 		.4byte	0xa6
 1457 03c1 05       		.byte	0x5
 1458 03c2 00       		.byte	0
 1459 03c3 0A       		.uleb128 0xa
 1460 03c4 A1170000 		.4byte	.LASF120
 1461 03c8 03       		.byte	0x3
 1462 03c9 7902     		.2byte	0x279
 1463 03cb 8F030000 		.4byte	0x38f
 1464 03cf 07       		.uleb128 0x7
 1465 03d0 01       		.byte	0x1
 1466 03d1 04       		.byte	0x4
 1467 03d2 44       		.byte	0x44
 1468 03d3 F0030000 		.4byte	0x3f0
ARM GAS  C:\Users\Zachary\AppData\Local\Temp\ccNoimb2.s 			page 53


 1469 03d7 08       		.uleb128 0x8
 1470 03d8 CE170000 		.4byte	.LASF121
 1471 03dc 01       		.sleb128 1
 1472 03dd 08       		.uleb128 0x8
 1473 03de 6F170000 		.4byte	.LASF122
 1474 03e2 02       		.sleb128 2
 1475 03e3 08       		.uleb128 0x8
 1476 03e4 CE1D0000 		.4byte	.LASF123
 1477 03e8 03       		.sleb128 3
 1478 03e9 08       		.uleb128 0x8
 1479 03ea 42180000 		.4byte	.LASF124
 1480 03ee 04       		.sleb128 4
 1481 03ef 00       		.byte	0
 1482 03f0 04       		.uleb128 0x4
 1483 03f1 78020000 		.4byte	.LASF125
 1484 03f5 04       		.byte	0x4
 1485 03f6 51       		.byte	0x51
 1486 03f7 CF030000 		.4byte	0x3cf
 1487 03fb 07       		.uleb128 0x7
 1488 03fc 01       		.byte	0x1
 1489 03fd 05       		.byte	0x5
 1490 03fe B1       		.byte	0xb1
 1491 03ff 1C040000 		.4byte	0x41c
 1492 0403 08       		.uleb128 0x8
 1493 0404 88040000 		.4byte	.LASF126
 1494 0408 00       		.sleb128 0
 1495 0409 08       		.uleb128 0x8
 1496 040a 9E040000 		.4byte	.LASF127
 1497 040e 01       		.sleb128 1
 1498 040f 08       		.uleb128 0x8
 1499 0410 B4040000 		.4byte	.LASF128
 1500 0414 02       		.sleb128 2
 1501 0415 08       		.uleb128 0x8
 1502 0416 610A0000 		.4byte	.LASF129
 1503 041a 0F       		.sleb128 15
 1504 041b 00       		.byte	0
 1505 041c 07       		.uleb128 0x7
 1506 041d 01       		.byte	0x1
 1507 041e 05       		.byte	0x5
 1508 041f CB       		.byte	0xcb
 1509 0420 43040000 		.4byte	0x443
 1510 0424 08       		.uleb128 0x8
 1511 0425 93030000 		.4byte	.LASF130
 1512 0429 00       		.sleb128 0
 1513 042a 08       		.uleb128 0x8
 1514 042b CA1B0000 		.4byte	.LASF131
 1515 042f 01       		.sleb128 1
 1516 0430 08       		.uleb128 0x8
 1517 0431 2C090000 		.4byte	.LASF132
 1518 0435 02       		.sleb128 2
 1519 0436 08       		.uleb128 0x8
 1520 0437 83000000 		.4byte	.LASF133
 1521 043b 03       		.sleb128 3
 1522 043c 08       		.uleb128 0x8
 1523 043d F6190000 		.4byte	.LASF134
 1524 0441 04       		.sleb128 4
 1525 0442 00       		.byte	0
ARM GAS  C:\Users\Zachary\AppData\Local\Temp\ccNoimb2.s 			page 54


 1526 0443 07       		.uleb128 0x7
 1527 0444 01       		.byte	0x1
 1528 0445 05       		.byte	0x5
 1529 0446 E1       		.byte	0xe1
 1530 0447 9A040000 		.4byte	0x49a
 1531 044b 08       		.uleb128 0x8
 1532 044c 46150000 		.4byte	.LASF135
 1533 0450 00       		.sleb128 0
 1534 0451 08       		.uleb128 0x8
 1535 0452 EC030000 		.4byte	.LASF136
 1536 0456 01       		.sleb128 1
 1537 0457 08       		.uleb128 0x8
 1538 0458 C9150000 		.4byte	.LASF137
 1539 045c 02       		.sleb128 2
 1540 045d 08       		.uleb128 0x8
 1541 045e 810D0000 		.4byte	.LASF138
 1542 0462 03       		.sleb128 3
 1543 0463 08       		.uleb128 0x8
 1544 0464 3C1D0000 		.4byte	.LASF139
 1545 0468 04       		.sleb128 4
 1546 0469 08       		.uleb128 0x8
 1547 046a 17180000 		.4byte	.LASF140
 1548 046e 05       		.sleb128 5
 1549 046f 08       		.uleb128 0x8
 1550 0470 280F0000 		.4byte	.LASF141
 1551 0474 06       		.sleb128 6
 1552 0475 08       		.uleb128 0x8
 1553 0476 560D0000 		.4byte	.LASF142
 1554 047a 07       		.sleb128 7
 1555 047b 08       		.uleb128 0x8
 1556 047c BB020000 		.4byte	.LASF143
 1557 0480 08       		.sleb128 8
 1558 0481 08       		.uleb128 0x8
 1559 0482 8A0E0000 		.4byte	.LASF144
 1560 0486 09       		.sleb128 9
 1561 0487 08       		.uleb128 0x8
 1562 0488 52080000 		.4byte	.LASF145
 1563 048c 0A       		.sleb128 10
 1564 048d 08       		.uleb128 0x8
 1565 048e 8F020000 		.4byte	.LASF146
 1566 0492 15       		.sleb128 21
 1567 0493 08       		.uleb128 0x8
 1568 0494 170C0000 		.4byte	.LASF147
 1569 0498 18       		.sleb128 24
 1570 0499 00       		.byte	0
 1571 049a 0A       		.uleb128 0xa
 1572 049b CE130000 		.4byte	.LASF148
 1573 049f 05       		.byte	0x5
 1574 04a0 0D01     		.2byte	0x10d
 1575 04a2 43040000 		.4byte	0x443
 1576 04a6 0B       		.uleb128 0xb
 1577 04a7 04       		.byte	0x4
 1578 04a8 05       		.byte	0x5
 1579 04a9 2601     		.2byte	0x126
 1580 04ab E4040000 		.4byte	0x4e4
 1581 04af 0C       		.uleb128 0xc
 1582 04b0 0E190000 		.4byte	.LASF149
ARM GAS  C:\Users\Zachary\AppData\Local\Temp\ccNoimb2.s 			page 55


 1583 04b4 05       		.byte	0x5
 1584 04b5 2F01     		.2byte	0x12f
 1585 04b7 6B000000 		.4byte	0x6b
 1586 04bb 00       		.byte	0
 1587 04bc 0C       		.uleb128 0xc
 1588 04bd A6110000 		.4byte	.LASF150
 1589 04c1 05       		.byte	0x5
 1590 04c2 3501     		.2byte	0x135
 1591 04c4 6B000000 		.4byte	0x6b
 1592 04c8 01       		.byte	0x1
 1593 04c9 0C       		.uleb128 0xc
 1594 04ca 1E000000 		.4byte	.LASF151
 1595 04ce 05       		.byte	0x5
 1596 04cf 3B01     		.2byte	0x13b
 1597 04d1 6B000000 		.4byte	0x6b
 1598 04d5 02       		.byte	0x2
 1599 04d6 0C       		.uleb128 0xc
 1600 04d7 61190000 		.4byte	.LASF152
 1601 04db 05       		.byte	0x5
 1602 04dc 3F01     		.2byte	0x13f
 1603 04de 9A040000 		.4byte	0x49a
 1604 04e2 03       		.byte	0x3
 1605 04e3 00       		.byte	0
 1606 04e4 0A       		.uleb128 0xa
 1607 04e5 16090000 		.4byte	.LASF153
 1608 04e9 05       		.byte	0x5
 1609 04ea 4101     		.2byte	0x141
 1610 04ec A6040000 		.4byte	0x4a6
 1611 04f0 0F       		.uleb128 0xf
 1612 04f1 04       		.byte	0x4
 1613 04f2 6B000000 		.4byte	0x6b
 1614 04f6 0B       		.uleb128 0xb
 1615 04f7 08       		.byte	0x8
 1616 04f8 05       		.byte	0x5
 1617 04f9 AD02     		.2byte	0x2ad
 1618 04fb 34050000 		.4byte	0x534
 1619 04ff 0C       		.uleb128 0xc
 1620 0500 340D0000 		.4byte	.LASF154
 1621 0504 05       		.byte	0x5
 1622 0505 B102     		.2byte	0x2b1
 1623 0507 6B000000 		.4byte	0x6b
 1624 050b 00       		.byte	0
 1625 050c 0C       		.uleb128 0xc
 1626 050d BC1C0000 		.4byte	.LASF155
 1627 0511 05       		.byte	0x5
 1628 0512 B702     		.2byte	0x2b7
 1629 0514 76000000 		.4byte	0x76
 1630 0518 02       		.byte	0x2
 1631 0519 0C       		.uleb128 0xc
 1632 051a BE1B0000 		.4byte	.LASF156
 1633 051e 05       		.byte	0x5
 1634 051f BC02     		.2byte	0x2bc
 1635 0521 76000000 		.4byte	0x76
 1636 0525 04       		.byte	0x4
 1637 0526 0C       		.uleb128 0xc
 1638 0527 C01D0000 		.4byte	.LASF157
 1639 052b 05       		.byte	0x5
ARM GAS  C:\Users\Zachary\AppData\Local\Temp\ccNoimb2.s 			page 56


 1640 052c C202     		.2byte	0x2c2
 1641 052e 76000000 		.4byte	0x76
 1642 0532 06       		.byte	0x6
 1643 0533 00       		.byte	0
 1644 0534 0A       		.uleb128 0xa
 1645 0535 11160000 		.4byte	.LASF158
 1646 0539 05       		.byte	0x5
 1647 053a C402     		.2byte	0x2c4
 1648 053c F6040000 		.4byte	0x4f6
 1649 0540 07       		.uleb128 0x7
 1650 0541 01       		.byte	0x1
 1651 0542 06       		.byte	0x6
 1652 0543 48       		.byte	0x48
 1653 0544 FA050000 		.4byte	0x5fa
 1654 0548 08       		.uleb128 0x8
 1655 0549 CD0A0000 		.4byte	.LASF159
 1656 054d 01       		.sleb128 1
 1657 054e 08       		.uleb128 0x8
 1658 054f 7F090000 		.4byte	.LASF160
 1659 0553 02       		.sleb128 2
 1660 0554 08       		.uleb128 0x8
 1661 0555 32040000 		.4byte	.LASF161
 1662 0559 03       		.sleb128 3
 1663 055a 08       		.uleb128 0x8
 1664 055b 8A060000 		.4byte	.LASF162
 1665 055f 04       		.sleb128 4
 1666 0560 08       		.uleb128 0x8
 1667 0561 B0150000 		.4byte	.LASF163
 1668 0565 05       		.sleb128 5
 1669 0566 08       		.uleb128 0x8
 1670 0567 09150000 		.4byte	.LASF164
 1671 056b 06       		.sleb128 6
 1672 056c 08       		.uleb128 0x8
 1673 056d CA040000 		.4byte	.LASF165
 1674 0571 07       		.sleb128 7
 1675 0572 08       		.uleb128 0x8
 1676 0573 B3140000 		.4byte	.LASF166
 1677 0577 08       		.sleb128 8
 1678 0578 08       		.uleb128 0x8
 1679 0579 E3020000 		.4byte	.LASF167
 1680 057d 09       		.sleb128 9
 1681 057e 08       		.uleb128 0x8
 1682 057f 200D0000 		.4byte	.LASF168
 1683 0583 0A       		.sleb128 10
 1684 0584 08       		.uleb128 0x8
 1685 0585 F21A0000 		.4byte	.LASF169
 1686 0589 0B       		.sleb128 11
 1687 058a 08       		.uleb128 0x8
 1688 058b B5170000 		.4byte	.LASF170
 1689 058f 0C       		.sleb128 12
 1690 0590 08       		.uleb128 0x8
 1691 0591 FC050000 		.4byte	.LASF171
 1692 0595 0D       		.sleb128 13
 1693 0596 08       		.uleb128 0x8
 1694 0597 5F140000 		.4byte	.LASF172
 1695 059b 0E       		.sleb128 14
 1696 059c 08       		.uleb128 0x8
ARM GAS  C:\Users\Zachary\AppData\Local\Temp\ccNoimb2.s 			page 57


 1697 059d 56020000 		.4byte	.LASF173
 1698 05a1 0F       		.sleb128 15
 1699 05a2 08       		.uleb128 0x8
 1700 05a3 1F1D0000 		.4byte	.LASF174
 1701 05a7 10       		.sleb128 16
 1702 05a8 08       		.uleb128 0x8
 1703 05a9 B70C0000 		.4byte	.LASF175
 1704 05ad 11       		.sleb128 17
 1705 05ae 08       		.uleb128 0x8
 1706 05af 42190000 		.4byte	.LASF176
 1707 05b3 12       		.sleb128 18
 1708 05b4 08       		.uleb128 0x8
 1709 05b5 E2080000 		.4byte	.LASF177
 1710 05b9 13       		.sleb128 19
 1711 05ba 08       		.uleb128 0x8
 1712 05bb CD000000 		.4byte	.LASF178
 1713 05bf D200     		.sleb128 82
 1714 05c1 08       		.uleb128 0x8
 1715 05c2 6F010000 		.4byte	.LASF179
 1716 05c6 16       		.sleb128 22
 1717 05c7 08       		.uleb128 0x8
 1718 05c8 46130000 		.4byte	.LASF180
 1719 05cc 17       		.sleb128 23
 1720 05cd 08       		.uleb128 0x8
 1721 05ce 0C1C0000 		.4byte	.LASF181
 1722 05d2 18       		.sleb128 24
 1723 05d3 08       		.uleb128 0x8
 1724 05d4 C40B0000 		.4byte	.LASF182
 1725 05d8 19       		.sleb128 25
 1726 05d9 08       		.uleb128 0x8
 1727 05da B10D0000 		.4byte	.LASF183
 1728 05de 1B       		.sleb128 27
 1729 05df 08       		.uleb128 0x8
 1730 05e0 A3070000 		.4byte	.LASF184
 1731 05e4 1D       		.sleb128 29
 1732 05e5 08       		.uleb128 0x8
 1733 05e6 27000000 		.4byte	.LASF185
 1734 05ea 1E       		.sleb128 30
 1735 05eb 08       		.uleb128 0x8
 1736 05ec 7D0B0000 		.4byte	.LASF186
 1737 05f0 D201     		.sleb128 210
 1738 05f2 08       		.uleb128 0x8
 1739 05f3 98160000 		.4byte	.LASF187
 1740 05f7 FF01     		.sleb128 255
 1741 05f9 00       		.byte	0
 1742 05fa 07       		.uleb128 0x7
 1743 05fb 01       		.byte	0x1
 1744 05fc 06       		.byte	0x6
 1745 05fd A4       		.byte	0xa4
 1746 05fe B5060000 		.4byte	0x6b5
 1747 0602 08       		.uleb128 0x8
 1748 0603 18170000 		.4byte	.LASF188
 1749 0607 00       		.sleb128 0
 1750 0608 08       		.uleb128 0x8
 1751 0609 55160000 		.4byte	.LASF189
 1752 060d 01       		.sleb128 1
 1753 060e 08       		.uleb128 0x8
ARM GAS  C:\Users\Zachary\AppData\Local\Temp\ccNoimb2.s 			page 58


 1754 060f 19010000 		.4byte	.LASF190
 1755 0613 02       		.sleb128 2
 1756 0614 08       		.uleb128 0x8
 1757 0615 991C0000 		.4byte	.LASF191
 1758 0619 03       		.sleb128 3
 1759 061a 08       		.uleb128 0x8
 1760 061b 4D050000 		.4byte	.LASF192
 1761 061f 04       		.sleb128 4
 1762 0620 08       		.uleb128 0x8
 1763 0621 F8110000 		.4byte	.LASF193
 1764 0625 05       		.sleb128 5
 1765 0626 08       		.uleb128 0x8
 1766 0627 A0190000 		.4byte	.LASF194
 1767 062b 06       		.sleb128 6
 1768 062c 08       		.uleb128 0x8
 1769 062d 95140000 		.4byte	.LASF195
 1770 0631 07       		.sleb128 7
 1771 0632 08       		.uleb128 0x8
 1772 0633 71110000 		.4byte	.LASF196
 1773 0637 08       		.sleb128 8
 1774 0638 08       		.uleb128 0x8
 1775 0639 B20F0000 		.4byte	.LASF197
 1776 063d 09       		.sleb128 9
 1777 063e 08       		.uleb128 0x8
 1778 063f 63130000 		.4byte	.LASF198
 1779 0643 0A       		.sleb128 10
 1780 0644 08       		.uleb128 0x8
 1781 0645 3F0A0000 		.4byte	.LASF199
 1782 0649 0B       		.sleb128 11
 1783 064a 08       		.uleb128 0x8
 1784 064b 7A100000 		.4byte	.LASF200
 1785 064f 0C       		.sleb128 12
 1786 0650 08       		.uleb128 0x8
 1787 0651 15060000 		.4byte	.LASF201
 1788 0655 0D       		.sleb128 13
 1789 0656 08       		.uleb128 0x8
 1790 0657 61090000 		.4byte	.LASF202
 1791 065b 0E       		.sleb128 14
 1792 065c 08       		.uleb128 0x8
 1793 065d D81C0000 		.4byte	.LASF203
 1794 0661 0F       		.sleb128 15
 1795 0662 08       		.uleb128 0x8
 1796 0663 8C010000 		.4byte	.LASF204
 1797 0667 10       		.sleb128 16
 1798 0668 08       		.uleb128 0x8
 1799 0669 3B010000 		.4byte	.LASF205
 1800 066d 11       		.sleb128 17
 1801 066e 08       		.uleb128 0x8
 1802 066f 090A0000 		.4byte	.LASF206
 1803 0673 8001     		.sleb128 128
 1804 0675 08       		.uleb128 0x8
 1805 0676 3E0C0000 		.4byte	.LASF207
 1806 067a 8001     		.sleb128 128
 1807 067c 08       		.uleb128 0x8
 1808 067d 69190000 		.4byte	.LASF208
 1809 0681 8001     		.sleb128 128
 1810 0683 08       		.uleb128 0x8
ARM GAS  C:\Users\Zachary\AppData\Local\Temp\ccNoimb2.s 			page 59


 1811 0684 81170000 		.4byte	.LASF209
 1812 0688 8001     		.sleb128 128
 1813 068a 08       		.uleb128 0x8
 1814 068b E9120000 		.4byte	.LASF210
 1815 068f 8001     		.sleb128 128
 1816 0691 08       		.uleb128 0x8
 1817 0692 990B0000 		.4byte	.LASF211
 1818 0696 8101     		.sleb128 129
 1819 0698 08       		.uleb128 0x8
 1820 0699 C01A0000 		.4byte	.LASF212
 1821 069d A001     		.sleb128 160
 1822 069f 08       		.uleb128 0x8
 1823 06a0 FA060000 		.4byte	.LASF213
 1824 06a4 FD01     		.sleb128 253
 1825 06a6 08       		.uleb128 0x8
 1826 06a7 B8100000 		.4byte	.LASF214
 1827 06ab FE01     		.sleb128 254
 1828 06ad 08       		.uleb128 0x8
 1829 06ae ED140000 		.4byte	.LASF215
 1830 06b2 FF01     		.sleb128 255
 1831 06b4 00       		.byte	0
 1832 06b5 0A       		.uleb128 0xa
 1833 06b6 59170000 		.4byte	.LASF216
 1834 06ba 06       		.byte	0x6
 1835 06bb 3001     		.2byte	0x130
 1836 06bd FA050000 		.4byte	0x5fa
 1837 06c1 0A       		.uleb128 0xa
 1838 06c2 CD160000 		.4byte	.LASF217
 1839 06c6 06       		.byte	0x6
 1840 06c7 5201     		.2byte	0x152
 1841 06c9 76000000 		.4byte	0x76
 1842 06cd 0B       		.uleb128 0xb
 1843 06ce 02       		.byte	0x2
 1844 06cf 06       		.byte	0x6
 1845 06d0 5501     		.2byte	0x155
 1846 06d2 F1060000 		.4byte	0x6f1
 1847 06d6 0C       		.uleb128 0xc
 1848 06d7 E3030000 		.4byte	.LASF218
 1849 06db 06       		.byte	0x6
 1850 06dc 5C01     		.2byte	0x15c
 1851 06de 6B000000 		.4byte	0x6b
 1852 06e2 00       		.byte	0
 1853 06e3 0C       		.uleb128 0xc
 1854 06e4 691D0000 		.4byte	.LASF219
 1855 06e8 06       		.byte	0x6
 1856 06e9 6201     		.2byte	0x162
 1857 06eb 6B000000 		.4byte	0x6b
 1858 06ef 01       		.byte	0x1
 1859 06f0 00       		.byte	0
 1860 06f1 0A       		.uleb128 0xa
 1861 06f2 5F030000 		.4byte	.LASF220
 1862 06f6 06       		.byte	0x6
 1863 06f7 6401     		.2byte	0x164
 1864 06f9 CD060000 		.4byte	0x6cd
 1865 06fd 0B       		.uleb128 0xb
 1866 06fe 08       		.byte	0x8
 1867 06ff 06       		.byte	0x6
ARM GAS  C:\Users\Zachary\AppData\Local\Temp\ccNoimb2.s 			page 60


 1868 0700 7901     		.2byte	0x179
 1869 0702 2E070000 		.4byte	0x72e
 1870 0706 10       		.uleb128 0x10
 1871 0707 76616C00 		.ascii	"val\000"
 1872 070b 06       		.byte	0x6
 1873 070c 7C01     		.2byte	0x17c
 1874 070e F0040000 		.4byte	0x4f0
 1875 0712 00       		.byte	0
 1876 0713 10       		.uleb128 0x10
 1877 0714 6C656E00 		.ascii	"len\000"
 1878 0718 06       		.byte	0x6
 1879 0719 7F01     		.2byte	0x17f
 1880 071b 76000000 		.4byte	0x76
 1881 071f 04       		.byte	0x4
 1882 0720 0C       		.uleb128 0xc
 1883 0721 151D0000 		.4byte	.LASF221
 1884 0725 06       		.byte	0x6
 1885 0726 8601     		.2byte	0x186
 1886 0728 76000000 		.4byte	0x76
 1887 072c 06       		.byte	0x6
 1888 072d 00       		.byte	0
 1889 072e 0A       		.uleb128 0xa
 1890 072f 43020000 		.4byte	.LASF222
 1891 0733 06       		.byte	0x6
 1892 0734 8801     		.2byte	0x188
 1893 0736 FD060000 		.4byte	0x6fd
 1894 073a 0B       		.uleb128 0xb
 1895 073b 0C       		.byte	0xc
 1896 073c 06       		.byte	0x6
 1897 073d 8B01     		.2byte	0x18b
 1898 073f 5E070000 		.4byte	0x75e
 1899 0743 0C       		.uleb128 0xc
 1900 0744 2C170000 		.4byte	.LASF223
 1901 0748 06       		.byte	0x6
 1902 0749 8E01     		.2byte	0x18e
 1903 074b 2E070000 		.4byte	0x72e
 1904 074f 00       		.byte	0
 1905 0750 0C       		.uleb128 0xc
 1906 0751 9B110000 		.4byte	.LASF224
 1907 0755 06       		.byte	0x6
 1908 0756 9101     		.2byte	0x191
 1909 0758 C1060000 		.4byte	0x6c1
 1910 075c 08       		.byte	0x8
 1911 075d 00       		.byte	0
 1912 075e 0A       		.uleb128 0xa
 1913 075f B7050000 		.4byte	.LASF225
 1914 0763 06       		.byte	0x6
 1915 0764 9301     		.2byte	0x193
 1916 0766 3A070000 		.4byte	0x73a
 1917 076a 0B       		.uleb128 0xb
 1918 076b 04       		.byte	0x4
 1919 076c 06       		.byte	0x6
 1920 076d A101     		.2byte	0x1a1
 1921 076f 8E070000 		.4byte	0x78e
 1922 0773 0C       		.uleb128 0xc
 1923 0774 F2170000 		.4byte	.LASF226
 1924 0778 06       		.byte	0x6
ARM GAS  C:\Users\Zachary\AppData\Local\Temp\ccNoimb2.s 			page 61


 1925 0779 A401     		.2byte	0x1a4
 1926 077b F1060000 		.4byte	0x6f1
 1927 077f 00       		.byte	0
 1928 0780 10       		.uleb128 0x10
 1929 0781 6D747500 		.ascii	"mtu\000"
 1930 0785 06       		.byte	0x6
 1931 0786 A701     		.2byte	0x1a7
 1932 0788 76000000 		.4byte	0x76
 1933 078c 02       		.byte	0x2
 1934 078d 00       		.byte	0
 1935 078e 0A       		.uleb128 0xa
 1936 078f 23120000 		.4byte	.LASF227
 1937 0793 06       		.byte	0x6
 1938 0794 A901     		.2byte	0x1a9
 1939 0796 6A070000 		.4byte	0x76a
 1940 079a 11       		.uleb128 0x11
 1941 079b 04       		.byte	0x4
 1942 079c 07       		.byte	0x7
 1943 079d 33       		.byte	0x33
 1944 079e C7070000 		.4byte	0x7c7
 1945 07a2 12       		.uleb128 0x12
 1946 07a3 9B110000 		.4byte	.LASF224
 1947 07a7 07       		.byte	0x7
 1948 07a8 36       		.byte	0x36
 1949 07a9 C1060000 		.4byte	0x6c1
 1950 07ad 00       		.byte	0
 1951 07ae 12       		.uleb128 0x12
 1952 07af 6A110000 		.4byte	.LASF228
 1953 07b3 07       		.byte	0x7
 1954 07b4 3C       		.byte	0x3c
 1955 07b5 6B000000 		.4byte	0x6b
 1956 07b9 02       		.byte	0x2
 1957 07ba 12       		.uleb128 0x12
 1958 07bb 48080000 		.4byte	.LASF229
 1959 07bf 07       		.byte	0x7
 1960 07c0 3F       		.byte	0x3f
 1961 07c1 B5060000 		.4byte	0x6b5
 1962 07c5 03       		.byte	0x3
 1963 07c6 00       		.byte	0
 1964 07c7 04       		.uleb128 0x4
 1965 07c8 5F070000 		.4byte	.LASF230
 1966 07cc 07       		.byte	0x7
 1967 07cd 41       		.byte	0x41
 1968 07ce 9A070000 		.4byte	0x79a
 1969 07d2 11       		.uleb128 0x11
 1970 07d3 10       		.byte	0x10
 1971 07d4 07       		.byte	0x7
 1972 07d5 52       		.byte	0x52
 1973 07d6 F3070000 		.4byte	0x7f3
 1974 07da 12       		.uleb128 0x12
 1975 07db F2170000 		.4byte	.LASF226
 1976 07df 07       		.byte	0x7
 1977 07e0 55       		.byte	0x55
 1978 07e1 F1060000 		.4byte	0x6f1
 1979 07e5 00       		.byte	0
 1980 07e6 12       		.uleb128 0x12
 1981 07e7 E4170000 		.4byte	.LASF231
ARM GAS  C:\Users\Zachary\AppData\Local\Temp\ccNoimb2.s 			page 62


 1982 07eb 07       		.byte	0x7
 1983 07ec 58       		.byte	0x58
 1984 07ed 5E070000 		.4byte	0x75e
 1985 07f1 04       		.byte	0x4
 1986 07f2 00       		.byte	0
 1987 07f3 04       		.uleb128 0x4
 1988 07f4 AE110000 		.4byte	.LASF232
 1989 07f8 07       		.byte	0x7
 1990 07f9 5A       		.byte	0x5a
 1991 07fa D2070000 		.4byte	0x7d2
 1992 07fe 0A       		.uleb128 0xa
 1993 07ff FF020000 		.4byte	.LASF233
 1994 0803 08       		.byte	0x8
 1995 0804 0001     		.2byte	0x100
 1996 0806 0A080000 		.4byte	0x80a
 1997 080a 0F       		.uleb128 0xf
 1998 080b 04       		.byte	0x4
 1999 080c 10080000 		.4byte	0x810
 2000 0810 13       		.uleb128 0x13
 2001 0811 20080000 		.4byte	0x820
 2002 0815 14       		.uleb128 0x14
 2003 0816 81000000 		.4byte	0x81
 2004 081a 14       		.uleb128 0x14
 2005 081b AD000000 		.4byte	0xad
 2006 081f 00       		.byte	0
 2007 0820 07       		.uleb128 0x7
 2008 0821 01       		.byte	0x1
 2009 0822 09       		.byte	0x9
 2010 0823 1D       		.byte	0x1d
 2011 0824 65080000 		.4byte	0x865
 2012 0828 08       		.uleb128 0x8
 2013 0829 F5150000 		.4byte	.LASF234
 2014 082d 00       		.sleb128 0
 2015 082e 08       		.uleb128 0x8
 2016 082f 910A0000 		.4byte	.LASF235
 2017 0833 01       		.sleb128 1
 2018 0834 08       		.uleb128 0x8
 2019 0835 F60D0000 		.4byte	.LASF236
 2020 0839 02       		.sleb128 2
 2021 083a 08       		.uleb128 0x8
 2022 083b 22050000 		.4byte	.LASF237
 2023 083f 03       		.sleb128 3
 2024 0840 08       		.uleb128 0x8
 2025 0841 10030000 		.4byte	.LASF238
 2026 0845 04       		.sleb128 4
 2027 0846 08       		.uleb128 0x8
 2028 0847 7A0A0000 		.4byte	.LASF239
 2029 084b 05       		.sleb128 5
 2030 084c 08       		.uleb128 0x8
 2031 084d B90A0000 		.4byte	.LASF240
 2032 0851 06       		.sleb128 6
 2033 0852 08       		.uleb128 0x8
 2034 0853 3F120000 		.4byte	.LASF241
 2035 0857 07       		.sleb128 7
 2036 0858 08       		.uleb128 0x8
 2037 0859 8D0F0000 		.4byte	.LASF242
 2038 085d 08       		.sleb128 8
ARM GAS  C:\Users\Zachary\AppData\Local\Temp\ccNoimb2.s 			page 63


 2039 085e 08       		.uleb128 0x8
 2040 085f 00000000 		.4byte	.LASF243
 2041 0863 09       		.sleb128 9
 2042 0864 00       		.byte	0
 2043 0865 07       		.uleb128 0x7
 2044 0866 01       		.byte	0x1
 2045 0867 0A       		.byte	0xa
 2046 0868 1C       		.byte	0x1c
 2047 0869 8C080000 		.4byte	0x88c
 2048 086d 08       		.uleb128 0x8
 2049 086e C5190000 		.4byte	.LASF244
 2050 0872 00       		.sleb128 0
 2051 0873 08       		.uleb128 0x8
 2052 0874 32170000 		.4byte	.LASF245
 2053 0878 01       		.sleb128 1
 2054 0879 08       		.uleb128 0x8
 2055 087a 72040000 		.4byte	.LASF246
 2056 087e 02       		.sleb128 2
 2057 087f 08       		.uleb128 0x8
 2058 0880 0E0E0000 		.4byte	.LASF247
 2059 0884 03       		.sleb128 3
 2060 0885 08       		.uleb128 0x8
 2061 0886 7D150000 		.4byte	.LASF248
 2062 088a 04       		.sleb128 4
 2063 088b 00       		.byte	0
 2064 088c 07       		.uleb128 0x7
 2065 088d 01       		.byte	0x1
 2066 088e 0A       		.byte	0xa
 2067 088f 27       		.byte	0x27
 2068 0890 A7080000 		.4byte	0x8a7
 2069 0894 08       		.uleb128 0x8
 2070 0895 60010000 		.4byte	.LASF249
 2071 0899 00       		.sleb128 0
 2072 089a 08       		.uleb128 0x8
 2073 089b BF000000 		.4byte	.LASF250
 2074 089f 01       		.sleb128 1
 2075 08a0 08       		.uleb128 0x8
 2076 08a1 46100000 		.4byte	.LASF251
 2077 08a5 02       		.sleb128 2
 2078 08a6 00       		.byte	0
 2079 08a7 09       		.uleb128 0x9
 2080 08a8 01       		.byte	0x1
 2081 08a9 0B       		.byte	0xb
 2082 08aa 9505     		.2byte	0x595
 2083 08ac CF080000 		.4byte	0x8cf
 2084 08b0 08       		.uleb128 0x8
 2085 08b1 4B070000 		.4byte	.LASF252
 2086 08b5 00       		.sleb128 0
 2087 08b6 08       		.uleb128 0x8
 2088 08b7 630E0000 		.4byte	.LASF253
 2089 08bb 01       		.sleb128 1
 2090 08bc 08       		.uleb128 0x8
 2091 08bd FF1C0000 		.4byte	.LASF254
 2092 08c1 02       		.sleb128 2
 2093 08c2 08       		.uleb128 0x8
 2094 08c3 CB030000 		.4byte	.LASF255
 2095 08c7 03       		.sleb128 3
ARM GAS  C:\Users\Zachary\AppData\Local\Temp\ccNoimb2.s 			page 64


 2096 08c8 08       		.uleb128 0x8
 2097 08c9 B8180000 		.4byte	.LASF256
 2098 08cd 04       		.sleb128 4
 2099 08ce 00       		.byte	0
 2100 08cf 0A       		.uleb128 0xa
 2101 08d0 171A0000 		.4byte	.LASF257
 2102 08d4 0B       		.byte	0xb
 2103 08d5 A305     		.2byte	0x5a3
 2104 08d7 A7080000 		.4byte	0x8a7
 2105 08db 15       		.uleb128 0x15
 2106 08dc 43000000 		.4byte	.LASF260
 2107 08e0 01       		.byte	0x1
 2108 08e1 C0       		.byte	0xc0
 2109 08e2 00000000 		.4byte	.LFB2
 2110 08e6 C0000000 		.4byte	.LFE2-.LFB2
 2111 08ea 01       		.uleb128 0x1
 2112 08eb 9C       		.byte	0x9c
 2113 08ec 26090000 		.4byte	0x926
 2114 08f0 16       		.uleb128 0x16
 2115 08f1 59000000 		.4byte	.LASF262
 2116 08f5 01       		.byte	0x1
 2117 08f6 C0       		.byte	0xc0
 2118 08f7 26090000 		.4byte	0x926
 2119 08fb 02       		.uleb128 0x2
 2120 08fc 91       		.byte	0x91
 2121 08fd 64       		.sleb128 -28
 2122 08fe 17       		.uleb128 0x17
 2123 08ff 7C1C0000 		.4byte	.LASF258
 2124 0903 01       		.byte	0x1
 2125 0904 C2       		.byte	0xc2
 2126 0905 B5060000 		.4byte	0x6b5
 2127 0909 02       		.uleb128 0x2
 2128 090a 91       		.byte	0x91
 2129 090b 6F       		.sleb128 -17
 2130 090c 18       		.uleb128 0x18
 2131 090d 80000000 		.4byte	.LBB2
 2132 0911 2C000000 		.4byte	.LBE2-.LBB2
 2133 0915 19       		.uleb128 0x19
 2134 0916 17130000 		.4byte	.LASF259
 2135 091a 01       		.byte	0x1
 2136 091b 3101     		.2byte	0x131
 2137 091d C7070000 		.4byte	0x7c7
 2138 0921 02       		.uleb128 0x2
 2139 0922 91       		.byte	0x91
 2140 0923 68       		.sleb128 -24
 2141 0924 00       		.byte	0
 2142 0925 00       		.byte	0
 2143 0926 0F       		.uleb128 0xf
 2144 0927 04       		.byte	0x4
 2145 0928 F3070000 		.4byte	0x7f3
 2146 092c 1A       		.uleb128 0x1a
 2147 092d 27110000 		.4byte	.LASF261
 2148 0931 01       		.byte	0x1
 2149 0932 5101     		.2byte	0x151
 2150 0934 00000000 		.4byte	.LFB3
 2151 0938 30000000 		.4byte	.LFE3-.LFB3
 2152 093c 01       		.uleb128 0x1
ARM GAS  C:\Users\Zachary\AppData\Local\Temp\ccNoimb2.s 			page 65


 2153 093d 9C       		.byte	0x9c
 2154 093e 52090000 		.4byte	0x952
 2155 0942 1B       		.uleb128 0x1b
 2156 0943 59000000 		.4byte	.LASF262
 2157 0947 01       		.byte	0x1
 2158 0948 5101     		.2byte	0x151
 2159 094a 52090000 		.4byte	0x952
 2160 094e 02       		.uleb128 0x2
 2161 094f 91       		.byte	0x91
 2162 0950 74       		.sleb128 -12
 2163 0951 00       		.byte	0
 2164 0952 0F       		.uleb128 0xf
 2165 0953 04       		.byte	0x4
 2166 0954 58090000 		.4byte	0x958
 2167 0958 1C       		.uleb128 0x1c
 2168 0959 F1060000 		.4byte	0x6f1
 2169 095d 1D       		.uleb128 0x1d
 2170 095e 6C0F0000 		.4byte	.LASF264
 2171 0962 01       		.byte	0x1
 2172 0963 7C03     		.2byte	0x37c
 2173 0965 00000000 		.4byte	.LFB4
 2174 0969 18000000 		.4byte	.LFE4-.LFB4
 2175 096d 01       		.uleb128 0x1
 2176 096e 9C       		.byte	0x9c
 2177 096f 1E       		.uleb128 0x1e
 2178 0970 FD170000 		.4byte	.LASF263
 2179 0974 01       		.byte	0x1
 2180 0975 B603     		.2byte	0x3b6
 2181 0977 00000000 		.4byte	.LFB5
 2182 097b 0E000000 		.4byte	.LFE5-.LFB5
 2183 097f 01       		.uleb128 0x1
 2184 0980 9C       		.byte	0x9c
 2185 0981 95090000 		.4byte	0x995
 2186 0985 1B       		.uleb128 0x1b
 2187 0986 59000000 		.4byte	.LASF262
 2188 098a 01       		.byte	0x1
 2189 098b B603     		.2byte	0x3b6
 2190 098d 95090000 		.4byte	0x995
 2191 0991 02       		.uleb128 0x2
 2192 0992 91       		.byte	0x91
 2193 0993 74       		.sleb128 -12
 2194 0994 00       		.byte	0
 2195 0995 0F       		.uleb128 0xf
 2196 0996 04       		.byte	0x4
 2197 0997 9B090000 		.4byte	0x99b
 2198 099b 1C       		.uleb128 0x1c
 2199 099c F0030000 		.4byte	0x3f0
 2200 09a0 1D       		.uleb128 0x1d
 2201 09a1 0C0F0000 		.4byte	.LASF265
 2202 09a5 01       		.byte	0x1
 2203 09a6 F203     		.2byte	0x3f2
 2204 09a8 00000000 		.4byte	.LFB6
 2205 09ac 08000000 		.4byte	.LFE6-.LFB6
 2206 09b0 01       		.uleb128 0x1
 2207 09b1 9C       		.byte	0x9c
 2208 09b2 1F       		.uleb128 0x1f
 2209 09b3 B3130000 		.4byte	.LASF288
ARM GAS  C:\Users\Zachary\AppData\Local\Temp\ccNoimb2.s 			page 66


 2210 09b7 01       		.byte	0x1
 2211 09b8 1C04     		.2byte	0x41c
 2212 09ba 6B000000 		.4byte	0x6b
 2213 09be 00000000 		.4byte	.LFB7
 2214 09c2 60000000 		.4byte	.LFE7-.LFB7
 2215 09c6 01       		.uleb128 0x1
 2216 09c7 9C       		.byte	0x9c
 2217 09c8 F8090000 		.4byte	0x9f8
 2218 09cc 1B       		.uleb128 0x1b
 2219 09cd 9E0F0000 		.4byte	.LASF266
 2220 09d1 01       		.byte	0x1
 2221 09d2 1C04     		.2byte	0x41c
 2222 09d4 F8090000 		.4byte	0x9f8
 2223 09d8 02       		.uleb128 0x2
 2224 09d9 91       		.byte	0x91
 2225 09da 6C       		.sleb128 -20
 2226 09db 20       		.uleb128 0x20
 2227 09dc 6900     		.ascii	"i\000"
 2228 09de 01       		.byte	0x1
 2229 09df 1E04     		.2byte	0x41e
 2230 09e1 6B000000 		.4byte	0x6b
 2231 09e5 02       		.uleb128 0x2
 2232 09e6 91       		.byte	0x91
 2233 09e7 77       		.sleb128 -9
 2234 09e8 19       		.uleb128 0x19
 2235 09e9 85160000 		.4byte	.LASF267
 2236 09ed 01       		.byte	0x1
 2237 09ee 1F04     		.2byte	0x41f
 2238 09f0 6B000000 		.4byte	0x6b
 2239 09f4 02       		.uleb128 0x2
 2240 09f5 91       		.byte	0x91
 2241 09f6 76       		.sleb128 -10
 2242 09f7 00       		.byte	0
 2243 09f8 0F       		.uleb128 0xf
 2244 09f9 04       		.byte	0x4
 2245 09fa FE090000 		.4byte	0x9fe
 2246 09fe 1C       		.uleb128 0x1c
 2247 09ff C3030000 		.4byte	0x3c3
 2248 0a03 1E       		.uleb128 0x1e
 2249 0a04 17190000 		.4byte	.LASF268
 2250 0a08 01       		.byte	0x1
 2251 0a09 4204     		.2byte	0x442
 2252 0a0b 00000000 		.4byte	.LFB8
 2253 0a0f 12000000 		.4byte	.LFE8-.LFB8
 2254 0a13 01       		.uleb128 0x1
 2255 0a14 9C       		.byte	0x9c
 2256 0a15 290A0000 		.4byte	0xa29
 2257 0a19 1B       		.uleb128 0x1b
 2258 0a1a E91A0000 		.4byte	.LASF269
 2259 0a1e 01       		.byte	0x1
 2260 0a1f 4204     		.2byte	0x442
 2261 0a21 76000000 		.4byte	0x76
 2262 0a25 02       		.uleb128 0x2
 2263 0a26 91       		.byte	0x91
 2264 0a27 76       		.sleb128 -10
 2265 0a28 00       		.byte	0
 2266 0a29 1E       		.uleb128 0x1e
ARM GAS  C:\Users\Zachary\AppData\Local\Temp\ccNoimb2.s 			page 67


 2267 0a2a 000B0000 		.4byte	.LASF270
 2268 0a2e 01       		.byte	0x1
 2269 0a2f 5E04     		.2byte	0x45e
 2270 0a31 00000000 		.4byte	.LFB9
 2271 0a35 0E000000 		.4byte	.LFE9-.LFB9
 2272 0a39 01       		.uleb128 0x1
 2273 0a3a 9C       		.byte	0x9c
 2274 0a3b 4F0A0000 		.4byte	0xa4f
 2275 0a3f 1B       		.uleb128 0x1b
 2276 0a40 59000000 		.4byte	.LASF262
 2277 0a44 01       		.byte	0x1
 2278 0a45 5E04     		.2byte	0x45e
 2279 0a47 4F0A0000 		.4byte	0xa4f
 2280 0a4b 02       		.uleb128 0x2
 2281 0a4c 91       		.byte	0x91
 2282 0a4d 74       		.sleb128 -12
 2283 0a4e 00       		.byte	0
 2284 0a4f 0F       		.uleb128 0xf
 2285 0a50 04       		.byte	0x4
 2286 0a51 550A0000 		.4byte	0xa55
 2287 0a55 1C       		.uleb128 0x1c
 2288 0a56 34050000 		.4byte	0x534
 2289 0a5a 21       		.uleb128 0x21
 2290 0a5b BC060000 		.4byte	.LASF289
 2291 0a5f 01       		.byte	0x1
 2292 0a60 7A04     		.2byte	0x47a
 2293 0a62 00000000 		.4byte	.LFB10
 2294 0a66 BC020000 		.4byte	.LFE10-.LFB10
 2295 0a6a 01       		.uleb128 0x1
 2296 0a6b 9C       		.byte	0x9c
 2297 0a6c C50A0000 		.4byte	0xac5
 2298 0a70 1B       		.uleb128 0x1b
 2299 0a71 811B0000 		.4byte	.LASF271
 2300 0a75 01       		.byte	0x1
 2301 0a76 7A04     		.2byte	0x47a
 2302 0a78 6B000000 		.4byte	0x6b
 2303 0a7c 02       		.uleb128 0x2
 2304 0a7d 91       		.byte	0x91
 2305 0a7e 6F       		.sleb128 -17
 2306 0a7f 1B       		.uleb128 0x1b
 2307 0a80 59000000 		.4byte	.LASF262
 2308 0a84 01       		.byte	0x1
 2309 0a85 7A04     		.2byte	0x47a
 2310 0a87 AD000000 		.4byte	0xad
 2311 0a8b 02       		.uleb128 0x2
 2312 0a8c 91       		.byte	0x91
 2313 0a8d 68       		.sleb128 -24
 2314 0a8e 22       		.uleb128 0x22
 2315 0a8f 32000000 		.4byte	.LBB3
 2316 0a93 34000000 		.4byte	.LBE3-.LBB3
 2317 0a97 AB0A0000 		.4byte	0xaab
 2318 0a9b 19       		.uleb128 0x19
 2319 0a9c E9160000 		.4byte	.LASF272
 2320 0aa0 01       		.byte	0x1
 2321 0aa1 8704     		.2byte	0x487
 2322 0aa3 83030000 		.4byte	0x383
 2323 0aa7 02       		.uleb128 0x2
ARM GAS  C:\Users\Zachary\AppData\Local\Temp\ccNoimb2.s 			page 68


 2324 0aa8 91       		.byte	0x91
 2325 0aa9 74       		.sleb128 -12
 2326 0aaa 00       		.byte	0
 2327 0aab 18       		.uleb128 0x18
 2328 0aac 06020000 		.4byte	.LBB4
 2329 0ab0 3A000000 		.4byte	.LBE4-.LBB4
 2330 0ab4 19       		.uleb128 0x19
 2331 0ab5 7C0E0000 		.4byte	.LASF273
 2332 0ab9 01       		.byte	0x1
 2333 0aba 5705     		.2byte	0x557
 2334 0abc 76000000 		.4byte	0x76
 2335 0ac0 02       		.uleb128 0x2
 2336 0ac1 91       		.byte	0x91
 2337 0ac2 76       		.sleb128 -10
 2338 0ac3 00       		.byte	0
 2339 0ac4 00       		.byte	0
 2340 0ac5 23       		.uleb128 0x23
 2341 0ac6 46170000 		.4byte	.LASF274
 2342 0aca 08       		.byte	0x8
 2343 0acb 6C01     		.2byte	0x16c
 2344 0acd FE070000 		.4byte	0x7fe
 2345 0ad1 24       		.uleb128 0x24
 2346 0ad2 D3090000 		.4byte	.LASF275
 2347 0ad6 01       		.byte	0x1
 2348 0ad7 41       		.byte	0x41
 2349 0ad8 A1000000 		.4byte	0xa1
 2350 0adc 05       		.uleb128 0x5
 2351 0add 03       		.byte	0x3
 2352 0ade 00000000 		.4byte	cyBle_eventHandlerFlag
 2353 0ae2 23       		.uleb128 0x23
 2354 0ae3 39050000 		.4byte	.LASF276
 2355 0ae7 08       		.byte	0x8
 2356 0ae8 6F01     		.2byte	0x16f
 2357 0aea C3030000 		.4byte	0x3c3
 2358 0aee 23       		.uleb128 0x23
 2359 0aef 630B0000 		.4byte	.LASF277
 2360 0af3 08       		.byte	0x8
 2361 0af4 7001     		.2byte	0x170
 2362 0af6 FA0A0000 		.4byte	0xafa
 2363 0afa 0F       		.uleb128 0xf
 2364 0afb 04       		.byte	0x4
 2365 0afc C3030000 		.4byte	0x3c3
 2366 0b00 24       		.uleb128 0x24
 2367 0b01 FF180000 		.4byte	.LASF278
 2368 0b05 01       		.byte	0x1
 2369 0b06 A7       		.byte	0xa7
 2370 0b07 E4040000 		.4byte	0x4e4
 2371 0b0b 05       		.uleb128 0x5
 2372 0b0c 03       		.byte	0x3
 2373 0b0d 00000000 		.4byte	cyBle_authInfo
 2374 0b11 25       		.uleb128 0x25
 2375 0b12 4C1B0000 		.4byte	.LASF279
 2376 0b16 0C       		.byte	0xc
 2377 0b17 B9       		.byte	0xb9
 2378 0b18 B3030000 		.4byte	0x3b3
 2379 0b1c 0D       		.uleb128 0xd
 2380 0b1d 6B000000 		.4byte	0x6b
ARM GAS  C:\Users\Zachary\AppData\Local\Temp\ccNoimb2.s 			page 69


 2381 0b21 320B0000 		.4byte	0xb32
 2382 0b25 0E       		.uleb128 0xe
 2383 0b26 A6000000 		.4byte	0xa6
 2384 0b2a 04       		.byte	0x4
 2385 0b2b 0E       		.uleb128 0xe
 2386 0b2c A6000000 		.4byte	0xa6
 2387 0b30 05       		.byte	0x5
 2388 0b31 00       		.byte	0
 2389 0b32 25       		.uleb128 0x25
 2390 0b33 FA000000 		.4byte	.LASF280
 2391 0b37 0C       		.byte	0xc
 2392 0b38 BA       		.byte	0xba
 2393 0b39 3D0B0000 		.4byte	0xb3d
 2394 0b3d 1C       		.uleb128 0x1c
 2395 0b3e 1C0B0000 		.4byte	0xb1c
 2396 0b42 23       		.uleb128 0x23
 2397 0b43 92180000 		.4byte	.LASF281
 2398 0b47 0B       		.byte	0xb
 2399 0b48 2207     		.2byte	0x722
 2400 0b4a CF080000 		.4byte	0x8cf
 2401 0b4e 24       		.uleb128 0x24
 2402 0b4f A80A0000 		.4byte	.LASF282
 2403 0b53 01       		.byte	0x1
 2404 0b54 3F       		.byte	0x3f
 2405 0b55 F1060000 		.4byte	0x6f1
 2406 0b59 05       		.uleb128 0x5
 2407 0b5a 03       		.byte	0x3
 2408 0b5b 00000000 		.4byte	cyBle_connHandle
 2409 0b5f 24       		.uleb128 0x24
 2410 0b60 520E0000 		.4byte	.LASF283
 2411 0b64 01       		.byte	0x1
 2412 0b65 42       		.byte	0x42
 2413 0b66 A1000000 		.4byte	0xa1
 2414 0b6a 05       		.uleb128 0x5
 2415 0b6b 03       		.byte	0x3
 2416 0b6c 00000000 		.4byte	cyBle_busyStatus
 2417 0b70 24       		.uleb128 0x24
 2418 0b71 9B1A0000 		.4byte	.LASF284
 2419 0b75 01       		.byte	0x1
 2420 0b76 45       		.byte	0x45
 2421 0b77 6B000000 		.4byte	0x6b
 2422 0b7b 05       		.uleb128 0x5
 2423 0b7c 03       		.byte	0x3
 2424 0b7d 00000000 		.4byte	cyBle_advertisingIntervalType
 2425 0b81 00       		.byte	0
 2426              		.section	.debug_abbrev,"",%progbits
 2427              	.Ldebug_abbrev0:
 2428 0000 01       		.uleb128 0x1
 2429 0001 11       		.uleb128 0x11
 2430 0002 01       		.byte	0x1
 2431 0003 25       		.uleb128 0x25
 2432 0004 0E       		.uleb128 0xe
 2433 0005 13       		.uleb128 0x13
 2434 0006 0B       		.uleb128 0xb
 2435 0007 03       		.uleb128 0x3
 2436 0008 0E       		.uleb128 0xe
 2437 0009 1B       		.uleb128 0x1b
ARM GAS  C:\Users\Zachary\AppData\Local\Temp\ccNoimb2.s 			page 70


 2438 000a 0E       		.uleb128 0xe
 2439 000b 55       		.uleb128 0x55
 2440 000c 17       		.uleb128 0x17
 2441 000d 11       		.uleb128 0x11
 2442 000e 01       		.uleb128 0x1
 2443 000f 10       		.uleb128 0x10
 2444 0010 17       		.uleb128 0x17
 2445 0011 00       		.byte	0
 2446 0012 00       		.byte	0
 2447 0013 02       		.uleb128 0x2
 2448 0014 24       		.uleb128 0x24
 2449 0015 00       		.byte	0
 2450 0016 0B       		.uleb128 0xb
 2451 0017 0B       		.uleb128 0xb
 2452 0018 3E       		.uleb128 0x3e
 2453 0019 0B       		.uleb128 0xb
 2454 001a 03       		.uleb128 0x3
 2455 001b 0E       		.uleb128 0xe
 2456 001c 00       		.byte	0
 2457 001d 00       		.byte	0
 2458 001e 03       		.uleb128 0x3
 2459 001f 24       		.uleb128 0x24
 2460 0020 00       		.byte	0
 2461 0021 0B       		.uleb128 0xb
 2462 0022 0B       		.uleb128 0xb
 2463 0023 3E       		.uleb128 0x3e
 2464 0024 0B       		.uleb128 0xb
 2465 0025 03       		.uleb128 0x3
 2466 0026 08       		.uleb128 0x8
 2467 0027 00       		.byte	0
 2468 0028 00       		.byte	0
 2469 0029 04       		.uleb128 0x4
 2470 002a 16       		.uleb128 0x16
 2471 002b 00       		.byte	0
 2472 002c 03       		.uleb128 0x3
 2473 002d 0E       		.uleb128 0xe
 2474 002e 3A       		.uleb128 0x3a
 2475 002f 0B       		.uleb128 0xb
 2476 0030 3B       		.uleb128 0x3b
 2477 0031 0B       		.uleb128 0xb
 2478 0032 49       		.uleb128 0x49
 2479 0033 13       		.uleb128 0x13
 2480 0034 00       		.byte	0
 2481 0035 00       		.byte	0
 2482 0036 05       		.uleb128 0x5
 2483 0037 35       		.uleb128 0x35
 2484 0038 00       		.byte	0
 2485 0039 49       		.uleb128 0x49
 2486 003a 13       		.uleb128 0x13
 2487 003b 00       		.byte	0
 2488 003c 00       		.byte	0
 2489 003d 06       		.uleb128 0x6
 2490 003e 0F       		.uleb128 0xf
 2491 003f 00       		.byte	0
 2492 0040 0B       		.uleb128 0xb
 2493 0041 0B       		.uleb128 0xb
 2494 0042 00       		.byte	0
ARM GAS  C:\Users\Zachary\AppData\Local\Temp\ccNoimb2.s 			page 71


 2495 0043 00       		.byte	0
 2496 0044 07       		.uleb128 0x7
 2497 0045 04       		.uleb128 0x4
 2498 0046 01       		.byte	0x1
 2499 0047 0B       		.uleb128 0xb
 2500 0048 0B       		.uleb128 0xb
 2501 0049 3A       		.uleb128 0x3a
 2502 004a 0B       		.uleb128 0xb
 2503 004b 3B       		.uleb128 0x3b
 2504 004c 0B       		.uleb128 0xb
 2505 004d 01       		.uleb128 0x1
 2506 004e 13       		.uleb128 0x13
 2507 004f 00       		.byte	0
 2508 0050 00       		.byte	0
 2509 0051 08       		.uleb128 0x8
 2510 0052 28       		.uleb128 0x28
 2511 0053 00       		.byte	0
 2512 0054 03       		.uleb128 0x3
 2513 0055 0E       		.uleb128 0xe
 2514 0056 1C       		.uleb128 0x1c
 2515 0057 0D       		.uleb128 0xd
 2516 0058 00       		.byte	0
 2517 0059 00       		.byte	0
 2518 005a 09       		.uleb128 0x9
 2519 005b 04       		.uleb128 0x4
 2520 005c 01       		.byte	0x1
 2521 005d 0B       		.uleb128 0xb
 2522 005e 0B       		.uleb128 0xb
 2523 005f 3A       		.uleb128 0x3a
 2524 0060 0B       		.uleb128 0xb
 2525 0061 3B       		.uleb128 0x3b
 2526 0062 05       		.uleb128 0x5
 2527 0063 01       		.uleb128 0x1
 2528 0064 13       		.uleb128 0x13
 2529 0065 00       		.byte	0
 2530 0066 00       		.byte	0
 2531 0067 0A       		.uleb128 0xa
 2532 0068 16       		.uleb128 0x16
 2533 0069 00       		.byte	0
 2534 006a 03       		.uleb128 0x3
 2535 006b 0E       		.uleb128 0xe
 2536 006c 3A       		.uleb128 0x3a
 2537 006d 0B       		.uleb128 0xb
 2538 006e 3B       		.uleb128 0x3b
 2539 006f 05       		.uleb128 0x5
 2540 0070 49       		.uleb128 0x49
 2541 0071 13       		.uleb128 0x13
 2542 0072 00       		.byte	0
 2543 0073 00       		.byte	0
 2544 0074 0B       		.uleb128 0xb
 2545 0075 13       		.uleb128 0x13
 2546 0076 01       		.byte	0x1
 2547 0077 0B       		.uleb128 0xb
 2548 0078 0B       		.uleb128 0xb
 2549 0079 3A       		.uleb128 0x3a
 2550 007a 0B       		.uleb128 0xb
 2551 007b 3B       		.uleb128 0x3b
ARM GAS  C:\Users\Zachary\AppData\Local\Temp\ccNoimb2.s 			page 72


 2552 007c 05       		.uleb128 0x5
 2553 007d 01       		.uleb128 0x1
 2554 007e 13       		.uleb128 0x13
 2555 007f 00       		.byte	0
 2556 0080 00       		.byte	0
 2557 0081 0C       		.uleb128 0xc
 2558 0082 0D       		.uleb128 0xd
 2559 0083 00       		.byte	0
 2560 0084 03       		.uleb128 0x3
 2561 0085 0E       		.uleb128 0xe
 2562 0086 3A       		.uleb128 0x3a
 2563 0087 0B       		.uleb128 0xb
 2564 0088 3B       		.uleb128 0x3b
 2565 0089 05       		.uleb128 0x5
 2566 008a 49       		.uleb128 0x49
 2567 008b 13       		.uleb128 0x13
 2568 008c 38       		.uleb128 0x38
 2569 008d 0B       		.uleb128 0xb
 2570 008e 00       		.byte	0
 2571 008f 00       		.byte	0
 2572 0090 0D       		.uleb128 0xd
 2573 0091 01       		.uleb128 0x1
 2574 0092 01       		.byte	0x1
 2575 0093 49       		.uleb128 0x49
 2576 0094 13       		.uleb128 0x13
 2577 0095 01       		.uleb128 0x1
 2578 0096 13       		.uleb128 0x13
 2579 0097 00       		.byte	0
 2580 0098 00       		.byte	0
 2581 0099 0E       		.uleb128 0xe
 2582 009a 21       		.uleb128 0x21
 2583 009b 00       		.byte	0
 2584 009c 49       		.uleb128 0x49
 2585 009d 13       		.uleb128 0x13
 2586 009e 2F       		.uleb128 0x2f
 2587 009f 0B       		.uleb128 0xb
 2588 00a0 00       		.byte	0
 2589 00a1 00       		.byte	0
 2590 00a2 0F       		.uleb128 0xf
 2591 00a3 0F       		.uleb128 0xf
 2592 00a4 00       		.byte	0
 2593 00a5 0B       		.uleb128 0xb
 2594 00a6 0B       		.uleb128 0xb
 2595 00a7 49       		.uleb128 0x49
 2596 00a8 13       		.uleb128 0x13
 2597 00a9 00       		.byte	0
 2598 00aa 00       		.byte	0
 2599 00ab 10       		.uleb128 0x10
 2600 00ac 0D       		.uleb128 0xd
 2601 00ad 00       		.byte	0
 2602 00ae 03       		.uleb128 0x3
 2603 00af 08       		.uleb128 0x8
 2604 00b0 3A       		.uleb128 0x3a
 2605 00b1 0B       		.uleb128 0xb
 2606 00b2 3B       		.uleb128 0x3b
 2607 00b3 05       		.uleb128 0x5
 2608 00b4 49       		.uleb128 0x49
ARM GAS  C:\Users\Zachary\AppData\Local\Temp\ccNoimb2.s 			page 73


 2609 00b5 13       		.uleb128 0x13
 2610 00b6 38       		.uleb128 0x38
 2611 00b7 0B       		.uleb128 0xb
 2612 00b8 00       		.byte	0
 2613 00b9 00       		.byte	0
 2614 00ba 11       		.uleb128 0x11
 2615 00bb 13       		.uleb128 0x13
 2616 00bc 01       		.byte	0x1
 2617 00bd 0B       		.uleb128 0xb
 2618 00be 0B       		.uleb128 0xb
 2619 00bf 3A       		.uleb128 0x3a
 2620 00c0 0B       		.uleb128 0xb
 2621 00c1 3B       		.uleb128 0x3b
 2622 00c2 0B       		.uleb128 0xb
 2623 00c3 01       		.uleb128 0x1
 2624 00c4 13       		.uleb128 0x13
 2625 00c5 00       		.byte	0
 2626 00c6 00       		.byte	0
 2627 00c7 12       		.uleb128 0x12
 2628 00c8 0D       		.uleb128 0xd
 2629 00c9 00       		.byte	0
 2630 00ca 03       		.uleb128 0x3
 2631 00cb 0E       		.uleb128 0xe
 2632 00cc 3A       		.uleb128 0x3a
 2633 00cd 0B       		.uleb128 0xb
 2634 00ce 3B       		.uleb128 0x3b
 2635 00cf 0B       		.uleb128 0xb
 2636 00d0 49       		.uleb128 0x49
 2637 00d1 13       		.uleb128 0x13
 2638 00d2 38       		.uleb128 0x38
 2639 00d3 0B       		.uleb128 0xb
 2640 00d4 00       		.byte	0
 2641 00d5 00       		.byte	0
 2642 00d6 13       		.uleb128 0x13
 2643 00d7 15       		.uleb128 0x15
 2644 00d8 01       		.byte	0x1
 2645 00d9 27       		.uleb128 0x27
 2646 00da 19       		.uleb128 0x19
 2647 00db 01       		.uleb128 0x1
 2648 00dc 13       		.uleb128 0x13
 2649 00dd 00       		.byte	0
 2650 00de 00       		.byte	0
 2651 00df 14       		.uleb128 0x14
 2652 00e0 05       		.uleb128 0x5
 2653 00e1 00       		.byte	0
 2654 00e2 49       		.uleb128 0x49
 2655 00e3 13       		.uleb128 0x13
 2656 00e4 00       		.byte	0
 2657 00e5 00       		.byte	0
 2658 00e6 15       		.uleb128 0x15
 2659 00e7 2E       		.uleb128 0x2e
 2660 00e8 01       		.byte	0x1
 2661 00e9 03       		.uleb128 0x3
 2662 00ea 0E       		.uleb128 0xe
 2663 00eb 3A       		.uleb128 0x3a
 2664 00ec 0B       		.uleb128 0xb
 2665 00ed 3B       		.uleb128 0x3b
ARM GAS  C:\Users\Zachary\AppData\Local\Temp\ccNoimb2.s 			page 74


 2666 00ee 0B       		.uleb128 0xb
 2667 00ef 27       		.uleb128 0x27
 2668 00f0 19       		.uleb128 0x19
 2669 00f1 11       		.uleb128 0x11
 2670 00f2 01       		.uleb128 0x1
 2671 00f3 12       		.uleb128 0x12
 2672 00f4 06       		.uleb128 0x6
 2673 00f5 40       		.uleb128 0x40
 2674 00f6 18       		.uleb128 0x18
 2675 00f7 9642     		.uleb128 0x2116
 2676 00f9 19       		.uleb128 0x19
 2677 00fa 01       		.uleb128 0x1
 2678 00fb 13       		.uleb128 0x13
 2679 00fc 00       		.byte	0
 2680 00fd 00       		.byte	0
 2681 00fe 16       		.uleb128 0x16
 2682 00ff 05       		.uleb128 0x5
 2683 0100 00       		.byte	0
 2684 0101 03       		.uleb128 0x3
 2685 0102 0E       		.uleb128 0xe
 2686 0103 3A       		.uleb128 0x3a
 2687 0104 0B       		.uleb128 0xb
 2688 0105 3B       		.uleb128 0x3b
 2689 0106 0B       		.uleb128 0xb
 2690 0107 49       		.uleb128 0x49
 2691 0108 13       		.uleb128 0x13
 2692 0109 02       		.uleb128 0x2
 2693 010a 18       		.uleb128 0x18
 2694 010b 00       		.byte	0
 2695 010c 00       		.byte	0
 2696 010d 17       		.uleb128 0x17
 2697 010e 34       		.uleb128 0x34
 2698 010f 00       		.byte	0
 2699 0110 03       		.uleb128 0x3
 2700 0111 0E       		.uleb128 0xe
 2701 0112 3A       		.uleb128 0x3a
 2702 0113 0B       		.uleb128 0xb
 2703 0114 3B       		.uleb128 0x3b
 2704 0115 0B       		.uleb128 0xb
 2705 0116 49       		.uleb128 0x49
 2706 0117 13       		.uleb128 0x13
 2707 0118 02       		.uleb128 0x2
 2708 0119 18       		.uleb128 0x18
 2709 011a 00       		.byte	0
 2710 011b 00       		.byte	0
 2711 011c 18       		.uleb128 0x18
 2712 011d 0B       		.uleb128 0xb
 2713 011e 01       		.byte	0x1
 2714 011f 11       		.uleb128 0x11
 2715 0120 01       		.uleb128 0x1
 2716 0121 12       		.uleb128 0x12
 2717 0122 06       		.uleb128 0x6
 2718 0123 00       		.byte	0
 2719 0124 00       		.byte	0
 2720 0125 19       		.uleb128 0x19
 2721 0126 34       		.uleb128 0x34
 2722 0127 00       		.byte	0
ARM GAS  C:\Users\Zachary\AppData\Local\Temp\ccNoimb2.s 			page 75


 2723 0128 03       		.uleb128 0x3
 2724 0129 0E       		.uleb128 0xe
 2725 012a 3A       		.uleb128 0x3a
 2726 012b 0B       		.uleb128 0xb
 2727 012c 3B       		.uleb128 0x3b
 2728 012d 05       		.uleb128 0x5
 2729 012e 49       		.uleb128 0x49
 2730 012f 13       		.uleb128 0x13
 2731 0130 02       		.uleb128 0x2
 2732 0131 18       		.uleb128 0x18
 2733 0132 00       		.byte	0
 2734 0133 00       		.byte	0
 2735 0134 1A       		.uleb128 0x1a
 2736 0135 2E       		.uleb128 0x2e
 2737 0136 01       		.byte	0x1
 2738 0137 03       		.uleb128 0x3
 2739 0138 0E       		.uleb128 0xe
 2740 0139 3A       		.uleb128 0x3a
 2741 013a 0B       		.uleb128 0xb
 2742 013b 3B       		.uleb128 0x3b
 2743 013c 05       		.uleb128 0x5
 2744 013d 27       		.uleb128 0x27
 2745 013e 19       		.uleb128 0x19
 2746 013f 11       		.uleb128 0x11
 2747 0140 01       		.uleb128 0x1
 2748 0141 12       		.uleb128 0x12
 2749 0142 06       		.uleb128 0x6
 2750 0143 40       		.uleb128 0x40
 2751 0144 18       		.uleb128 0x18
 2752 0145 9642     		.uleb128 0x2116
 2753 0147 19       		.uleb128 0x19
 2754 0148 01       		.uleb128 0x1
 2755 0149 13       		.uleb128 0x13
 2756 014a 00       		.byte	0
 2757 014b 00       		.byte	0
 2758 014c 1B       		.uleb128 0x1b
 2759 014d 05       		.uleb128 0x5
 2760 014e 00       		.byte	0
 2761 014f 03       		.uleb128 0x3
 2762 0150 0E       		.uleb128 0xe
 2763 0151 3A       		.uleb128 0x3a
 2764 0152 0B       		.uleb128 0xb
 2765 0153 3B       		.uleb128 0x3b
 2766 0154 05       		.uleb128 0x5
 2767 0155 49       		.uleb128 0x49
 2768 0156 13       		.uleb128 0x13
 2769 0157 02       		.uleb128 0x2
 2770 0158 18       		.uleb128 0x18
 2771 0159 00       		.byte	0
 2772 015a 00       		.byte	0
 2773 015b 1C       		.uleb128 0x1c
 2774 015c 26       		.uleb128 0x26
 2775 015d 00       		.byte	0
 2776 015e 49       		.uleb128 0x49
 2777 015f 13       		.uleb128 0x13
 2778 0160 00       		.byte	0
 2779 0161 00       		.byte	0
ARM GAS  C:\Users\Zachary\AppData\Local\Temp\ccNoimb2.s 			page 76


 2780 0162 1D       		.uleb128 0x1d
 2781 0163 2E       		.uleb128 0x2e
 2782 0164 00       		.byte	0
 2783 0165 03       		.uleb128 0x3
 2784 0166 0E       		.uleb128 0xe
 2785 0167 3A       		.uleb128 0x3a
 2786 0168 0B       		.uleb128 0xb
 2787 0169 3B       		.uleb128 0x3b
 2788 016a 05       		.uleb128 0x5
 2789 016b 27       		.uleb128 0x27
 2790 016c 19       		.uleb128 0x19
 2791 016d 11       		.uleb128 0x11
 2792 016e 01       		.uleb128 0x1
 2793 016f 12       		.uleb128 0x12
 2794 0170 06       		.uleb128 0x6
 2795 0171 40       		.uleb128 0x40
 2796 0172 18       		.uleb128 0x18
 2797 0173 9742     		.uleb128 0x2117
 2798 0175 19       		.uleb128 0x19
 2799 0176 00       		.byte	0
 2800 0177 00       		.byte	0
 2801 0178 1E       		.uleb128 0x1e
 2802 0179 2E       		.uleb128 0x2e
 2803 017a 01       		.byte	0x1
 2804 017b 03       		.uleb128 0x3
 2805 017c 0E       		.uleb128 0xe
 2806 017d 3A       		.uleb128 0x3a
 2807 017e 0B       		.uleb128 0xb
 2808 017f 3B       		.uleb128 0x3b
 2809 0180 05       		.uleb128 0x5
 2810 0181 27       		.uleb128 0x27
 2811 0182 19       		.uleb128 0x19
 2812 0183 11       		.uleb128 0x11
 2813 0184 01       		.uleb128 0x1
 2814 0185 12       		.uleb128 0x12
 2815 0186 06       		.uleb128 0x6
 2816 0187 40       		.uleb128 0x40
 2817 0188 18       		.uleb128 0x18
 2818 0189 9742     		.uleb128 0x2117
 2819 018b 19       		.uleb128 0x19
 2820 018c 01       		.uleb128 0x1
 2821 018d 13       		.uleb128 0x13
 2822 018e 00       		.byte	0
 2823 018f 00       		.byte	0
 2824 0190 1F       		.uleb128 0x1f
 2825 0191 2E       		.uleb128 0x2e
 2826 0192 01       		.byte	0x1
 2827 0193 03       		.uleb128 0x3
 2828 0194 0E       		.uleb128 0xe
 2829 0195 3A       		.uleb128 0x3a
 2830 0196 0B       		.uleb128 0xb
 2831 0197 3B       		.uleb128 0x3b
 2832 0198 05       		.uleb128 0x5
 2833 0199 27       		.uleb128 0x27
 2834 019a 19       		.uleb128 0x19
 2835 019b 49       		.uleb128 0x49
 2836 019c 13       		.uleb128 0x13
ARM GAS  C:\Users\Zachary\AppData\Local\Temp\ccNoimb2.s 			page 77


 2837 019d 11       		.uleb128 0x11
 2838 019e 01       		.uleb128 0x1
 2839 019f 12       		.uleb128 0x12
 2840 01a0 06       		.uleb128 0x6
 2841 01a1 40       		.uleb128 0x40
 2842 01a2 18       		.uleb128 0x18
 2843 01a3 9742     		.uleb128 0x2117
 2844 01a5 19       		.uleb128 0x19
 2845 01a6 01       		.uleb128 0x1
 2846 01a7 13       		.uleb128 0x13
 2847 01a8 00       		.byte	0
 2848 01a9 00       		.byte	0
 2849 01aa 20       		.uleb128 0x20
 2850 01ab 34       		.uleb128 0x34
 2851 01ac 00       		.byte	0
 2852 01ad 03       		.uleb128 0x3
 2853 01ae 08       		.uleb128 0x8
 2854 01af 3A       		.uleb128 0x3a
 2855 01b0 0B       		.uleb128 0xb
 2856 01b1 3B       		.uleb128 0x3b
 2857 01b2 05       		.uleb128 0x5
 2858 01b3 49       		.uleb128 0x49
 2859 01b4 13       		.uleb128 0x13
 2860 01b5 02       		.uleb128 0x2
 2861 01b6 18       		.uleb128 0x18
 2862 01b7 00       		.byte	0
 2863 01b8 00       		.byte	0
 2864 01b9 21       		.uleb128 0x21
 2865 01ba 2E       		.uleb128 0x2e
 2866 01bb 01       		.byte	0x1
 2867 01bc 3F       		.uleb128 0x3f
 2868 01bd 19       		.uleb128 0x19
 2869 01be 03       		.uleb128 0x3
 2870 01bf 0E       		.uleb128 0xe
 2871 01c0 3A       		.uleb128 0x3a
 2872 01c1 0B       		.uleb128 0xb
 2873 01c2 3B       		.uleb128 0x3b
 2874 01c3 05       		.uleb128 0x5
 2875 01c4 27       		.uleb128 0x27
 2876 01c5 19       		.uleb128 0x19
 2877 01c6 11       		.uleb128 0x11
 2878 01c7 01       		.uleb128 0x1
 2879 01c8 12       		.uleb128 0x12
 2880 01c9 06       		.uleb128 0x6
 2881 01ca 40       		.uleb128 0x40
 2882 01cb 18       		.uleb128 0x18
 2883 01cc 9642     		.uleb128 0x2116
 2884 01ce 19       		.uleb128 0x19
 2885 01cf 01       		.uleb128 0x1
 2886 01d0 13       		.uleb128 0x13
 2887 01d1 00       		.byte	0
 2888 01d2 00       		.byte	0
 2889 01d3 22       		.uleb128 0x22
 2890 01d4 0B       		.uleb128 0xb
 2891 01d5 01       		.byte	0x1
 2892 01d6 11       		.uleb128 0x11
 2893 01d7 01       		.uleb128 0x1
ARM GAS  C:\Users\Zachary\AppData\Local\Temp\ccNoimb2.s 			page 78


 2894 01d8 12       		.uleb128 0x12
 2895 01d9 06       		.uleb128 0x6
 2896 01da 01       		.uleb128 0x1
 2897 01db 13       		.uleb128 0x13
 2898 01dc 00       		.byte	0
 2899 01dd 00       		.byte	0
 2900 01de 23       		.uleb128 0x23
 2901 01df 34       		.uleb128 0x34
 2902 01e0 00       		.byte	0
 2903 01e1 03       		.uleb128 0x3
 2904 01e2 0E       		.uleb128 0xe
 2905 01e3 3A       		.uleb128 0x3a
 2906 01e4 0B       		.uleb128 0xb
 2907 01e5 3B       		.uleb128 0x3b
 2908 01e6 05       		.uleb128 0x5
 2909 01e7 49       		.uleb128 0x49
 2910 01e8 13       		.uleb128 0x13
 2911 01e9 3F       		.uleb128 0x3f
 2912 01ea 19       		.uleb128 0x19
 2913 01eb 3C       		.uleb128 0x3c
 2914 01ec 19       		.uleb128 0x19
 2915 01ed 00       		.byte	0
 2916 01ee 00       		.byte	0
 2917 01ef 24       		.uleb128 0x24
 2918 01f0 34       		.uleb128 0x34
 2919 01f1 00       		.byte	0
 2920 01f2 03       		.uleb128 0x3
 2921 01f3 0E       		.uleb128 0xe
 2922 01f4 3A       		.uleb128 0x3a
 2923 01f5 0B       		.uleb128 0xb
 2924 01f6 3B       		.uleb128 0x3b
 2925 01f7 0B       		.uleb128 0xb
 2926 01f8 49       		.uleb128 0x49
 2927 01f9 13       		.uleb128 0x13
 2928 01fa 3F       		.uleb128 0x3f
 2929 01fb 19       		.uleb128 0x19
 2930 01fc 02       		.uleb128 0x2
 2931 01fd 18       		.uleb128 0x18
 2932 01fe 00       		.byte	0
 2933 01ff 00       		.byte	0
 2934 0200 25       		.uleb128 0x25
 2935 0201 34       		.uleb128 0x34
 2936 0202 00       		.byte	0
 2937 0203 03       		.uleb128 0x3
 2938 0204 0E       		.uleb128 0xe
 2939 0205 3A       		.uleb128 0x3a
 2940 0206 0B       		.uleb128 0xb
 2941 0207 3B       		.uleb128 0x3b
 2942 0208 0B       		.uleb128 0xb
 2943 0209 49       		.uleb128 0x49
 2944 020a 13       		.uleb128 0x13
 2945 020b 3F       		.uleb128 0x3f
 2946 020c 19       		.uleb128 0x19
 2947 020d 3C       		.uleb128 0x3c
 2948 020e 19       		.uleb128 0x19
 2949 020f 00       		.byte	0
 2950 0210 00       		.byte	0
ARM GAS  C:\Users\Zachary\AppData\Local\Temp\ccNoimb2.s 			page 79


 2951 0211 00       		.byte	0
 2952              		.section	.debug_aranges,"",%progbits
 2953 0000 5C000000 		.4byte	0x5c
 2954 0004 0200     		.2byte	0x2
 2955 0006 00000000 		.4byte	.Ldebug_info0
 2956 000a 04       		.byte	0x4
 2957 000b 00       		.byte	0
 2958 000c 0000     		.2byte	0
 2959 000e 0000     		.2byte	0
 2960 0010 00000000 		.4byte	.LFB2
 2961 0014 C0000000 		.4byte	.LFE2-.LFB2
 2962 0018 00000000 		.4byte	.LFB3
 2963 001c 30000000 		.4byte	.LFE3-.LFB3
 2964 0020 00000000 		.4byte	.LFB4
 2965 0024 18000000 		.4byte	.LFE4-.LFB4
 2966 0028 00000000 		.4byte	.LFB5
 2967 002c 0E000000 		.4byte	.LFE5-.LFB5
 2968 0030 00000000 		.4byte	.LFB6
 2969 0034 08000000 		.4byte	.LFE6-.LFB6
 2970 0038 00000000 		.4byte	.LFB7
 2971 003c 60000000 		.4byte	.LFE7-.LFB7
 2972 0040 00000000 		.4byte	.LFB8
 2973 0044 12000000 		.4byte	.LFE8-.LFB8
 2974 0048 00000000 		.4byte	.LFB9
 2975 004c 0E000000 		.4byte	.LFE9-.LFB9
 2976 0050 00000000 		.4byte	.LFB10
 2977 0054 BC020000 		.4byte	.LFE10-.LFB10
 2978 0058 00000000 		.4byte	0
 2979 005c 00000000 		.4byte	0
 2980              		.section	.debug_ranges,"",%progbits
 2981              	.Ldebug_ranges0:
 2982 0000 00000000 		.4byte	.LFB2
 2983 0004 C0000000 		.4byte	.LFE2
 2984 0008 00000000 		.4byte	.LFB3
 2985 000c 30000000 		.4byte	.LFE3
 2986 0010 00000000 		.4byte	.LFB4
 2987 0014 18000000 		.4byte	.LFE4
 2988 0018 00000000 		.4byte	.LFB5
 2989 001c 0E000000 		.4byte	.LFE5
 2990 0020 00000000 		.4byte	.LFB6
 2991 0024 08000000 		.4byte	.LFE6
 2992 0028 00000000 		.4byte	.LFB7
 2993 002c 60000000 		.4byte	.LFE7
 2994 0030 00000000 		.4byte	.LFB8
 2995 0034 12000000 		.4byte	.LFE8
 2996 0038 00000000 		.4byte	.LFB9
 2997 003c 0E000000 		.4byte	.LFE9
 2998 0040 00000000 		.4byte	.LFB10
 2999 0044 BC020000 		.4byte	.LFE10
 3000 0048 00000000 		.4byte	0
 3001 004c 00000000 		.4byte	0
 3002              		.section	.debug_line,"",%progbits
 3003              	.Ldebug_line0:
 3004 0000 35020000 		.section	.debug_str,"MS",%progbits,1
 3004      0200FA00 
 3004      00000201 
 3004      FB0E0D00 
ARM GAS  C:\Users\Zachary\AppData\Local\Temp\ccNoimb2.s 			page 80


 3004      01010101 
 3005              	.LASF243:
 3006 0000 4359424C 		.ascii	"CYBLE_DIS_CHAR_COUNT\000"
 3006      455F4449 
 3006      535F4348 
 3006      41525F43 
 3006      4F554E54 
 3007              	.LASF15:
 3008 0015 73697A65 		.ascii	"sizetype\000"
 3008      74797065 
 3008      00
 3009              	.LASF151:
 3010 001e 656B6579 		.ascii	"ekeySize\000"
 3010      53697A65 
 3010      00
 3011              	.LASF185:
 3012 0027 4359424C 		.ascii	"CYBLE_GATT_HANDLE_VALUE_CNF\000"
 3012      455F4741 
 3012      54545F48 
 3012      414E444C 
 3012      455F5641 
 3013              	.LASF260:
 3014 0043 4379426C 		.ascii	"CyBle_WriteReqHandler\000"
 3014      655F5772 
 3014      69746552 
 3014      65714861 
 3014      6E646C65 
 3015              	.LASF262:
 3016 0059 6576656E 		.ascii	"eventParam\000"
 3016      74506172 
 3016      616D00
 3017              	.LASF29:
 3018 0064 4359424C 		.ascii	"CYBLE_EVT_GAP_DEVICE_CONNECTED\000"
 3018      455F4556 
 3018      545F4741 
 3018      505F4445 
 3018      56494345 
 3019              	.LASF133:
 3020 0083 4359424C 		.ascii	"CYBLE_GAP_IOCAP_NOINPUT_NOOUTPUT\000"
 3020      455F4741 
 3020      505F494F 
 3020      4341505F 
 3020      4E4F494E 
 3021              	.LASF36:
 3022 00a4 4359424C 		.ascii	"CYBLE_EVT_GATT_CONNECT_IND\000"
 3022      455F4556 
 3022      545F4741 
 3022      54545F43 
 3022      4F4E4E45 
 3023              	.LASF250:
 3024 00bf 4359424C 		.ascii	"CYBLE_HTS_VRD\000"
 3024      455F4854 
 3024      535F5652 
 3024      4400
 3025              	.LASF178:
 3026 00cd 4359424C 		.ascii	"CYBLE_GATT_WRITE_CMD\000"
 3026      455F4741 
ARM GAS  C:\Users\Zachary\AppData\Local\Temp\ccNoimb2.s 			page 81


 3026      54545F57 
 3026      52495445 
 3026      5F434D44 
 3027              	.LASF11:
 3028 00e2 75696E74 		.ascii	"uint32\000"
 3028      333200
 3029              	.LASF115:
 3030 00e9 626C6550 		.ascii	"blePwrLevelInDbm\000"
 3030      77724C65 
 3030      76656C49 
 3030      6E44626D 
 3030      00
 3031              	.LASF280:
 3032 00fa 6379426C 		.ascii	"cyBle_attValuesCCCDFlashMemory\000"
 3032      655F6174 
 3032      7456616C 
 3032      75657343 
 3032      43434446 
 3033              	.LASF190:
 3034 0119 4359424C 		.ascii	"CYBLE_GATT_ERR_READ_NOT_PERMITTED\000"
 3034      455F4741 
 3034      54545F45 
 3034      52525F52 
 3034      4541445F 
 3035              	.LASF205:
 3036 013b 4359424C 		.ascii	"CYBLE_GATT_ERR_INSUFFICIENT_RESOURCE\000"
 3036      455F4741 
 3036      54545F45 
 3036      52525F49 
 3036      4E535546 
 3037              	.LASF249:
 3038 0160 4359424C 		.ascii	"CYBLE_HTS_CCCD\000"
 3038      455F4854 
 3038      535F4343 
 3038      434400
 3039              	.LASF179:
 3040 016f 4359424C 		.ascii	"CYBLE_GATT_PREPARE_WRITE_REQ\000"
 3040      455F4741 
 3040      54545F50 
 3040      52455041 
 3040      52455F57 
 3041              	.LASF204:
 3042 018c 4359424C 		.ascii	"CYBLE_GATT_ERR_UNSUPPORTED_GROUP_TYPE\000"
 3042      455F4741 
 3042      54545F45 
 3042      52525F55 
 3042      4E535550 
 3043              	.LASF86:
 3044 01b2 4359424C 		.ascii	"CYBLE_ERROR_L2CAP_CONNECTION_ENTITY_NOT_FOUND\000"
 3044      455F4552 
 3044      524F525F 
 3044      4C324341 
 3044      505F434F 
 3045              	.LASF92:
 3046 01e0 4359424C 		.ascii	"CYBLE_ERROR_MIC_AUTH_FAILED\000"
 3046      455F4552 
 3046      524F525F 
ARM GAS  C:\Users\Zachary\AppData\Local\Temp\ccNoimb2.s 			page 82


 3046      4D49435F 
 3046      41555448 
 3047              	.LASF56:
 3048 01fc 4359424C 		.ascii	"CYBLE_EVT_GATTS_DATA_SIGNED_CMD_REQ\000"
 3048      455F4556 
 3048      545F4741 
 3048      5454535F 
 3048      44415441 
 3049              	.LASF65:
 3050 0220 4359424C 		.ascii	"CYBLE_EVT_L2CAP_CBFC_RX_CREDIT_IND\000"
 3050      455F4556 
 3050      545F4C32 
 3050      4341505F 
 3050      43424643 
 3051              	.LASF222:
 3052 0243 4359424C 		.ascii	"CYBLE_GATT_VALUE_T\000"
 3052      455F4741 
 3052      54545F56 
 3052      414C5545 
 3052      5F5400
 3053              	.LASF173:
 3054 0256 4359424C 		.ascii	"CYBLE_GATT_READ_MULTIPLE_RSP\000"
 3054      455F4741 
 3054      54545F52 
 3054      4541445F 
 3054      4D554C54 
 3055              	.LASF119:
 3056 0273 74797065 		.ascii	"type\000"
 3056      00
 3057              	.LASF125:
 3058 0278 4359424C 		.ascii	"CYBLE_TO_REASON_CODE_T\000"
 3058      455F544F 
 3058      5F524541 
 3058      534F4E5F 
 3058      434F4445 
 3059              	.LASF146:
 3060 028f 4359424C 		.ascii	"CYBLE_GAP_AUTH_ERROR_AUTHENTICATION_TIMEOUT\000"
 3060      455F4741 
 3060      505F4155 
 3060      54485F45 
 3060      52524F52 
 3061              	.LASF143:
 3062 02bb 4359424C 		.ascii	"CYBLE_GAP_AUTH_ERROR_UNSPECIFIED_REASON\000"
 3062      455F4741 
 3062      505F4155 
 3062      54485F45 
 3062      52524F52 
 3063              	.LASF167:
 3064 02e3 4359424C 		.ascii	"CYBLE_GATT_READ_BY_TYPE_RSP\000"
 3064      455F4741 
 3064      54545F52 
 3064      4541445F 
 3064      42595F54 
 3065              	.LASF233:
 3066 02ff 4359424C 		.ascii	"CYBLE_CALLBACK_T\000"
 3066      455F4341 
 3066      4C4C4241 
ARM GAS  C:\Users\Zachary\AppData\Local\Temp\ccNoimb2.s 			page 83


 3066      434B5F54 
 3066      00
 3067              	.LASF238:
 3068 0310 4359424C 		.ascii	"CYBLE_DIS_FIRMWARE_REV\000"
 3068      455F4449 
 3068      535F4649 
 3068      524D5741 
 3068      52455F52 
 3069              	.LASF53:
 3070 0327 4359424C 		.ascii	"CYBLE_EVT_GATTC_HANDLE_VALUE_NTF\000"
 3070      455F4556 
 3070      545F4741 
 3070      5454435F 
 3070      48414E44 
 3071              	.LASF23:
 3072 0348 4359424C 		.ascii	"CYBLE_EVT_GAP_AUTH_REQ\000"
 3072      455F4556 
 3072      545F4741 
 3072      505F4155 
 3072      54485F52 
 3073              	.LASF220:
 3074 035f 4359424C 		.ascii	"CYBLE_CONN_HANDLE_T\000"
 3074      455F434F 
 3074      4E4E5F48 
 3074      414E444C 
 3074      455F5400 
 3075              	.LASF81:
 3076 0373 4359424C 		.ascii	"CYBLE_ERROR_BT_ON_NOT_COMPLETED\000"
 3076      455F4552 
 3076      524F525F 
 3076      42545F4F 
 3076      4E5F4E4F 
 3077              	.LASF130:
 3078 0393 4359424C 		.ascii	"CYBLE_GAP_IOCAP_DISPLAY_ONLY\000"
 3078      455F4741 
 3078      505F494F 
 3078      4341505F 
 3078      44495350 
 3079              	.LASF104:
 3080 03b0 4359424C 		.ascii	"CYBLE_LL_PWR_LVL_NEG_3_DBM\000"
 3080      455F4C4C 
 3080      5F505752 
 3080      5F4C564C 
 3080      5F4E4547 
 3081              	.LASF255:
 3082 03cb 4359424C 		.ascii	"CYBLE_STATE_ADVERTISING\000"
 3082      455F5354 
 3082      4154455F 
 3082      41445645 
 3082      52544953 
 3083              	.LASF218:
 3084 03e3 62644861 		.ascii	"bdHandle\000"
 3084      6E646C65 
 3084      00
 3085              	.LASF136:
 3086 03ec 4359424C 		.ascii	"CYBLE_GAP_AUTH_ERROR_PASSKEY_ENTRY_FAILED\000"
 3086      455F4741 
ARM GAS  C:\Users\Zachary\AppData\Local\Temp\ccNoimb2.s 			page 84


 3086      505F4155 
 3086      54485F45 
 3086      52524F52 
 3087              	.LASF102:
 3088 0416 4359424C 		.ascii	"CYBLE_LL_PWR_LVL_NEG_12_DBM\000"
 3088      455F4C4C 
 3088      5F505752 
 3088      5F4C564C 
 3088      5F4E4547 
 3089              	.LASF161:
 3090 0432 4359424C 		.ascii	"CYBLE_GATT_XCHNG_MTU_RSP\000"
 3090      455F4741 
 3090      54545F58 
 3090      43484E47 
 3090      5F4D5455 
 3091              	.LASF49:
 3092 044b 4359424C 		.ascii	"CYBLE_EVT_GATTS_WRITE_CMD_REQ\000"
 3092      455F4556 
 3092      545F4741 
 3092      5454535F 
 3092      57524954 
 3093              	.LASF4:
 3094 0469 6C6F6E67 		.ascii	"long int\000"
 3094      20696E74 
 3094      00
 3095              	.LASF246:
 3096 0472 4359424C 		.ascii	"CYBLE_HTS_INTERM_TEMP\000"
 3096      455F4854 
 3096      535F494E 
 3096      5445524D 
 3096      5F54454D 
 3097              	.LASF126:
 3098 0488 4359424C 		.ascii	"CYBLE_GAP_SEC_LEVEL_1\000"
 3098      455F4741 
 3098      505F5345 
 3098      435F4C45 
 3098      56454C5F 
 3099              	.LASF127:
 3100 049e 4359424C 		.ascii	"CYBLE_GAP_SEC_LEVEL_2\000"
 3100      455F4741 
 3100      505F5345 
 3100      435F4C45 
 3100      56454C5F 
 3101              	.LASF128:
 3102 04b4 4359424C 		.ascii	"CYBLE_GAP_SEC_LEVEL_3\000"
 3102      455F4741 
 3102      505F5345 
 3102      435F4C45 
 3102      56454C5F 
 3103              	.LASF165:
 3104 04ca 4359424C 		.ascii	"CYBLE_GATT_FIND_BY_TYPE_VALUE_RSP\000"
 3104      455F4741 
 3104      54545F46 
 3104      494E445F 
 3104      42595F54 
 3105              	.LASF17:
 3106 04ec 4359424C 		.ascii	"CYBLE_EVT_STACK_ON\000"
ARM GAS  C:\Users\Zachary\AppData\Local\Temp\ccNoimb2.s 			page 85


 3106      455F4556 
 3106      545F5354 
 3106      41434B5F 
 3106      4F4E00
 3107              	.LASF88:
 3108 04ff 4359424C 		.ascii	"CYBLE_ERROR_L2CAP_PSM_NOT_IN_RANGE\000"
 3108      455F4552 
 3108      524F525F 
 3108      4C324341 
 3108      505F5053 
 3109              	.LASF237:
 3110 0522 4359424C 		.ascii	"CYBLE_DIS_HARDWARE_REV\000"
 3110      455F4449 
 3110      535F4841 
 3110      52445741 
 3110      52455F52 
 3111              	.LASF276:
 3112 0539 6379426C 		.ascii	"cyBle_deviceAddress\000"
 3112      655F6465 
 3112      76696365 
 3112      41646472 
 3112      65737300 
 3113              	.LASF192:
 3114 054d 4359424C 		.ascii	"CYBLE_GATT_ERR_INVALID_PDU\000"
 3114      455F4741 
 3114      54545F45 
 3114      52525F49 
 3114      4E56414C 
 3115              	.LASF286:
 3116 0568 2E5C4765 		.ascii	".\\Generated_Source\\PSoC4\\BLE_eventHandler.c\000"
 3116      6E657261 
 3116      7465645F 
 3116      536F7572 
 3116      63655C50 
 3117              	.LASF99:
 3118 0594 4359424C 		.ascii	"CYBLE_ERROR_CHAR_IS_NOT_DISCOVERED\000"
 3118      455F4552 
 3118      524F525F 
 3118      43484152 
 3118      5F49535F 
 3119              	.LASF225:
 3120 05b7 4359424C 		.ascii	"CYBLE_GATT_HANDLE_VALUE_PAIR_T\000"
 3120      455F4741 
 3120      54545F48 
 3120      414E444C 
 3120      455F5641 
 3121              	.LASF116:
 3122 05d6 626C6553 		.ascii	"bleSsChId\000"
 3122      73436849 
 3122      6400
 3123              	.LASF59:
 3124 05e0 4359424C 		.ascii	"CYBLE_EVT_L2CAP_COMMAND_REJ\000"
 3124      455F4556 
 3124      545F4C32 
 3124      4341505F 
 3124      434F4D4D 
 3125              	.LASF171:
ARM GAS  C:\Users\Zachary\AppData\Local\Temp\ccNoimb2.s 			page 86


 3126 05fc 4359424C 		.ascii	"CYBLE_GATT_READ_BLOB_RSP\000"
 3126      455F4741 
 3126      54545F52 
 3126      4541445F 
 3126      424C4F42 
 3127              	.LASF201:
 3128 0615 4359424C 		.ascii	"CYBLE_GATT_ERR_INVALID_ATTRIBUTE_LEN\000"
 3128      455F4741 
 3128      54545F45 
 3128      52525F49 
 3128      4E56414C 
 3129              	.LASF89:
 3130 063a 4359424C 		.ascii	"CYBLE_ERROR_GATT_DB_INVALID_ATTR_HANDLE\000"
 3130      455F4552 
 3130      524F525F 
 3130      47415454 
 3130      5F44425F 
 3131              	.LASF0:
 3132 0662 7369676E 		.ascii	"signed char\000"
 3132      65642063 
 3132      68617200 
 3133              	.LASF101:
 3134 066e 4359424C 		.ascii	"CYBLE_LL_PWR_LVL_NEG_18_DBM\000"
 3134      455F4C4C 
 3134      5F505752 
 3134      5F4C564C 
 3134      5F4E4547 
 3135              	.LASF162:
 3136 068a 4359424C 		.ascii	"CYBLE_GATT_FIND_INFO_REQ\000"
 3136      455F4741 
 3136      54545F46 
 3136      494E445F 
 3136      494E464F 
 3137              	.LASF19:
 3138 06a3 4359424C 		.ascii	"CYBLE_EVT_HARDWARE_ERROR\000"
 3138      455F4556 
 3138      545F4841 
 3138      52445741 
 3138      52455F45 
 3139              	.LASF289:
 3140 06bc 4379426C 		.ascii	"CyBle_EventHandler\000"
 3140      655F4576 
 3140      656E7448 
 3140      616E646C 
 3140      657200
 3141              	.LASF70:
 3142 06cf 4359424C 		.ascii	"CYBLE_ERROR_OK\000"
 3142      455F4552 
 3142      524F525F 
 3142      4F4B00
 3143              	.LASF114:
 3144 06de 4359424C 		.ascii	"CYBLE_BLESS_PHY_CH_GRP_ID_T\000"
 3144      455F424C 
 3144      4553535F 
 3144      5048595F 
 3144      43485F47 
 3145              	.LASF213:
ARM GAS  C:\Users\Zachary\AppData\Local\Temp\ccNoimb2.s 			page 87


 3146 06fa 4359424C 		.ascii	"CYBLE_GATT_ERR_CCCD_IMPROPERLY_CONFIGURED\000"
 3146      455F4741 
 3146      54545F45 
 3146      52525F43 
 3146      4343445F 
 3147              	.LASF40:
 3148 0724 4359424C 		.ascii	"CYBLE_EVT_GATTC_READ_BY_GROUP_TYPE_RSP\000"
 3148      455F4556 
 3148      545F4741 
 3148      5454435F 
 3148      52454144 
 3149              	.LASF252:
 3150 074b 4359424C 		.ascii	"CYBLE_STATE_STOPPED\000"
 3150      455F5354 
 3150      4154455F 
 3150      53544F50 
 3150      50454400 
 3151              	.LASF230:
 3152 075f 4359424C 		.ascii	"CYBLE_GATTS_ERR_PARAM_T\000"
 3152      455F4741 
 3152      5454535F 
 3152      4552525F 
 3152      50415241 
 3153              	.LASF1:
 3154 0777 756E7369 		.ascii	"unsigned char\000"
 3154      676E6564 
 3154      20636861 
 3154      7200
 3155              	.LASF39:
 3156 0785 4359424C 		.ascii	"CYBLE_EVT_GATTC_XCHNG_MTU_RSP\000"
 3156      455F4556 
 3156      545F4741 
 3156      5454435F 
 3156      5843484E 
 3157              	.LASF184:
 3158 07a3 4359424C 		.ascii	"CYBLE_GATT_HANDLE_VALUE_IND\000"
 3158      455F4741 
 3158      54545F48 
 3158      414E444C 
 3158      455F5641 
 3159              	.LASF66:
 3160 07bf 4359424C 		.ascii	"CYBLE_EVT_L2CAP_CBFC_TX_CREDIT_IND\000"
 3160      455F4556 
 3160      545F4C32 
 3160      4341505F 
 3160      43424643 
 3161              	.LASF287:
 3162 07e2 433A5C55 		.ascii	"C:\\Users\\Zachary\\Desktop\\embedded\\Ozturk Lab -"
 3162      73657273 
 3162      5C5A6163 
 3162      68617279 
 3162      5C446573 
 3163 0810 2035202D 		.ascii	" 5 - Rev 1\\Design03\\BLE_Temperature_Measurement01"
 3163      20526576 
 3163      20315C44 
 3163      65736967 
 3163      6E30335C 
ARM GAS  C:\Users\Zachary\AppData\Local\Temp\ccNoimb2.s 			page 88


 3164 0841 2E637964 		.ascii	".cydsn\000"
 3164      736E00
 3165              	.LASF229:
 3166 0848 6572726F 		.ascii	"errorCode\000"
 3166      72436F64 
 3166      6500
 3167              	.LASF145:
 3168 0852 4359424C 		.ascii	"CYBLE_GAP_AUTH_ERROR_INVALID_PARAMETERS\000"
 3168      455F4741 
 3168      505F4155 
 3168      54485F45 
 3168      52524F52 
 3169              	.LASF63:
 3170 087a 4359424C 		.ascii	"CYBLE_EVT_L2CAP_CBFC_DISCONN_CNF\000"
 3170      455F4556 
 3170      545F4C32 
 3170      4341505F 
 3170      43424643 
 3171              	.LASF43:
 3172 089b 4359424C 		.ascii	"CYBLE_EVT_GATTC_FIND_BY_TYPE_VALUE_RSP\000"
 3172      455F4556 
 3172      545F4741 
 3172      5454435F 
 3172      46494E44 
 3173              	.LASF14:
 3174 08c2 63686172 		.ascii	"char\000"
 3174      00
 3175              	.LASF105:
 3176 08c7 4359424C 		.ascii	"CYBLE_LL_PWR_LVL_NEG_2_DBM\000"
 3176      455F4C4C 
 3176      5F505752 
 3176      5F4C564C 
 3176      5F4E4547 
 3177              	.LASF177:
 3178 08e2 4359424C 		.ascii	"CYBLE_GATT_WRITE_RSP\000"
 3178      455F4741 
 3178      54545F57 
 3178      52495445 
 3178      5F525350 
 3179              	.LASF46:
 3180 08f7 4359424C 		.ascii	"CYBLE_EVT_GATTC_READ_MULTI_RSP\000"
 3180      455F4556 
 3180      545F4741 
 3180      5454435F 
 3180      52454144 
 3181              	.LASF153:
 3182 0916 4359424C 		.ascii	"CYBLE_GAP_AUTH_INFO_T\000"
 3182      455F4741 
 3182      505F4155 
 3182      54485F49 
 3182      4E464F5F 
 3183              	.LASF132:
 3184 092c 4359424C 		.ascii	"CYBLE_GAP_IOCAP_KEYBOARD_ONLY\000"
 3184      455F4741 
 3184      505F494F 
 3184      4341505F 
 3184      4B455942 
ARM GAS  C:\Users\Zachary\AppData\Local\Temp\ccNoimb2.s 			page 89


 3185              	.LASF16:
 3186 094a 4359424C 		.ascii	"CYBLE_EVT_HOST_INVALID\000"
 3186      455F4556 
 3186      545F484F 
 3186      53545F49 
 3186      4E56414C 
 3187              	.LASF202:
 3188 0961 4359424C 		.ascii	"CYBLE_GATT_ERR_UNLIKELY_ERROR\000"
 3188      455F4741 
 3188      54545F45 
 3188      52525F55 
 3188      4E4C494B 
 3189              	.LASF160:
 3190 097f 4359424C 		.ascii	"CYBLE_GATT_XCNHG_MTU_REQ\000"
 3190      455F4741 
 3190      54545F58 
 3190      434E4847 
 3190      5F4D5455 
 3191              	.LASF77:
 3192 0998 4359424C 		.ascii	"CYBLE_ERROR_NO_DEVICE_ENTITY\000"
 3192      455F4552 
 3192      524F525F 
 3192      4E4F5F44 
 3192      45564943 
 3193              	.LASF45:
 3194 09b5 4359424C 		.ascii	"CYBLE_EVT_GATTC_READ_BLOB_RSP\000"
 3194      455F4556 
 3194      545F4741 
 3194      5454435F 
 3194      52454144 
 3195              	.LASF275:
 3196 09d3 6379426C 		.ascii	"cyBle_eventHandlerFlag\000"
 3196      655F6576 
 3196      656E7448 
 3196      616E646C 
 3196      6572466C 
 3197              	.LASF52:
 3198 09ea 4359424C 		.ascii	"CYBLE_EVT_GATTC_EXEC_WRITE_RSP\000"
 3198      455F4556 
 3198      545F4741 
 3198      5454435F 
 3198      45584543 
 3199              	.LASF206:
 3200 0a09 4359424C 		.ascii	"CYBLE_GATT_ERR_HEART_RATE_CONTROL_POINT_NOT_SUPPORT"
 3200      455F4741 
 3200      54545F45 
 3200      52525F48 
 3200      45415254 
 3201 0a3c 454400   		.ascii	"ED\000"
 3202              	.LASF199:
 3203 0a3f 4359424C 		.ascii	"CYBLE_GATT_ERR_ATTRIBUTE_NOT_LONG\000"
 3203      455F4741 
 3203      54545F45 
 3203      52525F41 
 3203      54545249 
 3204              	.LASF129:
 3205 0a61 4359424C 		.ascii	"CYBLE_GAP_SEC_LEVEL_MASK\000"
ARM GAS  C:\Users\Zachary\AppData\Local\Temp\ccNoimb2.s 			page 90


 3205      455F4741 
 3205      505F5345 
 3205      435F4C45 
 3205      56454C5F 
 3206              	.LASF239:
 3207 0a7a 4359424C 		.ascii	"CYBLE_DIS_SOFTWARE_REV\000"
 3207      455F4449 
 3207      535F534F 
 3207      46545741 
 3207      52455F52 
 3208              	.LASF235:
 3209 0a91 4359424C 		.ascii	"CYBLE_DIS_MODEL_NUMBER\000"
 3209      455F4449 
 3209      535F4D4F 
 3209      44454C5F 
 3209      4E554D42 
 3210              	.LASF282:
 3211 0aa8 6379426C 		.ascii	"cyBle_connHandle\000"
 3211      655F636F 
 3211      6E6E4861 
 3211      6E646C65 
 3211      00
 3212              	.LASF240:
 3213 0ab9 4359424C 		.ascii	"CYBLE_DIS_SYSTEM_ID\000"
 3213      455F4449 
 3213      535F5359 
 3213      5354454D 
 3213      5F494400 
 3214              	.LASF159:
 3215 0acd 4359424C 		.ascii	"CYBLE_GATT_ERROR_RSP\000"
 3215      455F4741 
 3215      54545F45 
 3215      52524F52 
 3215      5F525350 
 3216              	.LASF71:
 3217 0ae2 4359424C 		.ascii	"CYBLE_ERROR_INVALID_PARAMETER\000"
 3217      455F4552 
 3217      524F525F 
 3217      494E5641 
 3217      4C49445F 
 3218              	.LASF270:
 3219 0b00 4379426C 		.ascii	"CyBle_GapConnUpdateCompleteEventHandler\000"
 3219      655F4761 
 3219      70436F6E 
 3219      6E557064 
 3219      61746543 
 3220              	.LASF96:
 3221 0b28 4359424C 		.ascii	"CYBLE_DESCR_DISC_DONE\000"
 3221      455F4445 
 3221      5343525F 
 3221      44495343 
 3221      5F444F4E 
 3222              	.LASF73:
 3223 0b3e 4359424C 		.ascii	"CYBLE_ERROR_MEMORY_ALLOCATION_FAILED\000"
 3223      455F4552 
 3223      524F525F 
 3223      4D454D4F 
ARM GAS  C:\Users\Zachary\AppData\Local\Temp\ccNoimb2.s 			page 91


 3223      52595F41 
 3224              	.LASF277:
 3225 0b63 6379426C 		.ascii	"cyBle_sflashDeviceAddress\000"
 3225      655F7366 
 3225      6C617368 
 3225      44657669 
 3225      63654164 
 3226              	.LASF186:
 3227 0b7d 4359424C 		.ascii	"CYBLE_GATT_SIGNED_WRITE_CMD\000"
 3227      455F4741 
 3227      54545F53 
 3227      49474E45 
 3227      445F5752 
 3228              	.LASF211:
 3229 0b99 4359424C 		.ascii	"CYBLE_GATTS_ERR_CCCD_IMPROPERLY_CONFIGURED\000"
 3229      455F4741 
 3229      5454535F 
 3229      4552525F 
 3229      43434344 
 3230              	.LASF182:
 3231 0bc4 4359424C 		.ascii	"CYBLE_GATT_EXECUTE_WRITE_RSP\000"
 3231      455F4741 
 3231      54545F45 
 3231      58454355 
 3231      54455F57 
 3232              	.LASF93:
 3233 0be1 4359424C 		.ascii	"CYBLE_ERROR_MAX\000"
 3233      455F4552 
 3233      524F525F 
 3233      4D415800 
 3234              	.LASF58:
 3235 0bf1 4359424C 		.ascii	"CYBLE_EVT_L2CAP_CONN_PARAM_UPDATE_RSP\000"
 3235      455F4556 
 3235      545F4C32 
 3235      4341505F 
 3235      434F4E4E 
 3236              	.LASF147:
 3237 0c17 4359424C 		.ascii	"CYBLE_GAP_AUTH_ERROR_LINK_DISCONNECTED\000"
 3237      455F4741 
 3237      505F4155 
 3237      54485F45 
 3237      52524F52 
 3238              	.LASF207:
 3239 0c3e 4359424C 		.ascii	"CYBLE_GATT_ERR_USER_DATA_ACCESS_NOT_PERMITTED\000"
 3239      455F4741 
 3239      54545F45 
 3239      52525F55 
 3239      5345525F 
 3240              	.LASF26:
 3241 0c6c 4359424C 		.ascii	"CYBLE_EVT_GAP_AUTH_COMPLETE\000"
 3241      455F4556 
 3241      545F4741 
 3241      505F4155 
 3241      54485F43 
 3242              	.LASF27:
 3243 0c88 4359424C 		.ascii	"CYBLE_EVT_GAP_AUTH_FAILED\000"
 3243      455F4556 
ARM GAS  C:\Users\Zachary\AppData\Local\Temp\ccNoimb2.s 			page 92


 3243      545F4741 
 3243      505F4155 
 3243      54485F46 
 3244              	.LASF94:
 3245 0ca2 4359424C 		.ascii	"CYBLE_INCL_DISC_DONE\000"
 3245      455F494E 
 3245      434C5F44 
 3245      4953435F 
 3245      444F4E45 
 3246              	.LASF175:
 3247 0cb7 4359424C 		.ascii	"CYBLE_GATT_READ_BY_GROUP_RSP\000"
 3247      455F4741 
 3247      54545F52 
 3247      4541445F 
 3247      42595F47 
 3248              	.LASF74:
 3249 0cd4 4359424C 		.ascii	"CYBLE_ERROR_INSUFFICIENT_RESOURCES\000"
 3249      455F4552 
 3249      524F525F 
 3249      494E5355 
 3249      46464943 
 3250              	.LASF108:
 3251 0cf7 4359424C 		.ascii	"CYBLE_LL_PWR_LVL_3_DBM\000"
 3251      455F4C4C 
 3251      5F505752 
 3251      5F4C564C 
 3251      5F335F44 
 3252              	.LASF5:
 3253 0d0e 6C6F6E67 		.ascii	"long unsigned int\000"
 3253      20756E73 
 3253      69676E65 
 3253      6420696E 
 3253      7400
 3254              	.LASF168:
 3255 0d20 4359424C 		.ascii	"CYBLE_GATT_READ_REQ\000"
 3255      455F4741 
 3255      54545F52 
 3255      4541445F 
 3255      52455100 
 3256              	.LASF154:
 3257 0d34 73746174 		.ascii	"status\000"
 3257      757300
 3258              	.LASF106:
 3259 0d3b 4359424C 		.ascii	"CYBLE_LL_PWR_LVL_NEG_1_DBM\000"
 3259      455F4C4C 
 3259      5F505752 
 3259      5F4C564C 
 3259      5F4E4547 
 3260              	.LASF142:
 3261 0d56 4359424C 		.ascii	"CYBLE_GAP_AUTH_ERROR_COMMAND_NOT_SUPPORTED\000"
 3261      455F4741 
 3261      505F4155 
 3261      54485F45 
 3261      52524F52 
 3262              	.LASF138:
 3263 0d81 4359424C 		.ascii	"CYBLE_GAP_AUTH_ERROR_AUTHENTICATION_REQ_NOT_MET\000"
 3263      455F4741 
ARM GAS  C:\Users\Zachary\AppData\Local\Temp\ccNoimb2.s 			page 93


 3263      505F4155 
 3263      54485F45 
 3263      52524F52 
 3264              	.LASF183:
 3265 0db1 4359424C 		.ascii	"CYBLE_GATT_HANDLE_VALUE_NTF\000"
 3265      455F4741 
 3265      54545F48 
 3265      414E444C 
 3265      455F5641 
 3266              	.LASF84:
 3267 0dcd 4359424C 		.ascii	"CYBLE_ERROR_L2CAP_PSM_ALREADY_REGISTERED\000"
 3267      455F4552 
 3267      524F525F 
 3267      4C324341 
 3267      505F5053 
 3268              	.LASF236:
 3269 0df6 4359424C 		.ascii	"CYBLE_DIS_SERIAL_NUMBER\000"
 3269      455F4449 
 3269      535F5345 
 3269      5249414C 
 3269      5F4E554D 
 3270              	.LASF247:
 3271 0e0e 4359424C 		.ascii	"CYBLE_HTS_MEASURE_INTERVAL\000"
 3271      455F4854 
 3271      535F4D45 
 3271      41535552 
 3271      455F494E 
 3272              	.LASF32:
 3273 0e29 4359424C 		.ascii	"CYBLE_EVT_GAP_CONNECTION_UPDATE_COMPLETE\000"
 3273      455F4556 
 3273      545F4741 
 3273      505F434F 
 3273      4E4E4543 
 3274              	.LASF283:
 3275 0e52 6379426C 		.ascii	"cyBle_busyStatus\000"
 3275      655F6275 
 3275      73795374 
 3275      61747573 
 3275      00
 3276              	.LASF253:
 3277 0e63 4359424C 		.ascii	"CYBLE_STATE_INITIALIZING\000"
 3277      455F5354 
 3277      4154455F 
 3277      494E4954 
 3277      49414C49 
 3278              	.LASF273:
 3279 0e7c 6379426C 		.ascii	"cyBle_mtuSize\000"
 3279      655F6D74 
 3279      7553697A 
 3279      6500
 3280              	.LASF144:
 3281 0e8a 4359424C 		.ascii	"CYBLE_GAP_AUTH_ERROR_REPEATED_ATTEMPTS\000"
 3281      455F4741 
 3281      505F4155 
 3281      54485F45 
 3281      52524F52 
 3282              	.LASF62:
ARM GAS  C:\Users\Zachary\AppData\Local\Temp\ccNoimb2.s 			page 94


 3283 0eb1 4359424C 		.ascii	"CYBLE_EVT_L2CAP_CBFC_DISCONN_IND\000"
 3283      455F4556 
 3283      545F4C32 
 3283      4341505F 
 3283      43424643 
 3284              	.LASF24:
 3285 0ed2 4359424C 		.ascii	"CYBLE_EVT_GAP_PASSKEY_ENTRY_REQUEST\000"
 3285      455F4556 
 3285      545F4741 
 3285      505F5041 
 3285      53534B45 
 3286              	.LASF110:
 3287 0ef6 4359424C 		.ascii	"CYBLE_BLESS_PWR_LVL_T\000"
 3287      455F424C 
 3287      4553535F 
 3287      5057525F 
 3287      4C564C5F 
 3288              	.LASF265:
 3289 0f0c 4379426C 		.ascii	"CyBle_GattConnectReqHandler\000"
 3289      655F4761 
 3289      7474436F 
 3289      6E6E6563 
 3289      74526571 
 3290              	.LASF141:
 3291 0f28 4359424C 		.ascii	"CYBLE_GAP_AUTH_ERROR_INSUFFICIENT_ENCRYPTION_KEY_SI"
 3291      455F4741 
 3291      505F4155 
 3291      54485F45 
 3291      52524F52 
 3292 0f5b 5A4500   		.ascii	"ZE\000"
 3293              	.LASF6:
 3294 0f5e 6C6F6E67 		.ascii	"long long int\000"
 3294      206C6F6E 
 3294      6720696E 
 3294      7400
 3295              	.LASF264:
 3296 0f6c 4379426C 		.ascii	"CyBle_GattDisconnectEventHandler\000"
 3296      655F4761 
 3296      74744469 
 3296      73636F6E 
 3296      6E656374 
 3297              	.LASF242:
 3298 0f8d 4359424C 		.ascii	"CYBLE_DIS_PNP_ID\000"
 3298      455F4449 
 3298      535F504E 
 3298      505F4944 
 3298      00
 3299              	.LASF266:
 3300 0f9e 73666C61 		.ascii	"sflashDeviceAddress\000"
 3300      73684465 
 3300      76696365 
 3300      41646472 
 3300      65737300 
 3301              	.LASF197:
 3302 0fb2 4359424C 		.ascii	"CYBLE_GATT_ERR_PREPARE_WRITE_QUEUE_FULL\000"
 3302      455F4741 
 3302      54545F45 
ARM GAS  C:\Users\Zachary\AppData\Local\Temp\ccNoimb2.s 			page 95


 3302      52525F50 
 3302      52455041 
 3303              	.LASF85:
 3304 0fda 4359424C 		.ascii	"CYBLE_ERROR_L2CAP_PSM_NOT_REGISTERED\000"
 3304      455F4552 
 3304      524F525F 
 3304      4C324341 
 3304      505F5053 
 3305              	.LASF75:
 3306 0fff 4359424C 		.ascii	"CYBLE_ERROR_OOB_NOT_AVAILABLE\000"
 3306      455F4552 
 3306      524F525F 
 3306      4F4F425F 
 3306      4E4F545F 
 3307              	.LASF13:
 3308 101d 646F7562 		.ascii	"double\000"
 3308      6C6500
 3309              	.LASF90:
 3310 1024 4359424C 		.ascii	"CYBLE_ERROR_DEVICE_ALREADY_EXISTS\000"
 3310      455F4552 
 3310      524F525F 
 3310      44455649 
 3310      43455F41 
 3311              	.LASF251:
 3312 1046 4359424C 		.ascii	"CYBLE_HTS_DESCR_COUNT\000"
 3312      455F4854 
 3312      535F4445 
 3312      5343525F 
 3312      434F554E 
 3313              	.LASF68:
 3314 105c 4359424C 		.ascii	"CYBLE_EVT_PENDING_FLASH_WRITE\000"
 3314      455F4556 
 3314      545F5045 
 3314      4E44494E 
 3314      475F464C 
 3315              	.LASF200:
 3316 107a 4359424C 		.ascii	"CYBLE_GATT_ERR_INSUFFICIENT_ENC_KEY_SIZE\000"
 3316      455F4741 
 3316      54545F45 
 3316      52525F49 
 3316      4E535546 
 3317              	.LASF109:
 3318 10a3 4359424C 		.ascii	"CYBLE_LL_PWR_LVL_MAX\000"
 3318      455F4C4C 
 3318      5F505752 
 3318      5F4C564C 
 3318      5F4D4158 
 3319              	.LASF214:
 3320 10b8 4359424C 		.ascii	"CYBLE_GATT_ERR_PROCEDURE_ALREADY_IN_PROGRESS\000"
 3320      455F4741 
 3320      54545F45 
 3320      52525F50 
 3320      524F4345 
 3321              	.LASF87:
 3322 10e5 4359424C 		.ascii	"CYBLE_ERROR_L2CAP_CHANNEL_NOT_FOUND\000"
 3322      455F4552 
 3322      524F525F 
ARM GAS  C:\Users\Zachary\AppData\Local\Temp\ccNoimb2.s 			page 96


 3322      4C324341 
 3322      505F4348 
 3323              	.LASF78:
 3324 1109 4359424C 		.ascii	"CYBLE_ERROR_REPEATED_ATTEMPTS\000"
 3324      455F4552 
 3324      524F525F 
 3324      52455045 
 3324      41544544 
 3325              	.LASF261:
 3326 1127 4379426C 		.ascii	"CyBle_ValueConfirmation\000"
 3326      655F5661 
 3326      6C756543 
 3326      6F6E6669 
 3326      726D6174 
 3327              	.LASF12:
 3328 113f 666C6F61 		.ascii	"float\000"
 3328      7400
 3329              	.LASF91:
 3330 1145 4359424C 		.ascii	"CYBLE_ERROR_FLASH_WRITE_NOT_PERMITED\000"
 3330      455F4552 
 3330      524F525F 
 3330      464C4153 
 3330      485F5752 
 3331              	.LASF228:
 3332 116a 6F70636F 		.ascii	"opcode\000"
 3332      646500
 3333              	.LASF196:
 3334 1171 4359424C 		.ascii	"CYBLE_GATT_ERR_INSUFFICIENT_AUTHORIZATION\000"
 3334      455F4741 
 3334      54545F45 
 3334      52525F49 
 3334      4E535546 
 3335              	.LASF224:
 3336 119b 61747472 		.ascii	"attrHandle\000"
 3336      48616E64 
 3336      6C6500
 3337              	.LASF150:
 3338 11a6 626F6E64 		.ascii	"bonding\000"
 3338      696E6700 
 3339              	.LASF232:
 3340 11ae 4359424C 		.ascii	"CYBLE_GATTS_WRITE_REQ_PARAM_T\000"
 3340      455F4741 
 3340      5454535F 
 3340      57524954 
 3340      455F5245 
 3341              	.LASF8:
 3342 11cc 756E7369 		.ascii	"unsigned int\000"
 3342      676E6564 
 3342      20696E74 
 3342      00
 3343              	.LASF50:
 3344 11d9 4359424C 		.ascii	"CYBLE_EVT_GATTS_PREP_WRITE_REQ\000"
 3344      455F4556 
 3344      545F4741 
 3344      5454535F 
 3344      50524550 
 3345              	.LASF193:
ARM GAS  C:\Users\Zachary\AppData\Local\Temp\ccNoimb2.s 			page 97


 3346 11f8 4359424C 		.ascii	"CYBLE_GATT_ERR_INSUFFICIENT_AUTHENTICATION\000"
 3346      455F4741 
 3346      54545F45 
 3346      52525F49 
 3346      4E535546 
 3347              	.LASF227:
 3348 1223 4359424C 		.ascii	"CYBLE_GATT_XCHG_MTU_PARAM_T\000"
 3348      455F4741 
 3348      54545F58 
 3348      4348475F 
 3348      4D54555F 
 3349              	.LASF241:
 3350 123f 4359424C 		.ascii	"CYBLE_DIS_REG_CERT_DATA\000"
 3350      455F4449 
 3350      535F5245 
 3350      475F4345 
 3350      52545F44 
 3351              	.LASF112:
 3352 1257 4359424C 		.ascii	"CYBLE_LL_CONN_CH_TYPE\000"
 3352      455F4C4C 
 3352      5F434F4E 
 3352      4E5F4348 
 3352      5F545950 
 3353              	.LASF285:
 3354 126d 474E5520 		.ascii	"GNU C 4.8.4 20140526 (release) [ARM/embedded-4_8-br"
 3354      4320342E 
 3354      382E3420 
 3354      32303134 
 3354      30353236 
 3355 12a0 616E6368 		.ascii	"anch revision 211358] -mcpu=cortex-m0 -mthumb -g -O"
 3355      20726576 
 3355      6973696F 
 3355      6E203231 
 3355      31333538 
 3356 12d3 30202D66 		.ascii	"0 -ffunction-sections\000"
 3356      66756E63 
 3356      74696F6E 
 3356      2D736563 
 3356      74696F6E 
 3357              	.LASF210:
 3358 12e9 4359424C 		.ascii	"CYBLE_GATTS_ERR_PROCEDURE_ALREADY_IN_PROGRESS\000"
 3358      455F4741 
 3358      5454535F 
 3358      4552525F 
 3358      50524F43 
 3359              	.LASF259:
 3360 1317 6572725F 		.ascii	"err_param\000"
 3360      70617261 
 3360      6D00
 3361              	.LASF83:
 3362 1321 4359424C 		.ascii	"CYBLE_ERROR_L2CAP_PSM_WRONG_ENCODING\000"
 3362      455F4552 
 3362      524F525F 
 3362      4C324341 
 3362      505F5053 
 3363              	.LASF180:
 3364 1346 4359424C 		.ascii	"CYBLE_GATT_PREPARE_WRITE_RSP\000"
ARM GAS  C:\Users\Zachary\AppData\Local\Temp\ccNoimb2.s 			page 98


 3364      455F4741 
 3364      54545F50 
 3364      52455041 
 3364      52455F57 
 3365              	.LASF198:
 3366 1363 4359424C 		.ascii	"CYBLE_GATT_ERR_ATTRIBUTE_NOT_FOUND\000"
 3366      455F4741 
 3366      54545F45 
 3366      52525F41 
 3366      54545249 
 3367              	.LASF69:
 3368 1386 4359424C 		.ascii	"CYBLE_EVT_MAX\000"
 3368      455F4556 
 3368      545F4D41 
 3368      5800
 3369              	.LASF33:
 3370 1394 4359424C 		.ascii	"CYBLE_EVT_GAPC_SCAN_START_STOP\000"
 3370      455F4556 
 3370      545F4741 
 3370      50435F53 
 3370      43414E5F 
 3371              	.LASF288:
 3372 13b3 4379426C 		.ascii	"CyBle_IsDeviceAddressValid\000"
 3372      655F4973 
 3372      44657669 
 3372      63654164 
 3372      64726573 
 3373              	.LASF148:
 3374 13ce 4359424C 		.ascii	"CYBLE_GAP_AUTH_FAILED_REASON_T\000"
 3374      455F4741 
 3374      505F4155 
 3374      54485F46 
 3374      41494C45 
 3375              	.LASF47:
 3376 13ed 4359424C 		.ascii	"CYBLE_EVT_GATTS_WRITE_REQ\000"
 3376      455F4556 
 3376      545F4741 
 3376      5454535F 
 3376      57524954 
 3377              	.LASF25:
 3378 1407 4359424C 		.ascii	"CYBLE_EVT_GAP_PASSKEY_DISPLAY_REQUEST\000"
 3378      455F4556 
 3378      545F4741 
 3378      505F5041 
 3378      53534B45 
 3379              	.LASF98:
 3380 142d 4359424C 		.ascii	"CYBLE_ERROR_IND_DISABLED\000"
 3380      455F4552 
 3380      524F525F 
 3380      494E445F 
 3380      44495341 
 3381              	.LASF97:
 3382 1446 4359424C 		.ascii	"CYBLE_ERROR_NTF_DISABLED\000"
 3382      455F4552 
 3382      524F525F 
 3382      4E54465F 
 3382      44495341 
ARM GAS  C:\Users\Zachary\AppData\Local\Temp\ccNoimb2.s 			page 99


 3383              	.LASF172:
 3384 145f 4359424C 		.ascii	"CYBLE_GATT_READ_MULTIPLE_REQ\000"
 3384      455F4741 
 3384      54545F52 
 3384      4541445F 
 3384      4D554C54 
 3385              	.LASF44:
 3386 147c 4359424C 		.ascii	"CYBLE_EVT_GATTC_READ_RSP\000"
 3386      455F4556 
 3386      545F4741 
 3386      5454435F 
 3386      52454144 
 3387              	.LASF195:
 3388 1495 4359424C 		.ascii	"CYBLE_GATT_ERR_INVALID_OFFSET\000"
 3388      455F4741 
 3388      54545F45 
 3388      52525F49 
 3388      4E56414C 
 3389              	.LASF166:
 3390 14b3 4359424C 		.ascii	"CYBLE_GATT_READ_BY_TYPE_REQ\000"
 3390      455F4741 
 3390      54545F52 
 3390      4541445F 
 3390      42595F54 
 3391              	.LASF61:
 3392 14cf 4359424C 		.ascii	"CYBLE_EVT_L2CAP_CBFC_CONN_CNF\000"
 3392      455F4556 
 3392      545F4C32 
 3392      4341505F 
 3392      43424643 
 3393              	.LASF215:
 3394 14ed 4359424C 		.ascii	"CYBLE_GATT_ERR_OUT_OF_RANGE\000"
 3394      455F4741 
 3394      54545F45 
 3394      52525F4F 
 3394      55545F4F 
 3395              	.LASF164:
 3396 1509 4359424C 		.ascii	"CYBLE_GATT_FIND_BY_TYPE_VALUE_REQ\000"
 3396      455F4741 
 3396      54545F46 
 3396      494E445F 
 3396      42595F54 
 3397              	.LASF103:
 3398 152b 4359424C 		.ascii	"CYBLE_LL_PWR_LVL_NEG_6_DBM\000"
 3398      455F4C4C 
 3398      5F505752 
 3398      5F4C564C 
 3398      5F4E4547 
 3399              	.LASF135:
 3400 1546 4359424C 		.ascii	"CYBLE_GAP_AUTH_ERROR_NONE\000"
 3400      455F4741 
 3400      505F4155 
 3400      54485F45 
 3400      52524F52 
 3401              	.LASF31:
 3402 1560 4359424C 		.ascii	"CYBLE_EVT_GAP_ENCRYPT_CHANGE\000"
 3402      455F4556 
ARM GAS  C:\Users\Zachary\AppData\Local\Temp\ccNoimb2.s 			page 100


 3402      545F4741 
 3402      505F454E 
 3402      43525950 
 3403              	.LASF248:
 3404 157d 4359424C 		.ascii	"CYBLE_HTS_CHAR_COUNT\000"
 3404      455F4854 
 3404      535F4348 
 3404      41525F43 
 3404      4F554E54 
 3405              	.LASF38:
 3406 1592 4359424C 		.ascii	"CYBLE_EVT_GATTS_XCNHG_MTU_REQ\000"
 3406      455F4556 
 3406      545F4741 
 3406      5454535F 
 3406      58434E48 
 3407              	.LASF163:
 3408 15b0 4359424C 		.ascii	"CYBLE_GATT_FIND_INFO_RSP\000"
 3408      455F4741 
 3408      54545F46 
 3408      494E445F 
 3408      494E464F 
 3409              	.LASF137:
 3410 15c9 4359424C 		.ascii	"CYBLE_GAP_AUTH_ERROR_OOB_DATA_NOT_AVAILABLE\000"
 3410      455F4741 
 3410      505F4155 
 3410      54485F45 
 3410      52524F52 
 3411              	.LASF234:
 3412 15f5 4359424C 		.ascii	"CYBLE_DIS_MANUFACTURER_NAME\000"
 3412      455F4449 
 3412      535F4D41 
 3412      4E554641 
 3412      43545552 
 3413              	.LASF158:
 3414 1611 4359424C 		.ascii	"CYBLE_GAP_CONN_PARAM_UPDATED_IN_CONTROLLER_T\000"
 3414      455F4741 
 3414      505F434F 
 3414      4E4E5F50 
 3414      4152414D 
 3415              	.LASF7:
 3416 163e 6C6F6E67 		.ascii	"long long unsigned int\000"
 3416      206C6F6E 
 3416      6720756E 
 3416      7369676E 
 3416      65642069 
 3417              	.LASF189:
 3418 1655 4359424C 		.ascii	"CYBLE_GATT_ERR_INVALID_HANDLE\000"
 3418      455F4741 
 3418      54545F45 
 3418      52525F49 
 3418      4E56414C 
 3419              	.LASF18:
 3420 1673 4359424C 		.ascii	"CYBLE_EVT_TIMEOUT\000"
 3420      455F4556 
 3420      545F5449 
 3420      4D454F55 
 3420      5400
ARM GAS  C:\Users\Zachary\AppData\Local\Temp\ccNoimb2.s 			page 101


 3421              	.LASF267:
 3422 1685 73666C61 		.ascii	"sflashAddressValid\000"
 3422      73684164 
 3422      64726573 
 3422      7356616C 
 3422      696400
 3423              	.LASF187:
 3424 1698 4359424C 		.ascii	"CYBLE_GATT_UNKNOWN_PDU_IND\000"
 3424      455F4741 
 3424      54545F55 
 3424      4E4B4E4F 
 3424      574E5F50 
 3425              	.LASF100:
 3426 16b3 4359424C 		.ascii	"CYBLE_ERROR_INVALID_STATE\000"
 3426      455F4552 
 3426      524F525F 
 3426      494E5641 
 3426      4C49445F 
 3427              	.LASF217:
 3428 16cd 4359424C 		.ascii	"CYBLE_GATT_DB_ATTR_HANDLE_T\000"
 3428      455F4741 
 3428      54545F44 
 3428      425F4154 
 3428      54525F48 
 3429              	.LASF272:
 3430 16e9 626C6553 		.ascii	"bleSsPowerLevel\000"
 3430      73506F77 
 3430      65724C65 
 3430      76656C00 
 3431              	.LASF64:
 3432 16f9 4359424C 		.ascii	"CYBLE_EVT_L2CAP_CBFC_DATA_READ\000"
 3432      455F4556 
 3432      545F4C32 
 3432      4341505F 
 3432      43424643 
 3433              	.LASF188:
 3434 1718 4359424C 		.ascii	"CYBLE_GATT_ERR_NONE\000"
 3434      455F4741 
 3434      54545F45 
 3434      52525F4E 
 3434      4F4E4500 
 3435              	.LASF223:
 3436 172c 76616C75 		.ascii	"value\000"
 3436      6500
 3437              	.LASF245:
 3438 1732 4359424C 		.ascii	"CYBLE_HTS_TEMP_TYPE\000"
 3438      455F4854 
 3438      535F5445 
 3438      4D505F54 
 3438      59504500 
 3439              	.LASF274:
 3440 1746 4379426C 		.ascii	"CyBle_ApplCallback\000"
 3440      655F4170 
 3440      706C4361 
 3440      6C6C6261 
 3440      636B00
 3441              	.LASF216:
ARM GAS  C:\Users\Zachary\AppData\Local\Temp\ccNoimb2.s 			page 102


 3442 1759 4359424C 		.ascii	"CYBLE_GATT_ERR_CODE_T\000"
 3442      455F4741 
 3442      54545F45 
 3442      52525F43 
 3442      4F44455F 
 3443              	.LASF122:
 3444 176f 4359424C 		.ascii	"CYBLE_GAP_SCAN_TO\000"
 3444      455F4741 
 3444      505F5343 
 3444      414E5F54 
 3444      4F00
 3445              	.LASF209:
 3446 1781 4359424C 		.ascii	"CYBLE_GATT_ERR_HTS_OUT_OF_RANGE\000"
 3446      455F4741 
 3446      54545F45 
 3446      52525F48 
 3446      54535F4F 
 3447              	.LASF120:
 3448 17a1 4359424C 		.ascii	"CYBLE_GAP_BD_ADDR_T\000"
 3448      455F4741 
 3448      505F4244 
 3448      5F414444 
 3448      525F5400 
 3449              	.LASF170:
 3450 17b5 4359424C 		.ascii	"CYBLE_GATT_READ_BLOB_REQ\000"
 3450      455F4741 
 3450      54545F52 
 3450      4541445F 
 3450      424C4F42 
 3451              	.LASF121:
 3452 17ce 4359424C 		.ascii	"CYBLE_GAP_ADV_MODE_TO\000"
 3452      455F4741 
 3452      505F4144 
 3452      565F4D4F 
 3452      44455F54 
 3453              	.LASF231:
 3454 17e4 68616E64 		.ascii	"handleValPair\000"
 3454      6C655661 
 3454      6C506169 
 3454      7200
 3455              	.LASF226:
 3456 17f2 636F6E6E 		.ascii	"connHandle\000"
 3456      48616E64 
 3456      6C6500
 3457              	.LASF263:
 3458 17fd 4379426C 		.ascii	"CyBle_TimeOutEventHandler\000"
 3458      655F5469 
 3458      6D654F75 
 3458      74457665 
 3458      6E744861 
 3459              	.LASF140:
 3460 1817 4359424C 		.ascii	"CYBLE_GAP_AUTH_ERROR_PAIRING_NOT_SUPPORTED\000"
 3460      455F4741 
 3460      505F4155 
 3460      54485F45 
 3460      52524F52 
 3461              	.LASF124:
ARM GAS  C:\Users\Zachary\AppData\Local\Temp\ccNoimb2.s 			page 103


 3462 1842 4359424C 		.ascii	"CYBLE_GENERIC_TO\000"
 3462      455F4745 
 3462      4E455249 
 3462      435F544F 
 3462      00
 3463              	.LASF42:
 3464 1853 4359424C 		.ascii	"CYBLE_EVT_GATTC_FIND_INFO_RSP\000"
 3464      455F4556 
 3464      545F4741 
 3464      5454435F 
 3464      46494E44 
 3465              	.LASF41:
 3466 1871 4359424C 		.ascii	"CYBLE_EVT_GATTC_READ_BY_TYPE_RSP\000"
 3466      455F4556 
 3466      545F4741 
 3466      5454435F 
 3466      52454144 
 3467              	.LASF281:
 3468 1892 6379426C 		.ascii	"cyBle_state\000"
 3468      655F7374 
 3468      61746500 
 3469              	.LASF48:
 3470 189e 4359424C 		.ascii	"CYBLE_EVT_GATTC_WRITE_RSP\000"
 3470      455F4556 
 3470      545F4741 
 3470      5454435F 
 3470      57524954 
 3471              	.LASF256:
 3472 18b8 4359424C 		.ascii	"CYBLE_STATE_DISCONNECTED\000"
 3472      455F5354 
 3472      4154455F 
 3472      44495343 
 3472      4F4E4E45 
 3473              	.LASF28:
 3474 18d1 4359424C 		.ascii	"CYBLE_EVT_GAPP_ADVERTISEMENT_START_STOP\000"
 3474      455F4556 
 3474      545F4741 
 3474      50505F41 
 3474      44564552 
 3475              	.LASF9:
 3476 18f9 75696E74 		.ascii	"uint8\000"
 3476      3800
 3477              	.LASF278:
 3478 18ff 6379426C 		.ascii	"cyBle_authInfo\000"
 3478      655F6175 
 3478      7468496E 
 3478      666F00
 3479              	.LASF149:
 3480 190e 73656375 		.ascii	"security\000"
 3480      72697479 
 3480      00
 3481              	.LASF268:
 3482 1917 4379426C 		.ascii	"CyBle_L2Cap_ConnParamUpdateRspEventHandler\000"
 3482      655F4C32 
 3482      4361705F 
 3482      436F6E6E 
 3482      50617261 
ARM GAS  C:\Users\Zachary\AppData\Local\Temp\ccNoimb2.s 			page 104


 3483              	.LASF176:
 3484 1942 4359424C 		.ascii	"CYBLE_GATT_WRITE_REQ\000"
 3484      455F4741 
 3484      54545F57 
 3484      52495445 
 3484      5F524551 
 3485              	.LASF2:
 3486 1957 73686F72 		.ascii	"short int\000"
 3486      7420696E 
 3486      7400
 3487              	.LASF152:
 3488 1961 61757468 		.ascii	"authErr\000"
 3488      45727200 
 3489              	.LASF208:
 3490 1969 4359424C 		.ascii	"CYBLE_GATT_ERR_CPS_INAPPROPRIATE_CONNECTION_PARAMET"
 3490      455F4741 
 3490      54545F45 
 3490      52525F43 
 3490      50535F49 
 3491 199c 45525300 		.ascii	"ERS\000"
 3492              	.LASF194:
 3493 19a0 4359424C 		.ascii	"CYBLE_GATT_ERR_REQUEST_NOT_SUPPORTED\000"
 3493      455F4741 
 3493      54545F45 
 3493      52525F52 
 3493      45515545 
 3494              	.LASF244:
 3495 19c5 4359424C 		.ascii	"CYBLE_HTS_TEMP_MEASURE\000"
 3495      455F4854 
 3495      535F5445 
 3495      4D505F4D 
 3495      45415355 
 3496              	.LASF35:
 3497 19dc 4359424C 		.ascii	"CYBLE_EVT_GATTC_ERROR_RSP\000"
 3497      455F4556 
 3497      545F4741 
 3497      5454435F 
 3497      4552524F 
 3498              	.LASF134:
 3499 19f6 4359424C 		.ascii	"CYBLE_GAP_IOCAP_KEYBOARD_DISPLAY\000"
 3499      455F4741 
 3499      505F494F 
 3499      4341505F 
 3499      4B455942 
 3500              	.LASF257:
 3501 1a17 4359424C 		.ascii	"CYBLE_STATE_T\000"
 3501      455F5354 
 3501      4154455F 
 3501      5400
 3502              	.LASF60:
 3503 1a25 4359424C 		.ascii	"CYBLE_EVT_L2CAP_CBFC_CONN_IND\000"
 3503      455F4556 
 3503      545F4C32 
 3503      4341505F 
 3503      43424643 
 3504              	.LASF51:
 3505 1a43 4359424C 		.ascii	"CYBLE_EVT_GATTS_EXEC_WRITE_REQ\000"
ARM GAS  C:\Users\Zachary\AppData\Local\Temp\ccNoimb2.s 			page 105


 3505      455F4556 
 3505      545F4741 
 3505      5454535F 
 3505      45584543 
 3506              	.LASF22:
 3507 1a62 4359424C 		.ascii	"CYBLE_EVT_GAPC_SCAN_PROGRESS_RESULT\000"
 3507      455F4556 
 3507      545F4741 
 3507      50435F53 
 3507      43414E5F 
 3508              	.LASF79:
 3509 1a86 4359424C 		.ascii	"CYBLE_ERROR_GAP_ROLE\000"
 3509      455F4552 
 3509      524F525F 
 3509      4741505F 
 3509      524F4C45 
 3510              	.LASF284:
 3511 1a9b 6379426C 		.ascii	"cyBle_advertisingIntervalType\000"
 3511      655F6164 
 3511      76657274 
 3511      6973696E 
 3511      67496E74 
 3512              	.LASF118:
 3513 1ab9 62644164 		.ascii	"bdAddr\000"
 3513      647200
 3514              	.LASF212:
 3515 1ac0 4359424C 		.ascii	"CYBLE_GATT_ERR_ANS_COMMAND_NOT_SUPPORTED\000"
 3515      455F4741 
 3515      54545F45 
 3515      52525F41 
 3515      4E535F43 
 3516              	.LASF269:
 3517 1ae9 72657370 		.ascii	"response\000"
 3517      6F6E7365 
 3517      00
 3518              	.LASF169:
 3519 1af2 4359424C 		.ascii	"CYBLE_GATT_READ_RSP\000"
 3519      455F4741 
 3519      54545F52 
 3519      4541445F 
 3519      52535000 
 3520              	.LASF76:
 3521 1b06 4359424C 		.ascii	"CYBLE_ERROR_NO_CONNECTION\000"
 3521      455F4552 
 3521      524F525F 
 3521      4E4F5F43 
 3521      4F4E4E45 
 3522              	.LASF107:
 3523 1b20 4359424C 		.ascii	"CYBLE_LL_PWR_LVL_0_DBM\000"
 3523      455F4C4C 
 3523      5F505752 
 3523      5F4C564C 
 3523      5F305F44 
 3524              	.LASF111:
 3525 1b37 4359424C 		.ascii	"CYBLE_LL_ADV_CH_TYPE\000"
 3525      455F4C4C 
 3525      5F414456 
ARM GAS  C:\Users\Zachary\AppData\Local\Temp\ccNoimb2.s 			page 106


 3525      5F43485F 
 3525      54595045 
 3526              	.LASF279:
 3527 1b4c 6379426C 		.ascii	"cyBle_attValuesCCCD\000"
 3527      655F6174 
 3527      7456616C 
 3527      75657343 
 3527      43434400 
 3528              	.LASF54:
 3529 1b60 4359424C 		.ascii	"CYBLE_EVT_GATTC_HANDLE_VALUE_IND\000"
 3529      455F4556 
 3529      545F4741 
 3529      5454435F 
 3529      48414E44 
 3530              	.LASF271:
 3531 1b81 6576656E 		.ascii	"eventCode\000"
 3531      74436F64 
 3531      6500
 3532              	.LASF82:
 3533 1b8b 4359424C 		.ascii	"CYBLE_ERROR_SEC_FAILED\000"
 3533      455F4552 
 3533      524F525F 
 3533      5345435F 
 3533      4641494C 
 3534              	.LASF21:
 3535 1ba2 4359424C 		.ascii	"CYBLE_EVT_STACK_BUSY_STATUS\000"
 3535      455F4556 
 3535      545F5354 
 3535      41434B5F 
 3535      42555359 
 3536              	.LASF156:
 3537 1bbe 636F6E6E 		.ascii	"connLatency\000"
 3537      4C617465 
 3537      6E637900 
 3538              	.LASF131:
 3539 1bca 4359424C 		.ascii	"CYBLE_GAP_IOCAP_DISPLAY_YESNO\000"
 3539      455F4741 
 3539      505F494F 
 3539      4341505F 
 3539      44495350 
 3540              	.LASF34:
 3541 1be8 4359424C 		.ascii	"CYBLE_EVT_GAP_KEYINFO_EXCHNGE_CMPLT\000"
 3541      455F4556 
 3541      545F4741 
 3541      505F4B45 
 3541      59494E46 
 3542              	.LASF181:
 3543 1c0c 4359424C 		.ascii	"CYBLE_GATT_EXECUTE_WRITE_REQ\000"
 3543      455F4741 
 3543      54545F45 
 3543      58454355 
 3543      54455F57 
 3544              	.LASF117:
 3545 1c29 4359424C 		.ascii	"CYBLE_BLESS_PWR_IN_DB_T\000"
 3545      455F424C 
 3545      4553535F 
 3545      5057525F 
ARM GAS  C:\Users\Zachary\AppData\Local\Temp\ccNoimb2.s 			page 107


 3545      494E5F44 
 3546              	.LASF113:
 3547 1c41 4359424C 		.ascii	"CYBLE_LL_MAX_CH_TYPE\000"
 3547      455F4C4C 
 3547      5F4D4158 
 3547      5F43485F 
 3547      54595045 
 3548              	.LASF57:
 3549 1c56 4359424C 		.ascii	"CYBLE_EVT_L2CAP_CONN_PARAM_UPDATE_REQ\000"
 3549      455F4556 
 3549      545F4C32 
 3549      4341505F 
 3549      434F4E4E 
 3550              	.LASF258:
 3551 1c7c 67617474 		.ascii	"gattErr\000"
 3551      45727200 
 3552              	.LASF95:
 3553 1c84 4359424C 		.ascii	"CYBLE_CHAR_DISC_DONE\000"
 3553      455F4348 
 3553      41525F44 
 3553      4953435F 
 3553      444F4E45 
 3554              	.LASF191:
 3555 1c99 4359424C 		.ascii	"CYBLE_GATT_ERR_WRITE_NOT_PERMITTED\000"
 3555      455F4741 
 3555      54545F45 
 3555      52525F57 
 3555      52495445 
 3556              	.LASF155:
 3557 1cbc 636F6E6E 		.ascii	"connIntv\000"
 3557      496E7476 
 3557      00
 3558              	.LASF3:
 3559 1cc5 73686F72 		.ascii	"short unsigned int\000"
 3559      7420756E 
 3559      7369676E 
 3559      65642069 
 3559      6E7400
 3560              	.LASF203:
 3561 1cd8 4359424C 		.ascii	"CYBLE_GATT_ERR_INSUFFICIENT_ENCRYPTION\000"
 3561      455F4741 
 3561      54545F45 
 3561      52525F49 
 3561      4E535546 
 3562              	.LASF254:
 3563 1cff 4359424C 		.ascii	"CYBLE_STATE_CONNECTED\000"
 3563      455F5354 
 3563      4154455F 
 3563      434F4E4E 
 3563      45435445 
 3564              	.LASF221:
 3565 1d15 61637475 		.ascii	"actualLen\000"
 3565      616C4C65 
 3565      6E00
 3566              	.LASF174:
 3567 1d1f 4359424C 		.ascii	"CYBLE_GATT_READ_BY_GROUP_REQ\000"
 3567      455F4741 
ARM GAS  C:\Users\Zachary\AppData\Local\Temp\ccNoimb2.s 			page 108


 3567      54545F52 
 3567      4541445F 
 3567      42595F47 
 3568              	.LASF139:
 3569 1d3c 4359424C 		.ascii	"CYBLE_GAP_AUTH_ERROR_CONFIRM_VALUE_NOT_MATCH\000"
 3569      455F4741 
 3569      505F4155 
 3569      54485F45 
 3569      52524F52 
 3570              	.LASF219:
 3571 1d69 61747449 		.ascii	"attId\000"
 3571      6400
 3572              	.LASF72:
 3573 1d6f 4359424C 		.ascii	"CYBLE_ERROR_INVALID_OPERATION\000"
 3573      455F4552 
 3573      524F525F 
 3573      494E5641 
 3573      4C49445F 
 3574              	.LASF20:
 3575 1d8d 4359424C 		.ascii	"CYBLE_EVT_HCI_STATUS\000"
 3575      455F4556 
 3575      545F4843 
 3575      495F5354 
 3575      41545553 
 3576              	.LASF37:
 3577 1da2 4359424C 		.ascii	"CYBLE_EVT_GATT_DISCONNECT_IND\000"
 3577      455F4556 
 3577      545F4741 
 3577      54545F44 
 3577      4953434F 
 3578              	.LASF157:
 3579 1dc0 73757065 		.ascii	"supervisionTO\000"
 3579      72766973 
 3579      696F6E54 
 3579      4F00
 3580              	.LASF123:
 3581 1dce 4359424C 		.ascii	"CYBLE_GATT_RSP_TO\000"
 3581      455F4741 
 3581      54545F52 
 3581      53505F54 
 3581      4F00
 3582              	.LASF67:
 3583 1de0 4359424C 		.ascii	"CYBLE_EVT_L2CAP_CBFC_DATA_WRITE_IND\000"
 3583      455F4556 
 3583      545F4C32 
 3583      4341505F 
 3583      43424643 
 3584              	.LASF30:
 3585 1e04 4359424C 		.ascii	"CYBLE_EVT_GAP_DEVICE_DISCONNECTED\000"
 3585      455F4556 
 3585      545F4741 
 3585      505F4445 
 3585      56494345 
 3586              	.LASF55:
 3587 1e26 4359424C 		.ascii	"CYBLE_EVT_GATTS_HANDLE_VALUE_CNF\000"
 3587      455F4556 
 3587      545F4741 
ARM GAS  C:\Users\Zachary\AppData\Local\Temp\ccNoimb2.s 			page 109


 3587      5454535F 
 3587      48414E44 
 3588              	.LASF10:
 3589 1e47 75696E74 		.ascii	"uint16\000"
 3589      313600
 3590              	.LASF80:
 3591 1e4e 4359424C 		.ascii	"CYBLE_ERROR_TX_POWER_READ\000"
 3591      455F4552 
 3591      524F525F 
 3591      54585F50 
 3591      4F574552 
 3592              		.ident	"GCC: (GNU Tools for ARM Embedded Processors) 4.8.4 20140526 (release) [ARM/embedded-4_8-br
