ARM GAS  C:\Users\Zachary\AppData\Local\Temp\ccv8jLse.s 			page 1


   1              		.cpu cortex-m0
   2              		.fpu softvfp
   3              		.eabi_attribute 20, 1
   4              		.eabi_attribute 21, 1
   5              		.eabi_attribute 23, 3
   6              		.eabi_attribute 24, 1
   7              		.eabi_attribute 25, 1
   8              		.eabi_attribute 26, 1
   9              		.eabi_attribute 30, 6
  10              		.eabi_attribute 34, 0
  11              		.eabi_attribute 18, 4
  12              		.code	16
  13              		.file	"BLE_hts.c"
  14              		.text
  15              	.Ltext0:
  16              		.cfi_sections	.debug_frame
  17              		.bss
  18              		.align	2
  19              	CyBle_HtsApplCallback:
  20 0000 00000000 		.space	4
  21              		.global	cyBle_htss
  22              		.section	.rodata
  23              		.align	2
  24              		.type	cyBle_htss, %object
  25              		.size	cyBle_htss, 26
  26              	cyBle_htss:
  27 0000 0C00     		.short	12
  28 0002 0E00     		.short	14
  29 0004 0F00     		.short	15
  30 0006 0000     		.short	0
  31 0008 1100     		.short	17
  32 000a 0000     		.short	0
  33 000c 0000     		.short	0
  34 000e 0000     		.short	0
  35 0010 0000     		.short	0
  36 0012 0000     		.short	0
  37 0014 1300     		.short	19
  38 0016 0000     		.short	0
  39 0018 1400     		.short	20
  40 001a 0000     		.bss
  41              		.align	1
  42              	cyBle_htssReqHandle:
  43 0004 0000     		.space	2
  44 0006 0000     		.section	.text.CyBle_HtsInit,"ax",%progbits
  45              		.align	2
  46              		.global	CyBle_HtsInit
  47              		.code	16
  48              		.thumb_func
  49              		.type	CyBle_HtsInit, %function
  50              	CyBle_HtsInit:
  51              	.LFB2:
  52              		.file 1 ".\\Generated_Source\\PSoC4\\BLE_hts.c"
   1:.\Generated_Source\PSoC4/BLE_hts.c **** /*******************************************************************************
   2:.\Generated_Source\PSoC4/BLE_hts.c **** File Name: CYBLE_hts.c
   3:.\Generated_Source\PSoC4/BLE_hts.c **** Version 1.20
   4:.\Generated_Source\PSoC4/BLE_hts.c **** 
   5:.\Generated_Source\PSoC4/BLE_hts.c **** Description:
ARM GAS  C:\Users\Zachary\AppData\Local\Temp\ccv8jLse.s 			page 2


   6:.\Generated_Source\PSoC4/BLE_hts.c ****  Contains the source code for Health Thermometer Service.
   7:.\Generated_Source\PSoC4/BLE_hts.c **** 
   8:.\Generated_Source\PSoC4/BLE_hts.c **** ********************************************************************************
   9:.\Generated_Source\PSoC4/BLE_hts.c **** Copyright 2014-2015, Cypress Semiconductor Corporation.  All rights reserved.
  10:.\Generated_Source\PSoC4/BLE_hts.c **** You may use this file only in accordance with the license, terms, conditions,
  11:.\Generated_Source\PSoC4/BLE_hts.c **** disclaimers, and limitations in the end user license agreement accompanying
  12:.\Generated_Source\PSoC4/BLE_hts.c **** the software package with which this file was provided.
  13:.\Generated_Source\PSoC4/BLE_hts.c **** *******************************************************************************/
  14:.\Generated_Source\PSoC4/BLE_hts.c **** 
  15:.\Generated_Source\PSoC4/BLE_hts.c **** 
  16:.\Generated_Source\PSoC4/BLE_hts.c **** #include "BLE_eventHandler.h"
  17:.\Generated_Source\PSoC4/BLE_hts.c **** 
  18:.\Generated_Source\PSoC4/BLE_hts.c **** static CYBLE_CALLBACK_T CyBle_HtsApplCallback = NULL;
  19:.\Generated_Source\PSoC4/BLE_hts.c **** 
  20:.\Generated_Source\PSoC4/BLE_hts.c **** #ifdef CYBLE_HTS_SERVER
  21:.\Generated_Source\PSoC4/BLE_hts.c **** 
  22:.\Generated_Source\PSoC4/BLE_hts.c **** const CYBLE_HTSS_T cyBle_htss =
  23:.\Generated_Source\PSoC4/BLE_hts.c **** {
  24:.\Generated_Source\PSoC4/BLE_hts.c ****     0x000Cu,    /* Handle of the HTS service */
  25:.\Generated_Source\PSoC4/BLE_hts.c ****     {
  26:.\Generated_Source\PSoC4/BLE_hts.c ****         
  27:.\Generated_Source\PSoC4/BLE_hts.c ****         /* Temperature Measurement characteristic */
  28:.\Generated_Source\PSoC4/BLE_hts.c ****         {
  29:.\Generated_Source\PSoC4/BLE_hts.c ****             0x000Eu, /* Handle of the Temperature Measurement characteristic */ 
  30:.\Generated_Source\PSoC4/BLE_hts.c ****             
  31:.\Generated_Source\PSoC4/BLE_hts.c ****             /* Array of Descriptors handles */
  32:.\Generated_Source\PSoC4/BLE_hts.c ****             {
  33:.\Generated_Source\PSoC4/BLE_hts.c ****                 0x000Fu, /* Handle of the Client Characteristic Configuration descriptor */ 
  34:.\Generated_Source\PSoC4/BLE_hts.c ****                 CYBLE_GATT_INVALID_ATTR_HANDLE_VALUE, 
  35:.\Generated_Source\PSoC4/BLE_hts.c ****             }, 
  36:.\Generated_Source\PSoC4/BLE_hts.c ****         }, 
  37:.\Generated_Source\PSoC4/BLE_hts.c ****         
  38:.\Generated_Source\PSoC4/BLE_hts.c ****         /* Temperature Type characteristic */
  39:.\Generated_Source\PSoC4/BLE_hts.c ****         {
  40:.\Generated_Source\PSoC4/BLE_hts.c ****             0x0011u, /* Handle of the Temperature Type characteristic */ 
  41:.\Generated_Source\PSoC4/BLE_hts.c ****             
  42:.\Generated_Source\PSoC4/BLE_hts.c ****             /* Array of Descriptors handles */
  43:.\Generated_Source\PSoC4/BLE_hts.c ****             {
  44:.\Generated_Source\PSoC4/BLE_hts.c ****                 CYBLE_GATT_INVALID_ATTR_HANDLE_VALUE, 
  45:.\Generated_Source\PSoC4/BLE_hts.c ****                 CYBLE_GATT_INVALID_ATTR_HANDLE_VALUE, 
  46:.\Generated_Source\PSoC4/BLE_hts.c ****             }, 
  47:.\Generated_Source\PSoC4/BLE_hts.c ****         }, 
  48:.\Generated_Source\PSoC4/BLE_hts.c ****         
  49:.\Generated_Source\PSoC4/BLE_hts.c ****         /* Intermediate Temperature characteristic */
  50:.\Generated_Source\PSoC4/BLE_hts.c ****         {
  51:.\Generated_Source\PSoC4/BLE_hts.c ****             CYBLE_GATT_INVALID_ATTR_HANDLE_VALUE, /* Handle of the Intermediate Temperature charact
  52:.\Generated_Source\PSoC4/BLE_hts.c ****             
  53:.\Generated_Source\PSoC4/BLE_hts.c ****             /* Array of Descriptors handles */
  54:.\Generated_Source\PSoC4/BLE_hts.c ****             {
  55:.\Generated_Source\PSoC4/BLE_hts.c ****                 CYBLE_GATT_INVALID_ATTR_HANDLE_VALUE, /* Handle of the Client Characteristic Config
  56:.\Generated_Source\PSoC4/BLE_hts.c ****                 CYBLE_GATT_INVALID_ATTR_HANDLE_VALUE, 
  57:.\Generated_Source\PSoC4/BLE_hts.c ****             }, 
  58:.\Generated_Source\PSoC4/BLE_hts.c ****         }, 
  59:.\Generated_Source\PSoC4/BLE_hts.c ****         
  60:.\Generated_Source\PSoC4/BLE_hts.c ****         /* Measurement Interval characteristic */
  61:.\Generated_Source\PSoC4/BLE_hts.c ****         {
  62:.\Generated_Source\PSoC4/BLE_hts.c ****             0x0013u, /* Handle of the Measurement Interval characteristic */ 
ARM GAS  C:\Users\Zachary\AppData\Local\Temp\ccv8jLse.s 			page 3


  63:.\Generated_Source\PSoC4/BLE_hts.c ****             
  64:.\Generated_Source\PSoC4/BLE_hts.c ****             /* Array of Descriptors handles */
  65:.\Generated_Source\PSoC4/BLE_hts.c ****             {
  66:.\Generated_Source\PSoC4/BLE_hts.c ****                 CYBLE_GATT_INVALID_ATTR_HANDLE_VALUE, /* Handle of the Client Characteristic Config
  67:.\Generated_Source\PSoC4/BLE_hts.c ****                 0x0014u, /* Handle of the Valid Range descriptor */ 
  68:.\Generated_Source\PSoC4/BLE_hts.c ****             }, 
  69:.\Generated_Source\PSoC4/BLE_hts.c ****         }, 
  70:.\Generated_Source\PSoC4/BLE_hts.c ****     },
  71:.\Generated_Source\PSoC4/BLE_hts.c **** };
  72:.\Generated_Source\PSoC4/BLE_hts.c **** static CYBLE_GATT_DB_ATTR_HANDLE_T cyBle_htssReqHandle;
  73:.\Generated_Source\PSoC4/BLE_hts.c ****     
  74:.\Generated_Source\PSoC4/BLE_hts.c **** #endif /* CYBLE_HTS_SERVER */
  75:.\Generated_Source\PSoC4/BLE_hts.c **** 
  76:.\Generated_Source\PSoC4/BLE_hts.c **** #ifdef CYBLE_HTS_CLIENT
  77:.\Generated_Source\PSoC4/BLE_hts.c **** 
  78:.\Generated_Source\PSoC4/BLE_hts.c **** CYBLE_HTSC_T cyBle_htsc;
  79:.\Generated_Source\PSoC4/BLE_hts.c **** static CYBLE_GATT_DB_ATTR_HANDLE_T cyBle_htscReqHandle;
  80:.\Generated_Source\PSoC4/BLE_hts.c **** 
  81:.\Generated_Source\PSoC4/BLE_hts.c **** #endif /* (CYBLE_HTS_CLIENT) */
  82:.\Generated_Source\PSoC4/BLE_hts.c **** 
  83:.\Generated_Source\PSoC4/BLE_hts.c **** 
  84:.\Generated_Source\PSoC4/BLE_hts.c **** /****************************************************************************** 
  85:.\Generated_Source\PSoC4/BLE_hts.c **** ##Function Name: CyBle_HtsInit
  86:.\Generated_Source\PSoC4/BLE_hts.c **** *******************************************************************************
  87:.\Generated_Source\PSoC4/BLE_hts.c **** 
  88:.\Generated_Source\PSoC4/BLE_hts.c **** Summary:
  89:.\Generated_Source\PSoC4/BLE_hts.c ****  This function initializes HTS Service.
  90:.\Generated_Source\PSoC4/BLE_hts.c **** 
  91:.\Generated_Source\PSoC4/BLE_hts.c **** Parameters:
  92:.\Generated_Source\PSoC4/BLE_hts.c ****  None
  93:.\Generated_Source\PSoC4/BLE_hts.c **** 
  94:.\Generated_Source\PSoC4/BLE_hts.c **** Return:
  95:.\Generated_Source\PSoC4/BLE_hts.c ****  None
  96:.\Generated_Source\PSoC4/BLE_hts.c **** 
  97:.\Generated_Source\PSoC4/BLE_hts.c **** ******************************************************************************/
  98:.\Generated_Source\PSoC4/BLE_hts.c **** void CyBle_HtsInit(void)
  99:.\Generated_Source\PSoC4/BLE_hts.c **** {
  53              		.loc 1 99 0
  54              		.cfi_startproc
  55 0000 80B5     		push	{r7, lr}
  56              		.cfi_def_cfa_offset 8
  57              		.cfi_offset 7, -8
  58              		.cfi_offset 14, -4
  59 0002 00AF     		add	r7, sp, #0
  60              		.cfi_def_cfa_register 7
 100:.\Generated_Source\PSoC4/BLE_hts.c **** 
 101:.\Generated_Source\PSoC4/BLE_hts.c **** #ifdef CYBLE_HTS_SERVER
 102:.\Generated_Source\PSoC4/BLE_hts.c **** 
 103:.\Generated_Source\PSoC4/BLE_hts.c ****     cyBle_htssReqHandle = CYBLE_GATT_INVALID_ATTR_HANDLE_VALUE;
  61              		.loc 1 103 0
  62 0004 024B     		ldr	r3, .L2
  63 0006 0022     		mov	r2, #0
  64 0008 1A80     		strh	r2, [r3]
 104:.\Generated_Source\PSoC4/BLE_hts.c ****     
 105:.\Generated_Source\PSoC4/BLE_hts.c **** #endif /* CYBLE_HTS_SERVER */
 106:.\Generated_Source\PSoC4/BLE_hts.c **** 
 107:.\Generated_Source\PSoC4/BLE_hts.c **** #ifdef CYBLE_HTS_CLIENT
ARM GAS  C:\Users\Zachary\AppData\Local\Temp\ccv8jLse.s 			page 4


 108:.\Generated_Source\PSoC4/BLE_hts.c **** 
 109:.\Generated_Source\PSoC4/BLE_hts.c ****     (void)memset(&cyBle_htsc, 0, sizeof(cyBle_htsc));
 110:.\Generated_Source\PSoC4/BLE_hts.c ****     cyBle_htscReqHandle = CYBLE_GATT_INVALID_ATTR_HANDLE_VALUE;
 111:.\Generated_Source\PSoC4/BLE_hts.c **** 
 112:.\Generated_Source\PSoC4/BLE_hts.c **** #endif /* CYBLE_HTS_CLIENT */
 113:.\Generated_Source\PSoC4/BLE_hts.c **** }
  65              		.loc 1 113 0
  66 000a BD46     		mov	sp, r7
  67              		@ sp needed
  68 000c 80BD     		pop	{r7, pc}
  69              	.L3:
  70 000e C046     		.align	2
  71              	.L2:
  72 0010 04000000 		.word	cyBle_htssReqHandle
  73              		.cfi_endproc
  74              	.LFE2:
  75              		.size	CyBle_HtsInit, .-CyBle_HtsInit
  76              		.section	.text.CyBle_HtsRegisterAttrCallback,"ax",%progbits
  77              		.align	2
  78              		.global	CyBle_HtsRegisterAttrCallback
  79              		.code	16
  80              		.thumb_func
  81              		.type	CyBle_HtsRegisterAttrCallback, %function
  82              	CyBle_HtsRegisterAttrCallback:
  83              	.LFB3:
 114:.\Generated_Source\PSoC4/BLE_hts.c **** 
 115:.\Generated_Source\PSoC4/BLE_hts.c **** 
 116:.\Generated_Source\PSoC4/BLE_hts.c **** /******************************************************************************
 117:.\Generated_Source\PSoC4/BLE_hts.c **** ##Function Name: CyBle_HtsRegisterAttrCallback
 118:.\Generated_Source\PSoC4/BLE_hts.c **** *******************************************************************************
 119:.\Generated_Source\PSoC4/BLE_hts.c **** 
 120:.\Generated_Source\PSoC4/BLE_hts.c **** Summary:
 121:.\Generated_Source\PSoC4/BLE_hts.c ****  Registers a callback function for service specific attribute operations.
 122:.\Generated_Source\PSoC4/BLE_hts.c **** 
 123:.\Generated_Source\PSoC4/BLE_hts.c **** Parameters:
 124:.\Generated_Source\PSoC4/BLE_hts.c ****  callbackFunc - An application layer event callback function to receive 
 125:.\Generated_Source\PSoC4/BLE_hts.c ****                     events from the BLE Component. The definition of 
 126:.\Generated_Source\PSoC4/BLE_hts.c ****                     CYBLE_CALLBACK_T for HTS Service is,
 127:.\Generated_Source\PSoC4/BLE_hts.c ****             
 128:.\Generated_Source\PSoC4/BLE_hts.c ****                     typedef void (* CYBLE_CALLBACK_T) (uint32 eventCode, 
 129:.\Generated_Source\PSoC4/BLE_hts.c ****                                                        void *eventParam)
 130:.\Generated_Source\PSoC4/BLE_hts.c **** 
 131:.\Generated_Source\PSoC4/BLE_hts.c ****                     * eventCode indicates the event that triggered this 
 132:.\Generated_Source\PSoC4/BLE_hts.c ****                       callback (e.g. CYBLE_EVT_HTSS_NOTIFICATION_ENABLED).
 133:.\Generated_Source\PSoC4/BLE_hts.c ****                     * eventParam contains the parameters corresponding to the 
 134:.\Generated_Source\PSoC4/BLE_hts.c ****                       current event. (e.g. pointer to CYBLE_HTS_CHAR_VALUE_T
 135:.\Generated_Source\PSoC4/BLE_hts.c ****                       structure that contains details of the characteristic 
 136:.\Generated_Source\PSoC4/BLE_hts.c ****                       for which notification enabled event was triggered).
 137:.\Generated_Source\PSoC4/BLE_hts.c **** 
 138:.\Generated_Source\PSoC4/BLE_hts.c **** Return:
 139:.\Generated_Source\PSoC4/BLE_hts.c ****  None
 140:.\Generated_Source\PSoC4/BLE_hts.c **** 
 141:.\Generated_Source\PSoC4/BLE_hts.c **** ******************************************************************************/
 142:.\Generated_Source\PSoC4/BLE_hts.c **** void CyBle_HtsRegisterAttrCallback(CYBLE_CALLBACK_T callbackFunc)
 143:.\Generated_Source\PSoC4/BLE_hts.c **** {
  84              		.loc 1 143 0
  85              		.cfi_startproc
ARM GAS  C:\Users\Zachary\AppData\Local\Temp\ccv8jLse.s 			page 5


  86 0000 80B5     		push	{r7, lr}
  87              		.cfi_def_cfa_offset 8
  88              		.cfi_offset 7, -8
  89              		.cfi_offset 14, -4
  90 0002 82B0     		sub	sp, sp, #8
  91              		.cfi_def_cfa_offset 16
  92 0004 00AF     		add	r7, sp, #0
  93              		.cfi_def_cfa_register 7
  94 0006 7860     		str	r0, [r7, #4]
 144:.\Generated_Source\PSoC4/BLE_hts.c ****     CyBle_HtsApplCallback = callbackFunc;
  95              		.loc 1 144 0
  96 0008 024B     		ldr	r3, .L5
  97 000a 7A68     		ldr	r2, [r7, #4]
  98 000c 1A60     		str	r2, [r3]
 145:.\Generated_Source\PSoC4/BLE_hts.c **** }
  99              		.loc 1 145 0
 100 000e BD46     		mov	sp, r7
 101 0010 02B0     		add	sp, sp, #8
 102              		@ sp needed
 103 0012 80BD     		pop	{r7, pc}
 104              	.L6:
 105              		.align	2
 106              	.L5:
 107 0014 00000000 		.word	CyBle_HtsApplCallback
 108              		.cfi_endproc
 109              	.LFE3:
 110              		.size	CyBle_HtsRegisterAttrCallback, .-CyBle_HtsRegisterAttrCallback
 111              		.section	.text.CyBle_HtssSetCharacteristicValue,"ax",%progbits
 112              		.align	2
 113              		.global	CyBle_HtssSetCharacteristicValue
 114              		.code	16
 115              		.thumb_func
 116              		.type	CyBle_HtssSetCharacteristicValue, %function
 117              	CyBle_HtssSetCharacteristicValue:
 118              	.LFB4:
 146:.\Generated_Source\PSoC4/BLE_hts.c **** 
 147:.\Generated_Source\PSoC4/BLE_hts.c **** #ifdef CYBLE_HTS_SERVER
 148:.\Generated_Source\PSoC4/BLE_hts.c **** 
 149:.\Generated_Source\PSoC4/BLE_hts.c **** 
 150:.\Generated_Source\PSoC4/BLE_hts.c **** /******************************************************************************
 151:.\Generated_Source\PSoC4/BLE_hts.c **** ##Function Name: CyBle_HtssSetCharacteristicValue
 152:.\Generated_Source\PSoC4/BLE_hts.c **** *******************************************************************************
 153:.\Generated_Source\PSoC4/BLE_hts.c **** 
 154:.\Generated_Source\PSoC4/BLE_hts.c **** Summary:
 155:.\Generated_Source\PSoC4/BLE_hts.c ****  Sets the characteristic value of the service in the local database.
 156:.\Generated_Source\PSoC4/BLE_hts.c **** 
 157:.\Generated_Source\PSoC4/BLE_hts.c **** Parameters:
 158:.\Generated_Source\PSoC4/BLE_hts.c ****  charIndex: The index of the service characteristic.
 159:.\Generated_Source\PSoC4/BLE_hts.c ****  attrSize: The size (in Bytes) of the characteristic value attribute.
 160:.\Generated_Source\PSoC4/BLE_hts.c ****  *attrValue: The pointer to the characteristic value data that should be
 161:.\Generated_Source\PSoC4/BLE_hts.c ****               stored in the GATT database.
 162:.\Generated_Source\PSoC4/BLE_hts.c **** 
 163:.\Generated_Source\PSoC4/BLE_hts.c **** Return:
 164:.\Generated_Source\PSoC4/BLE_hts.c ****  Return value is of type CYBLE_API_RESULT_T.
 165:.\Generated_Source\PSoC4/BLE_hts.c ****  * CYBLE_ERROR_OK - The request handled successfully
 166:.\Generated_Source\PSoC4/BLE_hts.c ****  * CYBLE_ERROR_INVALID_PARAMETER - Validation of the input parameter failed
 167:.\Generated_Source\PSoC4/BLE_hts.c **** 
ARM GAS  C:\Users\Zachary\AppData\Local\Temp\ccv8jLse.s 			page 6


 168:.\Generated_Source\PSoC4/BLE_hts.c **** ******************************************************************************/
 169:.\Generated_Source\PSoC4/BLE_hts.c **** CYBLE_API_RESULT_T CyBle_HtssSetCharacteristicValue(CYBLE_HTS_CHAR_INDEX_T charIndex,
 170:.\Generated_Source\PSoC4/BLE_hts.c ****     uint8 attrSize, uint8 *attrValue)
 171:.\Generated_Source\PSoC4/BLE_hts.c **** {
 119              		.loc 1 171 0
 120              		.cfi_startproc
 121 0000 80B5     		push	{r7, lr}
 122              		.cfi_def_cfa_offset 8
 123              		.cfi_offset 7, -8
 124              		.cfi_offset 14, -4
 125 0002 86B0     		sub	sp, sp, #24
 126              		.cfi_def_cfa_offset 32
 127 0004 00AF     		add	r7, sp, #0
 128              		.cfi_def_cfa_register 7
 129 0006 3A60     		str	r2, [r7]
 130 0008 FB1D     		add	r3, r7, #7
 131 000a 021C     		add	r2, r0, #0
 132 000c 1A70     		strb	r2, [r3]
 133 000e BB1D     		add	r3, r7, #6
 134 0010 0A1C     		add	r2, r1, #0
 135 0012 1A70     		strb	r2, [r3]
 172:.\Generated_Source\PSoC4/BLE_hts.c ****     CYBLE_API_RESULT_T apiResult = CYBLE_ERROR_OK;
 136              		.loc 1 172 0
 137 0014 3B1C     		mov	r3, r7
 138 0016 1633     		add	r3, r3, #22
 139 0018 0022     		mov	r2, #0
 140 001a 1A80     		strh	r2, [r3]
 173:.\Generated_Source\PSoC4/BLE_hts.c ****     CYBLE_GATT_HANDLE_VALUE_PAIR_T locHandleValuePair;
 174:.\Generated_Source\PSoC4/BLE_hts.c **** 
 175:.\Generated_Source\PSoC4/BLE_hts.c ****     if(charIndex >= CYBLE_HTS_CHAR_COUNT)
 141              		.loc 1 175 0
 142 001c FB1D     		add	r3, r7, #7
 143 001e 1B78     		ldrb	r3, [r3]
 144 0020 032B     		cmp	r3, #3
 145 0022 04D9     		bls	.L8
 176:.\Generated_Source\PSoC4/BLE_hts.c ****     {
 177:.\Generated_Source\PSoC4/BLE_hts.c ****         apiResult = CYBLE_ERROR_INVALID_PARAMETER;
 146              		.loc 1 177 0
 147 0024 3B1C     		mov	r3, r7
 148 0026 1633     		add	r3, r3, #22
 149 0028 0122     		mov	r2, #1
 150 002a 1A80     		strh	r2, [r3]
 151 002c 24E0     		b	.L9
 152              	.L8:
 178:.\Generated_Source\PSoC4/BLE_hts.c ****     }
 179:.\Generated_Source\PSoC4/BLE_hts.c ****     else
 180:.\Generated_Source\PSoC4/BLE_hts.c ****     {
 181:.\Generated_Source\PSoC4/BLE_hts.c ****         /* Store data in database */
 182:.\Generated_Source\PSoC4/BLE_hts.c ****         locHandleValuePair.attrHandle = cyBle_htss.charInfo[charIndex].charHandle;
 153              		.loc 1 182 0
 154 002e FB1D     		add	r3, r7, #7
 155 0030 1A78     		ldrb	r2, [r3]
 156 0032 1549     		ldr	r1, .L11
 157 0034 131C     		mov	r3, r2
 158 0036 5B00     		lsl	r3, r3, #1
 159 0038 9B18     		add	r3, r3, r2
 160 003a 5B00     		lsl	r3, r3, #1
ARM GAS  C:\Users\Zachary\AppData\Local\Temp\ccv8jLse.s 			page 7


 161 003c CB18     		add	r3, r1, r3
 162 003e 5A88     		ldrh	r2, [r3, #2]
 163 0040 3B1C     		mov	r3, r7
 164 0042 0833     		add	r3, r3, #8
 165 0044 1A81     		strh	r2, [r3, #8]
 183:.\Generated_Source\PSoC4/BLE_hts.c ****         locHandleValuePair.value.len = attrSize;
 166              		.loc 1 183 0
 167 0046 BB1D     		add	r3, r7, #6
 168 0048 1B78     		ldrb	r3, [r3]
 169 004a 9AB2     		uxth	r2, r3
 170 004c 3B1C     		mov	r3, r7
 171 004e 0833     		add	r3, r3, #8
 172 0050 9A80     		strh	r2, [r3, #4]
 184:.\Generated_Source\PSoC4/BLE_hts.c ****         locHandleValuePair.value.val = attrValue;
 173              		.loc 1 184 0
 174 0052 3B1C     		mov	r3, r7
 175 0054 0833     		add	r3, r3, #8
 176 0056 3A68     		ldr	r2, [r7]
 177 0058 1A60     		str	r2, [r3]
 185:.\Generated_Source\PSoC4/BLE_hts.c ****         if(CYBLE_GATT_ERR_NONE !=
 186:.\Generated_Source\PSoC4/BLE_hts.c ****             CyBle_GattsWriteAttributeValue(&locHandleValuePair, 0u, NULL, CYBLE_GATT_DB_LOCALLY_INI
 178              		.loc 1 186 0
 179 005a 3B1C     		mov	r3, r7
 180 005c 0833     		add	r3, r3, #8
 181 005e 181C     		mov	r0, r3
 182 0060 0021     		mov	r1, #0
 183 0062 0022     		mov	r2, #0
 184 0064 0023     		mov	r3, #0
 185 0066 FFF7FEFF 		bl	CyBle_GattsWriteAttributeValue
 186 006a 031C     		mov	r3, r0
 185:.\Generated_Source\PSoC4/BLE_hts.c ****         if(CYBLE_GATT_ERR_NONE !=
 187              		.loc 1 185 0
 188 006c 002B     		cmp	r3, #0
 189 006e 03D0     		beq	.L9
 187:.\Generated_Source\PSoC4/BLE_hts.c ****         {
 188:.\Generated_Source\PSoC4/BLE_hts.c ****             apiResult = CYBLE_ERROR_INVALID_PARAMETER;
 190              		.loc 1 188 0
 191 0070 3B1C     		mov	r3, r7
 192 0072 1633     		add	r3, r3, #22
 193 0074 0122     		mov	r2, #1
 194 0076 1A80     		strh	r2, [r3]
 195              	.L9:
 189:.\Generated_Source\PSoC4/BLE_hts.c ****         }
 190:.\Generated_Source\PSoC4/BLE_hts.c ****     }
 191:.\Generated_Source\PSoC4/BLE_hts.c ****     return (apiResult);
 196              		.loc 1 191 0
 197 0078 3B1C     		mov	r3, r7
 198 007a 1633     		add	r3, r3, #22
 199 007c 1B88     		ldrh	r3, [r3]
 192:.\Generated_Source\PSoC4/BLE_hts.c **** }
 200              		.loc 1 192 0
 201 007e 181C     		mov	r0, r3
 202 0080 BD46     		mov	sp, r7
 203 0082 06B0     		add	sp, sp, #24
 204              		@ sp needed
 205 0084 80BD     		pop	{r7, pc}
 206              	.L12:
ARM GAS  C:\Users\Zachary\AppData\Local\Temp\ccv8jLse.s 			page 8


 207 0086 C046     		.align	2
 208              	.L11:
 209 0088 00000000 		.word	cyBle_htss
 210              		.cfi_endproc
 211              	.LFE4:
 212              		.size	CyBle_HtssSetCharacteristicValue, .-CyBle_HtssSetCharacteristicValue
 213              		.section	.text.CyBle_HtssGetCharacteristicValue,"ax",%progbits
 214              		.align	2
 215              		.global	CyBle_HtssGetCharacteristicValue
 216              		.code	16
 217              		.thumb_func
 218              		.type	CyBle_HtssGetCharacteristicValue, %function
 219              	CyBle_HtssGetCharacteristicValue:
 220              	.LFB5:
 193:.\Generated_Source\PSoC4/BLE_hts.c **** 
 194:.\Generated_Source\PSoC4/BLE_hts.c **** 
 195:.\Generated_Source\PSoC4/BLE_hts.c **** /******************************************************************************
 196:.\Generated_Source\PSoC4/BLE_hts.c **** ##Function Name: CyBle_HtssGetCharacteristicValue
 197:.\Generated_Source\PSoC4/BLE_hts.c **** *******************************************************************************
 198:.\Generated_Source\PSoC4/BLE_hts.c **** 
 199:.\Generated_Source\PSoC4/BLE_hts.c **** Summary:
 200:.\Generated_Source\PSoC4/BLE_hts.c ****  Gets the characteristic value of the service, which is a value identified by
 201:.\Generated_Source\PSoC4/BLE_hts.c ****  charIndex.
 202:.\Generated_Source\PSoC4/BLE_hts.c **** 
 203:.\Generated_Source\PSoC4/BLE_hts.c **** Parameters:
 204:.\Generated_Source\PSoC4/BLE_hts.c ****  charIndex: The index of the service characteristic.
 205:.\Generated_Source\PSoC4/BLE_hts.c ****  attrSize: The size of the characteristic value attribute.
 206:.\Generated_Source\PSoC4/BLE_hts.c ****  *attrValue: The pointer to the location where characteristic value data
 207:.\Generated_Source\PSoC4/BLE_hts.c ****               should be stored.
 208:.\Generated_Source\PSoC4/BLE_hts.c **** 
 209:.\Generated_Source\PSoC4/BLE_hts.c **** Return:
 210:.\Generated_Source\PSoC4/BLE_hts.c ****  Return value is of type CYBLE_API_RESULT_T.
 211:.\Generated_Source\PSoC4/BLE_hts.c ****  * CYBLE_ERROR_OK - The request handled successfully
 212:.\Generated_Source\PSoC4/BLE_hts.c ****  * CYBLE_ERROR_INVALID_PARAMETER - Validation of the input parameter failed
 213:.\Generated_Source\PSoC4/BLE_hts.c **** 
 214:.\Generated_Source\PSoC4/BLE_hts.c **** ******************************************************************************/
 215:.\Generated_Source\PSoC4/BLE_hts.c **** CYBLE_API_RESULT_T CyBle_HtssGetCharacteristicValue(CYBLE_HTS_CHAR_INDEX_T charIndex,
 216:.\Generated_Source\PSoC4/BLE_hts.c ****     uint8 attrSize, uint8 *attrValue)
 217:.\Generated_Source\PSoC4/BLE_hts.c **** {
 221              		.loc 1 217 0
 222              		.cfi_startproc
 223 0000 80B5     		push	{r7, lr}
 224              		.cfi_def_cfa_offset 8
 225              		.cfi_offset 7, -8
 226              		.cfi_offset 14, -4
 227 0002 86B0     		sub	sp, sp, #24
 228              		.cfi_def_cfa_offset 32
 229 0004 00AF     		add	r7, sp, #0
 230              		.cfi_def_cfa_register 7
 231 0006 3A60     		str	r2, [r7]
 232 0008 FB1D     		add	r3, r7, #7
 233 000a 021C     		add	r2, r0, #0
 234 000c 1A70     		strb	r2, [r3]
 235 000e BB1D     		add	r3, r7, #6
 236 0010 0A1C     		add	r2, r1, #0
 237 0012 1A70     		strb	r2, [r3]
 218:.\Generated_Source\PSoC4/BLE_hts.c ****     CYBLE_API_RESULT_T apiResult = CYBLE_ERROR_OK;
ARM GAS  C:\Users\Zachary\AppData\Local\Temp\ccv8jLse.s 			page 9


 238              		.loc 1 218 0
 239 0014 3B1C     		mov	r3, r7
 240 0016 1633     		add	r3, r3, #22
 241 0018 0022     		mov	r2, #0
 242 001a 1A80     		strh	r2, [r3]
 219:.\Generated_Source\PSoC4/BLE_hts.c ****     CYBLE_GATT_HANDLE_VALUE_PAIR_T locHandleValuePair;
 220:.\Generated_Source\PSoC4/BLE_hts.c **** 
 221:.\Generated_Source\PSoC4/BLE_hts.c ****     if(charIndex >= CYBLE_HTS_CHAR_COUNT)
 243              		.loc 1 221 0
 244 001c FB1D     		add	r3, r7, #7
 245 001e 1B78     		ldrb	r3, [r3]
 246 0020 032B     		cmp	r3, #3
 247 0022 04D9     		bls	.L14
 222:.\Generated_Source\PSoC4/BLE_hts.c ****     {
 223:.\Generated_Source\PSoC4/BLE_hts.c ****         apiResult = CYBLE_ERROR_INVALID_PARAMETER;
 248              		.loc 1 223 0
 249 0024 3B1C     		mov	r3, r7
 250 0026 1633     		add	r3, r3, #22
 251 0028 0122     		mov	r2, #1
 252 002a 1A80     		strh	r2, [r3]
 253 002c 23E0     		b	.L15
 254              	.L14:
 224:.\Generated_Source\PSoC4/BLE_hts.c ****     }
 225:.\Generated_Source\PSoC4/BLE_hts.c ****     else
 226:.\Generated_Source\PSoC4/BLE_hts.c ****     {
 227:.\Generated_Source\PSoC4/BLE_hts.c ****         /* Read characteristic value from database */
 228:.\Generated_Source\PSoC4/BLE_hts.c ****         locHandleValuePair.attrHandle = cyBle_htss.charInfo[charIndex].charHandle;
 255              		.loc 1 228 0
 256 002e FB1D     		add	r3, r7, #7
 257 0030 1A78     		ldrb	r2, [r3]
 258 0032 1449     		ldr	r1, .L17
 259 0034 131C     		mov	r3, r2
 260 0036 5B00     		lsl	r3, r3, #1
 261 0038 9B18     		add	r3, r3, r2
 262 003a 5B00     		lsl	r3, r3, #1
 263 003c CB18     		add	r3, r1, r3
 264 003e 5A88     		ldrh	r2, [r3, #2]
 265 0040 3B1C     		mov	r3, r7
 266 0042 0833     		add	r3, r3, #8
 267 0044 1A81     		strh	r2, [r3, #8]
 229:.\Generated_Source\PSoC4/BLE_hts.c ****         locHandleValuePair.value.len = attrSize;
 268              		.loc 1 229 0
 269 0046 BB1D     		add	r3, r7, #6
 270 0048 1B78     		ldrb	r3, [r3]
 271 004a 9AB2     		uxth	r2, r3
 272 004c 3B1C     		mov	r3, r7
 273 004e 0833     		add	r3, r3, #8
 274 0050 9A80     		strh	r2, [r3, #4]
 230:.\Generated_Source\PSoC4/BLE_hts.c ****         locHandleValuePair.value.val = attrValue;
 275              		.loc 1 230 0
 276 0052 3B1C     		mov	r3, r7
 277 0054 0833     		add	r3, r3, #8
 278 0056 3A68     		ldr	r2, [r7]
 279 0058 1A60     		str	r2, [r3]
 231:.\Generated_Source\PSoC4/BLE_hts.c ****         if(CYBLE_GATT_ERR_NONE !=
 232:.\Generated_Source\PSoC4/BLE_hts.c ****             CyBle_GattsReadAttributeValue(&locHandleValuePair, NULL, CYBLE_GATT_DB_LOCALLY_INITIATE
 280              		.loc 1 232 0
ARM GAS  C:\Users\Zachary\AppData\Local\Temp\ccv8jLse.s 			page 10


 281 005a 3B1C     		mov	r3, r7
 282 005c 0833     		add	r3, r3, #8
 283 005e 181C     		mov	r0, r3
 284 0060 0021     		mov	r1, #0
 285 0062 0022     		mov	r2, #0
 286 0064 FFF7FEFF 		bl	CyBle_GattsReadAttributeValue
 287 0068 031C     		mov	r3, r0
 231:.\Generated_Source\PSoC4/BLE_hts.c ****         if(CYBLE_GATT_ERR_NONE !=
 288              		.loc 1 231 0
 289 006a 002B     		cmp	r3, #0
 290 006c 03D0     		beq	.L15
 233:.\Generated_Source\PSoC4/BLE_hts.c ****         {
 234:.\Generated_Source\PSoC4/BLE_hts.c ****             apiResult = CYBLE_ERROR_INVALID_PARAMETER;
 291              		.loc 1 234 0
 292 006e 3B1C     		mov	r3, r7
 293 0070 1633     		add	r3, r3, #22
 294 0072 0122     		mov	r2, #1
 295 0074 1A80     		strh	r2, [r3]
 296              	.L15:
 235:.\Generated_Source\PSoC4/BLE_hts.c ****         }
 236:.\Generated_Source\PSoC4/BLE_hts.c ****     }
 237:.\Generated_Source\PSoC4/BLE_hts.c ****     return (apiResult);
 297              		.loc 1 237 0
 298 0076 3B1C     		mov	r3, r7
 299 0078 1633     		add	r3, r3, #22
 300 007a 1B88     		ldrh	r3, [r3]
 238:.\Generated_Source\PSoC4/BLE_hts.c **** }
 301              		.loc 1 238 0
 302 007c 181C     		mov	r0, r3
 303 007e BD46     		mov	sp, r7
 304 0080 06B0     		add	sp, sp, #24
 305              		@ sp needed
 306 0082 80BD     		pop	{r7, pc}
 307              	.L18:
 308              		.align	2
 309              	.L17:
 310 0084 00000000 		.word	cyBle_htss
 311              		.cfi_endproc
 312              	.LFE5:
 313              		.size	CyBle_HtssGetCharacteristicValue, .-CyBle_HtssGetCharacteristicValue
 314              		.section	.text.CyBle_HtssSetCharacteristicDescriptor,"ax",%progbits
 315              		.align	2
 316              		.global	CyBle_HtssSetCharacteristicDescriptor
 317              		.code	16
 318              		.thumb_func
 319              		.type	CyBle_HtssSetCharacteristicDescriptor, %function
 320              	CyBle_HtssSetCharacteristicDescriptor:
 321              	.LFB6:
 239:.\Generated_Source\PSoC4/BLE_hts.c **** 
 240:.\Generated_Source\PSoC4/BLE_hts.c **** 
 241:.\Generated_Source\PSoC4/BLE_hts.c **** /******************************************************************************
 242:.\Generated_Source\PSoC4/BLE_hts.c **** ##Function Name: CyBle_HtssSetCharacteristicDescriptor
 243:.\Generated_Source\PSoC4/BLE_hts.c **** *******************************************************************************
 244:.\Generated_Source\PSoC4/BLE_hts.c **** 
 245:.\Generated_Source\PSoC4/BLE_hts.c **** Summary:
 246:.\Generated_Source\PSoC4/BLE_hts.c ****  Sets the characteristic descriptor of the specified characteristic.
 247:.\Generated_Source\PSoC4/BLE_hts.c **** 
ARM GAS  C:\Users\Zachary\AppData\Local\Temp\ccv8jLse.s 			page 11


 248:.\Generated_Source\PSoC4/BLE_hts.c **** Parameters:
 249:.\Generated_Source\PSoC4/BLE_hts.c ****  charIndex:  The index of the service characteristic.
 250:.\Generated_Source\PSoC4/BLE_hts.c ****  descrIndex: The index of the service characteristic descriptor.
 251:.\Generated_Source\PSoC4/BLE_hts.c ****  attrSize:   The size of the characteristic descriptor attribute.
 252:.\Generated_Source\PSoC4/BLE_hts.c ****  *attrValue: The pointer to the descriptor value data that should 
 253:.\Generated_Source\PSoC4/BLE_hts.c ****              be stored in the GATT database. 
 254:.\Generated_Source\PSoC4/BLE_hts.c **** 
 255:.\Generated_Source\PSoC4/BLE_hts.c **** Return:
 256:.\Generated_Source\PSoC4/BLE_hts.c ****  Return value is of type CYBLE_API_RESULT_T.
 257:.\Generated_Source\PSoC4/BLE_hts.c ****  * CYBLE_ERROR_OK - The request handled successfully
 258:.\Generated_Source\PSoC4/BLE_hts.c ****  * CYBLE_ERROR_INVALID_PARAMETER - Validation of the input parameter failed
 259:.\Generated_Source\PSoC4/BLE_hts.c **** 
 260:.\Generated_Source\PSoC4/BLE_hts.c **** ******************************************************************************/
 261:.\Generated_Source\PSoC4/BLE_hts.c **** CYBLE_API_RESULT_T CyBle_HtssSetCharacteristicDescriptor(CYBLE_HTS_CHAR_INDEX_T charIndex,
 262:.\Generated_Source\PSoC4/BLE_hts.c ****     CYBLE_HTS_DESCR_INDEX_T descrIndex, uint8 attrSize, uint8 *attrValue)
 263:.\Generated_Source\PSoC4/BLE_hts.c **** {
 322              		.loc 1 263 0
 323              		.cfi_startproc
 324 0000 80B5     		push	{r7, lr}
 325              		.cfi_def_cfa_offset 8
 326              		.cfi_offset 7, -8
 327              		.cfi_offset 14, -4
 328 0002 86B0     		sub	sp, sp, #24
 329              		.cfi_def_cfa_offset 32
 330 0004 00AF     		add	r7, sp, #0
 331              		.cfi_def_cfa_register 7
 332 0006 3B60     		str	r3, [r7]
 333 0008 FB1D     		add	r3, r7, #7
 334 000a 1870     		strb	r0, [r3]
 335 000c BB1D     		add	r3, r7, #6
 336 000e 1970     		strb	r1, [r3]
 337 0010 7B1D     		add	r3, r7, #5
 338 0012 1A70     		strb	r2, [r3]
 264:.\Generated_Source\PSoC4/BLE_hts.c ****     CYBLE_API_RESULT_T apiResult = CYBLE_ERROR_OK;
 339              		.loc 1 264 0
 340 0014 3B1C     		mov	r3, r7
 341 0016 1633     		add	r3, r3, #22
 342 0018 0022     		mov	r2, #0
 343 001a 1A80     		strh	r2, [r3]
 265:.\Generated_Source\PSoC4/BLE_hts.c ****     CYBLE_GATT_HANDLE_VALUE_PAIR_T locHandleValuePair;
 266:.\Generated_Source\PSoC4/BLE_hts.c **** 
 267:.\Generated_Source\PSoC4/BLE_hts.c ****     if((charIndex >= CYBLE_HTS_CHAR_COUNT) || (descrIndex >= CYBLE_HTS_DESCR_COUNT))
 344              		.loc 1 267 0
 345 001c FB1D     		add	r3, r7, #7
 346 001e 1B78     		ldrb	r3, [r3]
 347 0020 032B     		cmp	r3, #3
 348 0022 03D8     		bhi	.L20
 349              		.loc 1 267 0 is_stmt 0 discriminator 1
 350 0024 BB1D     		add	r3, r7, #6
 351 0026 1B78     		ldrb	r3, [r3]
 352 0028 012B     		cmp	r3, #1
 353 002a 04D9     		bls	.L21
 354              	.L20:
 268:.\Generated_Source\PSoC4/BLE_hts.c ****     {
 269:.\Generated_Source\PSoC4/BLE_hts.c ****         apiResult = CYBLE_ERROR_INVALID_PARAMETER;
 355              		.loc 1 269 0 is_stmt 1
 356 002c 3B1C     		mov	r3, r7
ARM GAS  C:\Users\Zachary\AppData\Local\Temp\ccv8jLse.s 			page 12


 357 002e 1633     		add	r3, r3, #22
 358 0030 0122     		mov	r2, #1
 359 0032 1A80     		strh	r2, [r3]
 360 0034 31E0     		b	.L22
 361              	.L21:
 270:.\Generated_Source\PSoC4/BLE_hts.c ****     }
 271:.\Generated_Source\PSoC4/BLE_hts.c ****     else
 272:.\Generated_Source\PSoC4/BLE_hts.c ****     {
 273:.\Generated_Source\PSoC4/BLE_hts.c ****         locHandleValuePair.attrHandle = cyBle_htss.charInfo[charIndex].descrHandle[descrIndex];
 362              		.loc 1 273 0
 363 0036 FB1D     		add	r3, r7, #7
 364 0038 1A78     		ldrb	r2, [r3]
 365 003a BB1D     		add	r3, r7, #6
 366 003c 1878     		ldrb	r0, [r3]
 367 003e 1A49     		ldr	r1, .L26
 368 0040 131C     		mov	r3, r2
 369 0042 5B00     		lsl	r3, r3, #1
 370 0044 9B18     		add	r3, r3, r2
 371 0046 1B18     		add	r3, r3, r0
 372 0048 5B00     		lsl	r3, r3, #1
 373 004a CB18     		add	r3, r1, r3
 374 004c 9A88     		ldrh	r2, [r3, #4]
 375 004e 3B1C     		mov	r3, r7
 376 0050 0833     		add	r3, r3, #8
 377 0052 1A81     		strh	r2, [r3, #8]
 274:.\Generated_Source\PSoC4/BLE_hts.c ****         if(locHandleValuePair.attrHandle != CYBLE_GATT_INVALID_ATTR_HANDLE_VALUE)
 378              		.loc 1 274 0
 379 0054 3B1C     		mov	r3, r7
 380 0056 0833     		add	r3, r3, #8
 381 0058 1B89     		ldrh	r3, [r3, #8]
 382 005a 002B     		cmp	r3, #0
 383 005c 19D0     		beq	.L23
 275:.\Generated_Source\PSoC4/BLE_hts.c ****         {
 276:.\Generated_Source\PSoC4/BLE_hts.c ****             locHandleValuePair.value.len = attrSize;
 384              		.loc 1 276 0
 385 005e 7B1D     		add	r3, r7, #5
 386 0060 1B78     		ldrb	r3, [r3]
 387 0062 9AB2     		uxth	r2, r3
 388 0064 3B1C     		mov	r3, r7
 389 0066 0833     		add	r3, r3, #8
 390 0068 9A80     		strh	r2, [r3, #4]
 277:.\Generated_Source\PSoC4/BLE_hts.c ****             locHandleValuePair.value.val = attrValue;
 391              		.loc 1 277 0
 392 006a 3B1C     		mov	r3, r7
 393 006c 0833     		add	r3, r3, #8
 394 006e 3A68     		ldr	r2, [r7]
 395 0070 1A60     		str	r2, [r3]
 278:.\Generated_Source\PSoC4/BLE_hts.c ****             if(CYBLE_GATT_ERR_NONE !=
 279:.\Generated_Source\PSoC4/BLE_hts.c ****                 CyBle_GattsWriteAttributeValue(&locHandleValuePair, 0u, NULL, CYBLE_GATT_DB_LOCALLY
 396              		.loc 1 279 0
 397 0072 3B1C     		mov	r3, r7
 398 0074 0833     		add	r3, r3, #8
 399 0076 181C     		mov	r0, r3
 400 0078 0021     		mov	r1, #0
 401 007a 0022     		mov	r2, #0
 402 007c 0023     		mov	r3, #0
 403 007e FFF7FEFF 		bl	CyBle_GattsWriteAttributeValue
ARM GAS  C:\Users\Zachary\AppData\Local\Temp\ccv8jLse.s 			page 13


 404 0082 031C     		mov	r3, r0
 278:.\Generated_Source\PSoC4/BLE_hts.c ****             if(CYBLE_GATT_ERR_NONE !=
 405              		.loc 1 278 0
 406 0084 002B     		cmp	r3, #0
 407 0086 08D0     		beq	.L22
 280:.\Generated_Source\PSoC4/BLE_hts.c ****             {
 281:.\Generated_Source\PSoC4/BLE_hts.c ****                 apiResult = CYBLE_ERROR_INVALID_PARAMETER;
 408              		.loc 1 281 0
 409 0088 3B1C     		mov	r3, r7
 410 008a 1633     		add	r3, r3, #22
 411 008c 0122     		mov	r2, #1
 412 008e 1A80     		strh	r2, [r3]
 413 0090 03E0     		b	.L22
 414              	.L23:
 282:.\Generated_Source\PSoC4/BLE_hts.c ****             }
 283:.\Generated_Source\PSoC4/BLE_hts.c ****         }
 284:.\Generated_Source\PSoC4/BLE_hts.c ****         else
 285:.\Generated_Source\PSoC4/BLE_hts.c ****         {
 286:.\Generated_Source\PSoC4/BLE_hts.c ****             apiResult = CYBLE_ERROR_INVALID_PARAMETER;
 415              		.loc 1 286 0
 416 0092 3B1C     		mov	r3, r7
 417 0094 1633     		add	r3, r3, #22
 418 0096 0122     		mov	r2, #1
 419 0098 1A80     		strh	r2, [r3]
 420              	.L22:
 287:.\Generated_Source\PSoC4/BLE_hts.c ****         }
 288:.\Generated_Source\PSoC4/BLE_hts.c ****     }
 289:.\Generated_Source\PSoC4/BLE_hts.c ****     return (apiResult);
 421              		.loc 1 289 0
 422 009a 3B1C     		mov	r3, r7
 423 009c 1633     		add	r3, r3, #22
 424 009e 1B88     		ldrh	r3, [r3]
 290:.\Generated_Source\PSoC4/BLE_hts.c **** }
 425              		.loc 1 290 0
 426 00a0 181C     		mov	r0, r3
 427 00a2 BD46     		mov	sp, r7
 428 00a4 06B0     		add	sp, sp, #24
 429              		@ sp needed
 430 00a6 80BD     		pop	{r7, pc}
 431              	.L27:
 432              		.align	2
 433              	.L26:
 434 00a8 00000000 		.word	cyBle_htss
 435              		.cfi_endproc
 436              	.LFE6:
 437              		.size	CyBle_HtssSetCharacteristicDescriptor, .-CyBle_HtssSetCharacteristicDescriptor
 438              		.section	.text.CyBle_HtssGetCharacteristicDescriptor,"ax",%progbits
 439              		.align	2
 440              		.global	CyBle_HtssGetCharacteristicDescriptor
 441              		.code	16
 442              		.thumb_func
 443              		.type	CyBle_HtssGetCharacteristicDescriptor, %function
 444              	CyBle_HtssGetCharacteristicDescriptor:
 445              	.LFB7:
 291:.\Generated_Source\PSoC4/BLE_hts.c **** 
 292:.\Generated_Source\PSoC4/BLE_hts.c **** 
 293:.\Generated_Source\PSoC4/BLE_hts.c **** /******************************************************************************
ARM GAS  C:\Users\Zachary\AppData\Local\Temp\ccv8jLse.s 			page 14


 294:.\Generated_Source\PSoC4/BLE_hts.c **** ##Function Name: CyBle_HtssGetCharacteristicDescriptor
 295:.\Generated_Source\PSoC4/BLE_hts.c **** *******************************************************************************
 296:.\Generated_Source\PSoC4/BLE_hts.c **** 
 297:.\Generated_Source\PSoC4/BLE_hts.c **** Summary:
 298:.\Generated_Source\PSoC4/BLE_hts.c ****  Gets the characteristic descriptor of the specified characteristic.
 299:.\Generated_Source\PSoC4/BLE_hts.c **** 
 300:.\Generated_Source\PSoC4/BLE_hts.c **** Parameters:
 301:.\Generated_Source\PSoC4/BLE_hts.c ****  charIndex: The index of the service characteristic.
 302:.\Generated_Source\PSoC4/BLE_hts.c ****  descrIndex: The index of the service characteristic descriptor.
 303:.\Generated_Source\PSoC4/BLE_hts.c ****  attrSize: The size of the characteristic descriptor attribute.
 304:.\Generated_Source\PSoC4/BLE_hts.c ****  *attrValue: The pointer to the location where characteristic descriptor
 305:.\Generated_Source\PSoC4/BLE_hts.c ****               value data should be stored.
 306:.\Generated_Source\PSoC4/BLE_hts.c **** 
 307:.\Generated_Source\PSoC4/BLE_hts.c **** Return:
 308:.\Generated_Source\PSoC4/BLE_hts.c ****  Return value is of type CYBLE_API_RESULT_T.
 309:.\Generated_Source\PSoC4/BLE_hts.c ****  * CYBLE_ERROR_OK - The request handled successfully
 310:.\Generated_Source\PSoC4/BLE_hts.c ****  * CYBLE_ERROR_INVALID_PARAMETER - Validation of the input parameter failed
 311:.\Generated_Source\PSoC4/BLE_hts.c **** 
 312:.\Generated_Source\PSoC4/BLE_hts.c **** ******************************************************************************/
 313:.\Generated_Source\PSoC4/BLE_hts.c **** CYBLE_API_RESULT_T CyBle_HtssGetCharacteristicDescriptor(CYBLE_HTS_CHAR_INDEX_T charIndex,
 314:.\Generated_Source\PSoC4/BLE_hts.c ****     CYBLE_HTS_DESCR_INDEX_T descrIndex, uint8 attrSize, uint8 *attrValue)
 315:.\Generated_Source\PSoC4/BLE_hts.c **** {
 446              		.loc 1 315 0
 447              		.cfi_startproc
 448 0000 80B5     		push	{r7, lr}
 449              		.cfi_def_cfa_offset 8
 450              		.cfi_offset 7, -8
 451              		.cfi_offset 14, -4
 452 0002 86B0     		sub	sp, sp, #24
 453              		.cfi_def_cfa_offset 32
 454 0004 00AF     		add	r7, sp, #0
 455              		.cfi_def_cfa_register 7
 456 0006 3B60     		str	r3, [r7]
 457 0008 FB1D     		add	r3, r7, #7
 458 000a 1870     		strb	r0, [r3]
 459 000c BB1D     		add	r3, r7, #6
 460 000e 1970     		strb	r1, [r3]
 461 0010 7B1D     		add	r3, r7, #5
 462 0012 1A70     		strb	r2, [r3]
 316:.\Generated_Source\PSoC4/BLE_hts.c ****     CYBLE_API_RESULT_T apiResult = CYBLE_ERROR_OK;
 463              		.loc 1 316 0
 464 0014 3B1C     		mov	r3, r7
 465 0016 1633     		add	r3, r3, #22
 466 0018 0022     		mov	r2, #0
 467 001a 1A80     		strh	r2, [r3]
 317:.\Generated_Source\PSoC4/BLE_hts.c ****     CYBLE_GATT_HANDLE_VALUE_PAIR_T locHandleValuePair;
 318:.\Generated_Source\PSoC4/BLE_hts.c **** 
 319:.\Generated_Source\PSoC4/BLE_hts.c ****     if((charIndex >= CYBLE_HTS_CHAR_COUNT) || (descrIndex >= CYBLE_HTS_DESCR_COUNT))
 468              		.loc 1 319 0
 469 001c FB1D     		add	r3, r7, #7
 470 001e 1B78     		ldrb	r3, [r3]
 471 0020 032B     		cmp	r3, #3
 472 0022 03D8     		bhi	.L29
 473              		.loc 1 319 0 is_stmt 0 discriminator 1
 474 0024 BB1D     		add	r3, r7, #6
 475 0026 1B78     		ldrb	r3, [r3]
 476 0028 012B     		cmp	r3, #1
ARM GAS  C:\Users\Zachary\AppData\Local\Temp\ccv8jLse.s 			page 15


 477 002a 04D9     		bls	.L30
 478              	.L29:
 320:.\Generated_Source\PSoC4/BLE_hts.c ****     {
 321:.\Generated_Source\PSoC4/BLE_hts.c ****         apiResult = CYBLE_ERROR_INVALID_PARAMETER;
 479              		.loc 1 321 0 is_stmt 1
 480 002c 3B1C     		mov	r3, r7
 481 002e 1633     		add	r3, r3, #22
 482 0030 0122     		mov	r2, #1
 483 0032 1A80     		strh	r2, [r3]
 484 0034 30E0     		b	.L31
 485              	.L30:
 322:.\Generated_Source\PSoC4/BLE_hts.c ****     }
 323:.\Generated_Source\PSoC4/BLE_hts.c ****     else
 324:.\Generated_Source\PSoC4/BLE_hts.c ****     {
 325:.\Generated_Source\PSoC4/BLE_hts.c ****         locHandleValuePair.attrHandle = cyBle_htss.charInfo[charIndex].descrHandle[descrIndex];
 486              		.loc 1 325 0
 487 0036 FB1D     		add	r3, r7, #7
 488 0038 1A78     		ldrb	r2, [r3]
 489 003a BB1D     		add	r3, r7, #6
 490 003c 1878     		ldrb	r0, [r3]
 491 003e 1A49     		ldr	r1, .L35
 492 0040 131C     		mov	r3, r2
 493 0042 5B00     		lsl	r3, r3, #1
 494 0044 9B18     		add	r3, r3, r2
 495 0046 1B18     		add	r3, r3, r0
 496 0048 5B00     		lsl	r3, r3, #1
 497 004a CB18     		add	r3, r1, r3
 498 004c 9A88     		ldrh	r2, [r3, #4]
 499 004e 3B1C     		mov	r3, r7
 500 0050 0833     		add	r3, r3, #8
 501 0052 1A81     		strh	r2, [r3, #8]
 326:.\Generated_Source\PSoC4/BLE_hts.c ****         if(locHandleValuePair.attrHandle != CYBLE_GATT_INVALID_ATTR_HANDLE_VALUE)
 502              		.loc 1 326 0
 503 0054 3B1C     		mov	r3, r7
 504 0056 0833     		add	r3, r3, #8
 505 0058 1B89     		ldrh	r3, [r3, #8]
 506 005a 002B     		cmp	r3, #0
 507 005c 18D0     		beq	.L32
 327:.\Generated_Source\PSoC4/BLE_hts.c ****         {
 328:.\Generated_Source\PSoC4/BLE_hts.c ****             locHandleValuePair.value.len = attrSize;
 508              		.loc 1 328 0
 509 005e 7B1D     		add	r3, r7, #5
 510 0060 1B78     		ldrb	r3, [r3]
 511 0062 9AB2     		uxth	r2, r3
 512 0064 3B1C     		mov	r3, r7
 513 0066 0833     		add	r3, r3, #8
 514 0068 9A80     		strh	r2, [r3, #4]
 329:.\Generated_Source\PSoC4/BLE_hts.c ****             locHandleValuePair.value.val = attrValue;
 515              		.loc 1 329 0
 516 006a 3B1C     		mov	r3, r7
 517 006c 0833     		add	r3, r3, #8
 518 006e 3A68     		ldr	r2, [r7]
 519 0070 1A60     		str	r2, [r3]
 330:.\Generated_Source\PSoC4/BLE_hts.c ****             if(CYBLE_GATT_ERR_NONE !=
 331:.\Generated_Source\PSoC4/BLE_hts.c ****                 CyBle_GattsReadAttributeValue(&locHandleValuePair, NULL, CYBLE_GATT_DB_LOCALLY_INIT
 520              		.loc 1 331 0
 521 0072 3B1C     		mov	r3, r7
ARM GAS  C:\Users\Zachary\AppData\Local\Temp\ccv8jLse.s 			page 16


 522 0074 0833     		add	r3, r3, #8
 523 0076 181C     		mov	r0, r3
 524 0078 0021     		mov	r1, #0
 525 007a 0022     		mov	r2, #0
 526 007c FFF7FEFF 		bl	CyBle_GattsReadAttributeValue
 527 0080 031C     		mov	r3, r0
 330:.\Generated_Source\PSoC4/BLE_hts.c ****             if(CYBLE_GATT_ERR_NONE !=
 528              		.loc 1 330 0
 529 0082 002B     		cmp	r3, #0
 530 0084 08D0     		beq	.L31
 332:.\Generated_Source\PSoC4/BLE_hts.c ****             {
 333:.\Generated_Source\PSoC4/BLE_hts.c ****                 apiResult = CYBLE_ERROR_INVALID_PARAMETER;
 531              		.loc 1 333 0
 532 0086 3B1C     		mov	r3, r7
 533 0088 1633     		add	r3, r3, #22
 534 008a 0122     		mov	r2, #1
 535 008c 1A80     		strh	r2, [r3]
 536 008e 03E0     		b	.L31
 537              	.L32:
 334:.\Generated_Source\PSoC4/BLE_hts.c ****             }
 335:.\Generated_Source\PSoC4/BLE_hts.c ****         }
 336:.\Generated_Source\PSoC4/BLE_hts.c ****         else
 337:.\Generated_Source\PSoC4/BLE_hts.c ****         {
 338:.\Generated_Source\PSoC4/BLE_hts.c ****             apiResult = CYBLE_ERROR_INVALID_PARAMETER;
 538              		.loc 1 338 0
 539 0090 3B1C     		mov	r3, r7
 540 0092 1633     		add	r3, r3, #22
 541 0094 0122     		mov	r2, #1
 542 0096 1A80     		strh	r2, [r3]
 543              	.L31:
 339:.\Generated_Source\PSoC4/BLE_hts.c ****         }
 340:.\Generated_Source\PSoC4/BLE_hts.c ****     }
 341:.\Generated_Source\PSoC4/BLE_hts.c ****     return (apiResult);
 544              		.loc 1 341 0
 545 0098 3B1C     		mov	r3, r7
 546 009a 1633     		add	r3, r3, #22
 547 009c 1B88     		ldrh	r3, [r3]
 342:.\Generated_Source\PSoC4/BLE_hts.c **** }
 548              		.loc 1 342 0
 549 009e 181C     		mov	r0, r3
 550 00a0 BD46     		mov	sp, r7
 551 00a2 06B0     		add	sp, sp, #24
 552              		@ sp needed
 553 00a4 80BD     		pop	{r7, pc}
 554              	.L36:
 555 00a6 C046     		.align	2
 556              	.L35:
 557 00a8 00000000 		.word	cyBle_htss
 558              		.cfi_endproc
 559              	.LFE7:
 560              		.size	CyBle_HtssGetCharacteristicDescriptor, .-CyBle_HtssGetCharacteristicDescriptor
 561              		.section	.text.CyBle_HtssWriteEventHandler,"ax",%progbits
 562              		.align	2
 563              		.global	CyBle_HtssWriteEventHandler
 564              		.code	16
 565              		.thumb_func
 566              		.type	CyBle_HtssWriteEventHandler, %function
ARM GAS  C:\Users\Zachary\AppData\Local\Temp\ccv8jLse.s 			page 17


 567              	CyBle_HtssWriteEventHandler:
 568              	.LFB8:
 343:.\Generated_Source\PSoC4/BLE_hts.c **** 
 344:.\Generated_Source\PSoC4/BLE_hts.c **** 
 345:.\Generated_Source\PSoC4/BLE_hts.c **** /******************************************************************************
 346:.\Generated_Source\PSoC4/BLE_hts.c **** ##Function Name: CyBle_HtssWriteEventHandler
 347:.\Generated_Source\PSoC4/BLE_hts.c **** *******************************************************************************
 348:.\Generated_Source\PSoC4/BLE_hts.c **** 
 349:.\Generated_Source\PSoC4/BLE_hts.c **** Summary:
 350:.\Generated_Source\PSoC4/BLE_hts.c ****  Handles Write Request Event for HTS service.
 351:.\Generated_Source\PSoC4/BLE_hts.c **** 
 352:.\Generated_Source\PSoC4/BLE_hts.c **** Parameters:
 353:.\Generated_Source\PSoC4/BLE_hts.c ****  void *eventParam: The pointer to the data structure specified by the event.
 354:.\Generated_Source\PSoC4/BLE_hts.c **** 
 355:.\Generated_Source\PSoC4/BLE_hts.c **** Return:
 356:.\Generated_Source\PSoC4/BLE_hts.c ****  Return value is of type CYBLE_GATT_ERR_CODE_T.
 357:.\Generated_Source\PSoC4/BLE_hts.c ****   * CYBLE_GATT_ERR_NONE - Write is successful
 358:.\Generated_Source\PSoC4/BLE_hts.c **** 
 359:.\Generated_Source\PSoC4/BLE_hts.c **** ******************************************************************************/
 360:.\Generated_Source\PSoC4/BLE_hts.c **** CYBLE_GATT_ERR_CODE_T CyBle_HtssWriteEventHandler(CYBLE_GATTS_WRITE_REQ_PARAM_T *eventParam)
 361:.\Generated_Source\PSoC4/BLE_hts.c **** {
 569              		.loc 1 361 0
 570              		.cfi_startproc
 571 0000 90B5     		push	{r4, r7, lr}
 572              		.cfi_def_cfa_offset 12
 573              		.cfi_offset 4, -12
 574              		.cfi_offset 7, -8
 575              		.cfi_offset 14, -4
 576 0002 89B0     		sub	sp, sp, #36
 577              		.cfi_def_cfa_offset 48
 578 0004 00AF     		add	r7, sp, #0
 579              		.cfi_def_cfa_register 7
 580 0006 7860     		str	r0, [r7, #4]
 362:.\Generated_Source\PSoC4/BLE_hts.c ****     CYBLE_HTS_CHAR_INDEX_T locCharIndex;
 363:.\Generated_Source\PSoC4/BLE_hts.c ****     CYBLE_HTS_CHAR_VALUE_T locCharValue;
 364:.\Generated_Source\PSoC4/BLE_hts.c ****     CYBLE_GATT_ERR_CODE_T gattErr = CYBLE_GATT_ERR_NONE;
 581              		.loc 1 364 0
 582 0008 3B1C     		mov	r3, r7
 583 000a 1E33     		add	r3, r3, #30
 584 000c 0022     		mov	r2, #0
 585 000e 1A70     		strb	r2, [r3]
 365:.\Generated_Source\PSoC4/BLE_hts.c ****     uint8 locReqHandle = 0u;
 586              		.loc 1 365 0
 587 0010 3B1C     		mov	r3, r7
 588 0012 1D33     		add	r3, r3, #29
 589 0014 0022     		mov	r2, #0
 590 0016 1A70     		strb	r2, [r3]
 366:.\Generated_Source\PSoC4/BLE_hts.c **** 
 367:.\Generated_Source\PSoC4/BLE_hts.c ****     if(NULL != CyBle_HtsApplCallback)
 591              		.loc 1 367 0
 592 0018 B04B     		ldr	r3, .L53
 593 001a 1B68     		ldr	r3, [r3]
 594 001c 002B     		cmp	r3, #0
 595 001e 00D1     		bne	.LCB496
 596 0020 55E1     		b	.L38	@long jump
 597              	.LCB496:
 368:.\Generated_Source\PSoC4/BLE_hts.c ****     {
ARM GAS  C:\Users\Zachary\AppData\Local\Temp\ccv8jLse.s 			page 18


 369:.\Generated_Source\PSoC4/BLE_hts.c ****         for(locCharIndex = CYBLE_HTS_TEMP_MEASURE; (locCharIndex < CYBLE_HTS_CHAR_COUNT) && (locReq
 598              		.loc 1 369 0
 599 0022 3B1C     		mov	r3, r7
 600 0024 1F33     		add	r3, r3, #31
 601 0026 0022     		mov	r2, #0
 602 0028 1A70     		strb	r2, [r3]
 603 002a 45E1     		b	.L39
 604              	.L51:
 370:.\Generated_Source\PSoC4/BLE_hts.c ****             locCharIndex++)
 371:.\Generated_Source\PSoC4/BLE_hts.c ****         {
 372:.\Generated_Source\PSoC4/BLE_hts.c ****             
 373:.\Generated_Source\PSoC4/BLE_hts.c ****             if((eventParam->handleValPair.attrHandle == cyBle_htss.charInfo[locCharIndex].descrHand
 605              		.loc 1 373 0
 606 002c 7B68     		ldr	r3, [r7, #4]
 607 002e 9989     		ldrh	r1, [r3, #12]
 608 0030 3B1C     		mov	r3, r7
 609 0032 1F33     		add	r3, r3, #31
 610 0034 1A78     		ldrb	r2, [r3]
 611 0036 AA48     		ldr	r0, .L53+4
 612 0038 131C     		mov	r3, r2
 613 003a 5B00     		lsl	r3, r3, #1
 614 003c 9B18     		add	r3, r3, r2
 615 003e 5B00     		lsl	r3, r3, #1
 616 0040 C318     		add	r3, r0, r3
 617 0042 9B88     		ldrh	r3, [r3, #4]
 618 0044 9942     		cmp	r1, r3
 619 0046 0ED0     		beq	.L40
 374:.\Generated_Source\PSoC4/BLE_hts.c ****                (eventParam->handleValPair.attrHandle == cyBle_htss.charInfo[locCharIndex].charHandl
 620              		.loc 1 374 0 discriminator 1
 621 0048 7B68     		ldr	r3, [r7, #4]
 622 004a 9989     		ldrh	r1, [r3, #12]
 623 004c 3B1C     		mov	r3, r7
 624 004e 1F33     		add	r3, r3, #31
 625 0050 1A78     		ldrb	r2, [r3]
 626 0052 A348     		ldr	r0, .L53+4
 627 0054 131C     		mov	r3, r2
 628 0056 5B00     		lsl	r3, r3, #1
 629 0058 9B18     		add	r3, r3, r2
 630 005a 5B00     		lsl	r3, r3, #1
 631 005c C318     		add	r3, r0, r3
 632 005e 5B88     		ldrh	r3, [r3, #2]
 373:.\Generated_Source\PSoC4/BLE_hts.c ****             if((eventParam->handleValPair.attrHandle == cyBle_htss.charInfo[locCharIndex].descrHand
 633              		.loc 1 373 0 discriminator 1
 634 0060 9942     		cmp	r1, r3
 635 0062 00D0     		beq	.LCB532
 636 0064 21E1     		b	.L41	@long jump
 637              	.LCB532:
 638              	.L40:
 375:.\Generated_Source\PSoC4/BLE_hts.c ****             {
 376:.\Generated_Source\PSoC4/BLE_hts.c ****                 locCharValue.connHandle = eventParam->connHandle;
 639              		.loc 1 376 0
 640 0066 3B1C     		mov	r3, r7
 641 0068 0C33     		add	r3, r3, #12
 642 006a 7A68     		ldr	r2, [r7, #4]
 643 006c 1288     		ldrh	r2, [r2]
 644 006e 1A80     		strh	r2, [r3]
 377:.\Generated_Source\PSoC4/BLE_hts.c ****                 locCharValue.charIndex = locCharIndex;
ARM GAS  C:\Users\Zachary\AppData\Local\Temp\ccv8jLse.s 			page 19


 645              		.loc 1 377 0
 646 0070 3B1C     		mov	r3, r7
 647 0072 0C33     		add	r3, r3, #12
 648 0074 3A1C     		mov	r2, r7
 649 0076 1F32     		add	r2, r2, #31
 650 0078 1278     		ldrb	r2, [r2]
 651 007a 9A70     		strb	r2, [r3, #2]
 378:.\Generated_Source\PSoC4/BLE_hts.c ****                 locCharValue.value = &eventParam->handleValPair.value;
 652              		.loc 1 378 0
 653 007c 7B68     		ldr	r3, [r7, #4]
 654 007e 1A1D     		add	r2, r3, #4
 655 0080 3B1C     		mov	r3, r7
 656 0082 0C33     		add	r3, r3, #12
 657 0084 5A60     		str	r2, [r3, #4]
 379:.\Generated_Source\PSoC4/BLE_hts.c ****                 /* Characteristic value write request */
 380:.\Generated_Source\PSoC4/BLE_hts.c ****                 if(eventParam->handleValPair.attrHandle == cyBle_htss.charInfo[locCharIndex].charHa
 658              		.loc 1 380 0
 659 0086 7B68     		ldr	r3, [r7, #4]
 660 0088 9989     		ldrh	r1, [r3, #12]
 661 008a 3B1C     		mov	r3, r7
 662 008c 1F33     		add	r3, r3, #31
 663 008e 1A78     		ldrb	r2, [r3]
 664 0090 9348     		ldr	r0, .L53+4
 665 0092 131C     		mov	r3, r2
 666 0094 5B00     		lsl	r3, r3, #1
 667 0096 9B18     		add	r3, r3, r2
 668 0098 5B00     		lsl	r3, r3, #1
 669 009a C318     		add	r3, r0, r3
 670 009c 5B88     		ldrh	r3, [r3, #2]
 671 009e 9942     		cmp	r1, r3
 672 00a0 00D0     		beq	.LCB563
 673 00a2 78E0     		b	.L42	@long jump
 674              	.LCB563:
 381:.\Generated_Source\PSoC4/BLE_hts.c ****                 {
 382:.\Generated_Source\PSoC4/BLE_hts.c ****                     /* Validate Measure Interval value */
 383:.\Generated_Source\PSoC4/BLE_hts.c ****                     if(locCharIndex == CYBLE_HTS_MEASURE_INTERVAL)
 675              		.loc 1 383 0
 676 00a4 3B1C     		mov	r3, r7
 677 00a6 1F33     		add	r3, r3, #31
 678 00a8 1B78     		ldrb	r3, [r3]
 679 00aa 032B     		cmp	r3, #3
 680 00ac 4FD1     		bne	.L43
 681              	.LBB2:
 384:.\Generated_Source\PSoC4/BLE_hts.c ****                     {
 385:.\Generated_Source\PSoC4/BLE_hts.c ****                         uint8 locAttrValue[CYBLE_HTS_VRD_LEN];
 386:.\Generated_Source\PSoC4/BLE_hts.c ****                         uint16 requestValue;
 387:.\Generated_Source\PSoC4/BLE_hts.c ****                         
 388:.\Generated_Source\PSoC4/BLE_hts.c ****                         requestValue = CyBle_Get16ByPtr(eventParam->handleValPair.value.val);
 682              		.loc 1 388 0
 683 00ae 7B68     		ldr	r3, [r7, #4]
 684 00b0 5B68     		ldr	r3, [r3, #4]
 685 00b2 3C1C     		mov	r4, r7
 686 00b4 1A34     		add	r4, r4, #26
 687 00b6 181C     		mov	r0, r3
 688 00b8 FFF7FEFF 		bl	CyBle_Get16ByPtr
 689 00bc 031C     		mov	r3, r0
 690 00be 2380     		strh	r3, [r4]
ARM GAS  C:\Users\Zachary\AppData\Local\Temp\ccv8jLse.s 			page 20


 389:.\Generated_Source\PSoC4/BLE_hts.c ****                         
 390:.\Generated_Source\PSoC4/BLE_hts.c ****                         if(requestValue != 0u) /* 0 is valid interval value for no periodic measure
 691              		.loc 1 390 0
 692 00c0 3B1C     		mov	r3, r7
 693 00c2 1A33     		add	r3, r3, #26
 694 00c4 1B88     		ldrh	r3, [r3]
 695 00c6 002B     		cmp	r3, #0
 696 00c8 41D0     		beq	.L43
 391:.\Generated_Source\PSoC4/BLE_hts.c ****                         {
 392:.\Generated_Source\PSoC4/BLE_hts.c ****                             /* Check Valid range for Measure Interval characteristic value */
 393:.\Generated_Source\PSoC4/BLE_hts.c ****                             if(CYBLE_ERROR_OK == CyBle_HtssGetCharacteristicDescriptor(locCharIndex
 697              		.loc 1 393 0
 698 00ca 3B1C     		mov	r3, r7
 699 00cc 1F33     		add	r3, r3, #31
 700 00ce 1A78     		ldrb	r2, [r3]
 701 00d0 3B1C     		mov	r3, r7
 702 00d2 0833     		add	r3, r3, #8
 703 00d4 101C     		mov	r0, r2
 704 00d6 0121     		mov	r1, #1
 705 00d8 0422     		mov	r2, #4
 706 00da FFF7FEFF 		bl	CyBle_HtssGetCharacteristicDescriptor
 707 00de 031C     		mov	r3, r0
 708 00e0 002B     		cmp	r3, #0
 709 00e2 34D1     		bne	.L43
 710              	.LBB3:
 394:.\Generated_Source\PSoC4/BLE_hts.c ****                                                     CYBLE_HTS_VRD_LEN, locAttrValue))
 395:.\Generated_Source\PSoC4/BLE_hts.c ****                             {
 396:.\Generated_Source\PSoC4/BLE_hts.c ****                                 uint16 lowerValue;
 397:.\Generated_Source\PSoC4/BLE_hts.c ****                                 uint16 upperValue;
 398:.\Generated_Source\PSoC4/BLE_hts.c ****                                 
 399:.\Generated_Source\PSoC4/BLE_hts.c ****                                 lowerValue = CyBle_Get16ByPtr(locAttrValue);
 711              		.loc 1 399 0
 712 00e4 3C1C     		mov	r4, r7
 713 00e6 1834     		add	r4, r4, #24
 714 00e8 3B1C     		mov	r3, r7
 715 00ea 0833     		add	r3, r3, #8
 716 00ec 181C     		mov	r0, r3
 717 00ee FFF7FEFF 		bl	CyBle_Get16ByPtr
 718 00f2 031C     		mov	r3, r0
 719 00f4 2380     		strh	r3, [r4]
 400:.\Generated_Source\PSoC4/BLE_hts.c ****                                 upperValue = CyBle_Get16ByPtr(locAttrValue + sizeof(lowerValue));
 720              		.loc 1 400 0
 721 00f6 3C1C     		mov	r4, r7
 722 00f8 1634     		add	r4, r4, #22
 723 00fa 3B1C     		mov	r3, r7
 724 00fc 0833     		add	r3, r3, #8
 725 00fe 0233     		add	r3, r3, #2
 726 0100 181C     		mov	r0, r3
 727 0102 FFF7FEFF 		bl	CyBle_Get16ByPtr
 728 0106 031C     		mov	r3, r0
 729 0108 2380     		strh	r3, [r4]
 401:.\Generated_Source\PSoC4/BLE_hts.c ****                                 requestValue = CyBle_Get16ByPtr(eventParam->handleValPair.value.val
 730              		.loc 1 401 0
 731 010a 7B68     		ldr	r3, [r7, #4]
 732 010c 5B68     		ldr	r3, [r3, #4]
 733 010e 3C1C     		mov	r4, r7
 734 0110 1A34     		add	r4, r4, #26
ARM GAS  C:\Users\Zachary\AppData\Local\Temp\ccv8jLse.s 			page 21


 735 0112 181C     		mov	r0, r3
 736 0114 FFF7FEFF 		bl	CyBle_Get16ByPtr
 737 0118 031C     		mov	r3, r0
 738 011a 2380     		strh	r3, [r4]
 402:.\Generated_Source\PSoC4/BLE_hts.c ****                                 if((requestValue != 0u) && ((requestValue < lowerValue) || (request
 739              		.loc 1 402 0
 740 011c 3B1C     		mov	r3, r7
 741 011e 1A33     		add	r3, r3, #26
 742 0120 1B88     		ldrh	r3, [r3]
 743 0122 002B     		cmp	r3, #0
 744 0124 13D0     		beq	.L43
 745              		.loc 1 402 0 is_stmt 0 discriminator 1
 746 0126 3A1C     		mov	r2, r7
 747 0128 1A32     		add	r2, r2, #26
 748 012a 3B1C     		mov	r3, r7
 749 012c 1833     		add	r3, r3, #24
 750 012e 1288     		ldrh	r2, [r2]
 751 0130 1B88     		ldrh	r3, [r3]
 752 0132 9A42     		cmp	r2, r3
 753 0134 07D3     		bcc	.L45
 754 0136 3A1C     		mov	r2, r7
 755 0138 1A32     		add	r2, r2, #26
 756 013a 3B1C     		mov	r3, r7
 757 013c 1633     		add	r3, r3, #22
 758 013e 1288     		ldrh	r2, [r2]
 759 0140 1B88     		ldrh	r3, [r3]
 760 0142 9A42     		cmp	r2, r3
 761 0144 03D9     		bls	.L43
 762              	.L45:
 403:.\Generated_Source\PSoC4/BLE_hts.c ****                                 {
 404:.\Generated_Source\PSoC4/BLE_hts.c ****                                     gattErr = CYBLE_GATT_ERR_HTS_OUT_OF_RANGE;
 763              		.loc 1 404 0 is_stmt 1
 764 0146 3B1C     		mov	r3, r7
 765 0148 1E33     		add	r3, r3, #30
 766 014a 8022     		mov	r2, #128
 767 014c 1A70     		strb	r2, [r3]
 768              	.L43:
 769              	.LBE3:
 770              	.LBE2:
 405:.\Generated_Source\PSoC4/BLE_hts.c ****                                 }
 406:.\Generated_Source\PSoC4/BLE_hts.c ****                             }
 407:.\Generated_Source\PSoC4/BLE_hts.c ****                         }
 408:.\Generated_Source\PSoC4/BLE_hts.c ****                     }
 409:.\Generated_Source\PSoC4/BLE_hts.c ****                     if(CYBLE_GATT_ERR_NONE == gattErr)
 771              		.loc 1 409 0
 772 014e 3B1C     		mov	r3, r7
 773 0150 1E33     		add	r3, r3, #30
 774 0152 1B78     		ldrb	r3, [r3]
 775 0154 002B     		cmp	r3, #0
 776 0156 00D0     		beq	.LCB655
 777 0158 9BE0     		b	.L47	@long jump
 778              	.LCB655:
 410:.\Generated_Source\PSoC4/BLE_hts.c ****                     {   /* Store value to database */
 411:.\Generated_Source\PSoC4/BLE_hts.c ****                         gattErr = CyBle_GattsWriteAttributeValue(&eventParam->handleValPair, 0u, 
 779              		.loc 1 411 0
 780 015a 7B68     		ldr	r3, [r7, #4]
 781 015c 1A1D     		add	r2, r3, #4
ARM GAS  C:\Users\Zachary\AppData\Local\Temp\ccv8jLse.s 			page 22


 782 015e 7B68     		ldr	r3, [r7, #4]
 783 0160 3C1C     		mov	r4, r7
 784 0162 1E34     		add	r4, r4, #30
 785 0164 101C     		mov	r0, r2
 786 0166 0021     		mov	r1, #0
 787 0168 1A1C     		mov	r2, r3
 788 016a 4023     		mov	r3, #64
 789 016c FFF7FEFF 		bl	CyBle_GattsWriteAttributeValue
 790 0170 031C     		mov	r3, r0
 791 0172 2370     		strb	r3, [r4]
 412:.\Generated_Source\PSoC4/BLE_hts.c ****                                     &eventParam->connHandle, CYBLE_GATT_DB_PEER_INITIATED);
 413:.\Generated_Source\PSoC4/BLE_hts.c ****                         if(CYBLE_GATT_ERR_NONE == gattErr)
 792              		.loc 1 413 0
 793 0174 3B1C     		mov	r3, r7
 794 0176 1E33     		add	r3, r3, #30
 795 0178 1B78     		ldrb	r3, [r3]
 796 017a 002B     		cmp	r3, #0
 797 017c 00D0     		beq	.LCB672
 798 017e 88E0     		b	.L47	@long jump
 799              	.LCB672:
 414:.\Generated_Source\PSoC4/BLE_hts.c ****                         {
 415:.\Generated_Source\PSoC4/BLE_hts.c ****                             CyBle_HtsApplCallback((uint32)CYBLE_EVT_HTSS_CHAR_WRITE, &locCharValue)
 800              		.loc 1 415 0
 801 0180 564B     		ldr	r3, .L53
 802 0182 1B68     		ldr	r3, [r3]
 803 0184 7E22     		mov	r2, #126
 804 0186 111C     		mov	r1, r2
 805 0188 FF31     		add	r1, r1, #255
 806 018a 3A1C     		mov	r2, r7
 807 018c 0C32     		add	r2, r2, #12
 808 018e 081C     		mov	r0, r1
 809 0190 111C     		mov	r1, r2
 810 0192 9847     		blx	r3
 811 0194 7DE0     		b	.L47
 812              	.L42:
 416:.\Generated_Source\PSoC4/BLE_hts.c ****                         }
 417:.\Generated_Source\PSoC4/BLE_hts.c ****                     }    
 418:.\Generated_Source\PSoC4/BLE_hts.c ****                 }
 419:.\Generated_Source\PSoC4/BLE_hts.c ****                 else /* Client Characteristic Configuration descriptor write request */
 420:.\Generated_Source\PSoC4/BLE_hts.c ****                 {
 421:.\Generated_Source\PSoC4/BLE_hts.c ****                     /* Store value to database */
 422:.\Generated_Source\PSoC4/BLE_hts.c ****                     gattErr = CyBle_GattsWriteAttributeValue(&eventParam->handleValPair, 0u, 
 813              		.loc 1 422 0
 814 0196 7B68     		ldr	r3, [r7, #4]
 815 0198 1A1D     		add	r2, r3, #4
 816 019a 7B68     		ldr	r3, [r7, #4]
 817 019c 3C1C     		mov	r4, r7
 818 019e 1E34     		add	r4, r4, #30
 819 01a0 101C     		mov	r0, r2
 820 01a2 0021     		mov	r1, #0
 821 01a4 1A1C     		mov	r2, r3
 822 01a6 4023     		mov	r3, #64
 823 01a8 FFF7FEFF 		bl	CyBle_GattsWriteAttributeValue
 824 01ac 031C     		mov	r3, r0
 825 01ae 2370     		strb	r3, [r4]
 423:.\Generated_Source\PSoC4/BLE_hts.c ****                                     &eventParam->connHandle, CYBLE_GATT_DB_PEER_INITIATED);
 424:.\Generated_Source\PSoC4/BLE_hts.c ****                     if(CYBLE_GATT_ERR_NONE == gattErr)
ARM GAS  C:\Users\Zachary\AppData\Local\Temp\ccv8jLse.s 			page 23


 826              		.loc 1 424 0
 827 01b0 3B1C     		mov	r3, r7
 828 01b2 1E33     		add	r3, r3, #30
 829 01b4 1B78     		ldrb	r3, [r3]
 830 01b6 002B     		cmp	r3, #0
 831 01b8 6BD1     		bne	.L47
 425:.\Generated_Source\PSoC4/BLE_hts.c ****                     {
 426:.\Generated_Source\PSoC4/BLE_hts.c ****                         /* Check characteristic properties for Notification */
 427:.\Generated_Source\PSoC4/BLE_hts.c ****                         if(CYBLE_IS_NOTIFICATION_SUPPORTED(cyBle_htss.charInfo[locCharIndex].charHa
 832              		.loc 1 427 0
 833 01ba 3B1C     		mov	r3, r7
 834 01bc 1F33     		add	r3, r3, #31
 835 01be 1A78     		ldrb	r2, [r3]
 836 01c0 4749     		ldr	r1, .L53+4
 837 01c2 131C     		mov	r3, r2
 838 01c4 5B00     		lsl	r3, r3, #1
 839 01c6 9B18     		add	r3, r3, r2
 840 01c8 5B00     		lsl	r3, r3, #1
 841 01ca CB18     		add	r3, r1, r3
 842 01cc 5B88     		ldrh	r3, [r3, #2]
 843 01ce 5A1E     		sub	r2, r3, #1
 844 01d0 4449     		ldr	r1, .L53+8
 845 01d2 131C     		mov	r3, r2
 846 01d4 9B00     		lsl	r3, r3, #2
 847 01d6 9B18     		add	r3, r3, r2
 848 01d8 9B00     		lsl	r3, r3, #2
 849 01da CB18     		add	r3, r1, r3
 850 01dc 5A68     		ldr	r2, [r3, #4]
 851 01de 8023     		mov	r3, #128
 852 01e0 5B01     		lsl	r3, r3, #5
 853 01e2 1340     		and	r3, r2
 854 01e4 1FD0     		beq	.L48
 428:.\Generated_Source\PSoC4/BLE_hts.c ****                         {
 429:.\Generated_Source\PSoC4/BLE_hts.c ****                             if(CYBLE_IS_NOTIFICATION_ENABLED_IN_PTR(eventParam->handleValPair.value
 855              		.loc 1 429 0
 856 01e6 7B68     		ldr	r3, [r7, #4]
 857 01e8 5B68     		ldr	r3, [r3, #4]
 858 01ea 181C     		mov	r0, r3
 859 01ec FFF7FEFF 		bl	CyBle_Get16ByPtr
 860 01f0 031C     		mov	r3, r0
 861 01f2 1A1C     		mov	r2, r3
 862 01f4 0123     		mov	r3, #1
 863 01f6 1340     		and	r3, r2
 864 01f8 9BB2     		uxth	r3, r3
 865 01fa 002B     		cmp	r3, #0
 866 01fc 09D0     		beq	.L49
 430:.\Generated_Source\PSoC4/BLE_hts.c ****                             {
 431:.\Generated_Source\PSoC4/BLE_hts.c ****                                 CyBle_HtsApplCallback((uint32)CYBLE_EVT_HTSS_NOTIFICATION_ENABLED, 
 867              		.loc 1 431 0
 868 01fe 374B     		ldr	r3, .L53
 869 0200 1B68     		ldr	r3, [r3]
 870 0202 BC22     		mov	r2, #188
 871 0204 5100     		lsl	r1, r2, #1
 872 0206 3A1C     		mov	r2, r7
 873 0208 0C32     		add	r2, r2, #12
 874 020a 081C     		mov	r0, r1
 875 020c 111C     		mov	r1, r2
ARM GAS  C:\Users\Zachary\AppData\Local\Temp\ccv8jLse.s 			page 24


 876 020e 9847     		blx	r3
 877 0210 09E0     		b	.L48
 878              	.L49:
 432:.\Generated_Source\PSoC4/BLE_hts.c ****                             }
 433:.\Generated_Source\PSoC4/BLE_hts.c ****                             else
 434:.\Generated_Source\PSoC4/BLE_hts.c ****                             {
 435:.\Generated_Source\PSoC4/BLE_hts.c ****                                 CyBle_HtsApplCallback((uint32)CYBLE_EVT_HTSS_NOTIFICATION_DISABLED,
 879              		.loc 1 435 0
 880 0212 324B     		ldr	r3, .L53
 881 0214 1B68     		ldr	r3, [r3]
 882 0216 7A22     		mov	r2, #122
 883 0218 111C     		mov	r1, r2
 884 021a FF31     		add	r1, r1, #255
 885 021c 3A1C     		mov	r2, r7
 886 021e 0C32     		add	r2, r2, #12
 887 0220 081C     		mov	r0, r1
 888 0222 111C     		mov	r1, r2
 889 0224 9847     		blx	r3
 890              	.L48:
 436:.\Generated_Source\PSoC4/BLE_hts.c ****                             }
 437:.\Generated_Source\PSoC4/BLE_hts.c ****                         }
 438:.\Generated_Source\PSoC4/BLE_hts.c ****                         /* Check characteristic properties for Indication */
 439:.\Generated_Source\PSoC4/BLE_hts.c ****                         if(CYBLE_IS_INDICATION_SUPPORTED(cyBle_htss.charInfo[locCharIndex].charHand
 891              		.loc 1 439 0
 892 0226 3B1C     		mov	r3, r7
 893 0228 1F33     		add	r3, r3, #31
 894 022a 1A78     		ldrb	r2, [r3]
 895 022c 2C49     		ldr	r1, .L53+4
 896 022e 131C     		mov	r3, r2
 897 0230 5B00     		lsl	r3, r3, #1
 898 0232 9B18     		add	r3, r3, r2
 899 0234 5B00     		lsl	r3, r3, #1
 900 0236 CB18     		add	r3, r1, r3
 901 0238 5B88     		ldrh	r3, [r3, #2]
 902 023a 5A1E     		sub	r2, r3, #1
 903 023c 2949     		ldr	r1, .L53+8
 904 023e 131C     		mov	r3, r2
 905 0240 9B00     		lsl	r3, r3, #2
 906 0242 9B18     		add	r3, r3, r2
 907 0244 9B00     		lsl	r3, r3, #2
 908 0246 CB18     		add	r3, r1, r3
 909 0248 5A68     		ldr	r2, [r3, #4]
 910 024a 8023     		mov	r3, #128
 911 024c 9B01     		lsl	r3, r3, #6
 912 024e 1340     		and	r3, r2
 913 0250 1FD0     		beq	.L47
 440:.\Generated_Source\PSoC4/BLE_hts.c ****                         {
 441:.\Generated_Source\PSoC4/BLE_hts.c ****                             if(CYBLE_IS_INDICATION_ENABLED_IN_PTR(eventParam->handleValPair.value.v
 914              		.loc 1 441 0
 915 0252 7B68     		ldr	r3, [r7, #4]
 916 0254 5B68     		ldr	r3, [r3, #4]
 917 0256 181C     		mov	r0, r3
 918 0258 FFF7FEFF 		bl	CyBle_Get16ByPtr
 919 025c 031C     		mov	r3, r0
 920 025e 1A1C     		mov	r2, r3
 921 0260 0223     		mov	r3, #2
 922 0262 1340     		and	r3, r2
ARM GAS  C:\Users\Zachary\AppData\Local\Temp\ccv8jLse.s 			page 25


 923 0264 9BB2     		uxth	r3, r3
 924 0266 002B     		cmp	r3, #0
 925 0268 09D0     		beq	.L50
 442:.\Generated_Source\PSoC4/BLE_hts.c ****                             {
 443:.\Generated_Source\PSoC4/BLE_hts.c ****                                 CyBle_HtsApplCallback((uint32)CYBLE_EVT_HTSS_INDICATION_ENABLED, &l
 926              		.loc 1 443 0
 927 026a 1C4B     		ldr	r3, .L53
 928 026c 1B68     		ldr	r3, [r3]
 929 026e BD22     		mov	r2, #189
 930 0270 5100     		lsl	r1, r2, #1
 931 0272 3A1C     		mov	r2, r7
 932 0274 0C32     		add	r2, r2, #12
 933 0276 081C     		mov	r0, r1
 934 0278 111C     		mov	r1, r2
 935 027a 9847     		blx	r3
 936 027c 09E0     		b	.L47
 937              	.L50:
 444:.\Generated_Source\PSoC4/BLE_hts.c ****                             }
 445:.\Generated_Source\PSoC4/BLE_hts.c ****                             else
 446:.\Generated_Source\PSoC4/BLE_hts.c ****                             {
 447:.\Generated_Source\PSoC4/BLE_hts.c ****                                 CyBle_HtsApplCallback((uint32)CYBLE_EVT_HTSS_INDICATION_DISABLED, &
 938              		.loc 1 447 0
 939 027e 174B     		ldr	r3, .L53
 940 0280 1B68     		ldr	r3, [r3]
 941 0282 7C22     		mov	r2, #124
 942 0284 111C     		mov	r1, r2
 943 0286 FF31     		add	r1, r1, #255
 944 0288 3A1C     		mov	r2, r7
 945 028a 0C32     		add	r2, r2, #12
 946 028c 081C     		mov	r0, r1
 947 028e 111C     		mov	r1, r2
 948 0290 9847     		blx	r3
 949              	.L47:
 448:.\Generated_Source\PSoC4/BLE_hts.c ****                             }
 449:.\Generated_Source\PSoC4/BLE_hts.c ****                         }
 450:.\Generated_Source\PSoC4/BLE_hts.c ****                     #if((CYBLE_GAP_ROLE_PERIPHERAL || CYBLE_GAP_ROLE_CENTRAL) && \
 451:.\Generated_Source\PSoC4/BLE_hts.c ****                         (CYBLE_BONDING_REQUIREMENT == CYBLE_BONDING_YES))
 452:.\Generated_Source\PSoC4/BLE_hts.c ****                         /* Set flag to store bonding data to flash */
 453:.\Generated_Source\PSoC4/BLE_hts.c ****                         cyBle_pendingFlashWrite |= CYBLE_PENDING_CCCD_FLASH_WRITE_BIT;
 454:.\Generated_Source\PSoC4/BLE_hts.c ****                     #endif /* (CYBLE_BONDING_REQUIREMENT == CYBLE_BONDING_YES) */
 455:.\Generated_Source\PSoC4/BLE_hts.c ****                         
 456:.\Generated_Source\PSoC4/BLE_hts.c ****                     }
 457:.\Generated_Source\PSoC4/BLE_hts.c ****                 }
 458:.\Generated_Source\PSoC4/BLE_hts.c ****                 cyBle_eventHandlerFlag &= (uint8)~CYBLE_CALLBACK;
 950              		.loc 1 458 0
 951 0292 154B     		ldr	r3, .L53+12
 952 0294 1B78     		ldrb	r3, [r3]
 953 0296 DBB2     		uxtb	r3, r3
 954 0298 0122     		mov	r2, #1
 955 029a 9343     		bic	r3, r2
 956 029c DAB2     		uxtb	r2, r3
 957 029e 124B     		ldr	r3, .L53+12
 958 02a0 1A70     		strb	r2, [r3]
 459:.\Generated_Source\PSoC4/BLE_hts.c ****                 locReqHandle = 1u;
 959              		.loc 1 459 0
 960 02a2 3B1C     		mov	r3, r7
 961 02a4 1D33     		add	r3, r3, #29
ARM GAS  C:\Users\Zachary\AppData\Local\Temp\ccv8jLse.s 			page 26


 962 02a6 0122     		mov	r2, #1
 963 02a8 1A70     		strb	r2, [r3]
 964              	.L41:
 370:.\Generated_Source\PSoC4/BLE_hts.c ****             locCharIndex++)
 965              		.loc 1 370 0
 966 02aa 3B1C     		mov	r3, r7
 967 02ac 1F33     		add	r3, r3, #31
 968 02ae 1A78     		ldrb	r2, [r3]
 969 02b0 3B1C     		mov	r3, r7
 970 02b2 1F33     		add	r3, r3, #31
 971 02b4 0132     		add	r2, r2, #1
 972 02b6 1A70     		strb	r2, [r3]
 973              	.L39:
 369:.\Generated_Source\PSoC4/BLE_hts.c ****         for(locCharIndex = CYBLE_HTS_TEMP_MEASURE; (locCharIndex < CYBLE_HTS_CHAR_COUNT) && (locReq
 974              		.loc 1 369 0 discriminator 1
 975 02b8 3B1C     		mov	r3, r7
 976 02ba 1F33     		add	r3, r3, #31
 977 02bc 1B78     		ldrb	r3, [r3]
 978 02be 032B     		cmp	r3, #3
 979 02c0 05D8     		bhi	.L38
 369:.\Generated_Source\PSoC4/BLE_hts.c ****         for(locCharIndex = CYBLE_HTS_TEMP_MEASURE; (locCharIndex < CYBLE_HTS_CHAR_COUNT) && (locReq
 980              		.loc 1 369 0 is_stmt 0 discriminator 2
 981 02c2 3B1C     		mov	r3, r7
 982 02c4 1D33     		add	r3, r3, #29
 983 02c6 1B78     		ldrb	r3, [r3]
 984 02c8 002B     		cmp	r3, #0
 985 02ca 00D1     		bne	.LCB854
 986 02cc AEE6     		b	.L51	@long jump
 987              	.LCB854:
 988              	.L38:
 460:.\Generated_Source\PSoC4/BLE_hts.c ****             }
 461:.\Generated_Source\PSoC4/BLE_hts.c ****         }
 462:.\Generated_Source\PSoC4/BLE_hts.c ****     }
 463:.\Generated_Source\PSoC4/BLE_hts.c ****     return (gattErr);
 989              		.loc 1 463 0 is_stmt 1
 990 02ce 3B1C     		mov	r3, r7
 991 02d0 1E33     		add	r3, r3, #30
 992 02d2 1B78     		ldrb	r3, [r3]
 464:.\Generated_Source\PSoC4/BLE_hts.c **** }
 993              		.loc 1 464 0
 994 02d4 181C     		mov	r0, r3
 995 02d6 BD46     		mov	sp, r7
 996 02d8 09B0     		add	sp, sp, #36
 997              		@ sp needed
 998 02da 90BD     		pop	{r4, r7, pc}
 999              	.L54:
 1000              		.align	2
 1001              	.L53:
 1002 02dc 00000000 		.word	CyBle_HtsApplCallback
 1003 02e0 00000000 		.word	cyBle_htss
 1004 02e4 00000000 		.word	cyBle_gattDB
 1005 02e8 00000000 		.word	cyBle_eventHandlerFlag
 1006              		.cfi_endproc
 1007              	.LFE8:
 1008              		.size	CyBle_HtssWriteEventHandler, .-CyBle_HtssWriteEventHandler
 1009              		.section	.text.CyBle_HtssSendNotification,"ax",%progbits
 1010              		.align	2
ARM GAS  C:\Users\Zachary\AppData\Local\Temp\ccv8jLse.s 			page 27


 1011              		.global	CyBle_HtssSendNotification
 1012              		.code	16
 1013              		.thumb_func
 1014              		.type	CyBle_HtssSendNotification, %function
 1015              	CyBle_HtssSendNotification:
 1016              	.LFB9:
 465:.\Generated_Source\PSoC4/BLE_hts.c **** 
 466:.\Generated_Source\PSoC4/BLE_hts.c **** 
 467:.\Generated_Source\PSoC4/BLE_hts.c **** /******************************************************************************
 468:.\Generated_Source\PSoC4/BLE_hts.c **** ##Function Name: CyBle_HtssSendNotification
 469:.\Generated_Source\PSoC4/BLE_hts.c **** *******************************************************************************
 470:.\Generated_Source\PSoC4/BLE_hts.c **** 
 471:.\Generated_Source\PSoC4/BLE_hts.c **** Summary:
 472:.\Generated_Source\PSoC4/BLE_hts.c ****  Sends notification with a characteristic value of the Health Thermometer 
 473:.\Generated_Source\PSoC4/BLE_hts.c ****  Service, which is a value specified by charIndex, to the Client device.
 474:.\Generated_Source\PSoC4/BLE_hts.c **** 
 475:.\Generated_Source\PSoC4/BLE_hts.c **** Parameters:
 476:.\Generated_Source\PSoC4/BLE_hts.c ****  connHandle: The connection handle.
 477:.\Generated_Source\PSoC4/BLE_hts.c ****  charIndex: The index of the service characteristic.
 478:.\Generated_Source\PSoC4/BLE_hts.c ****  attrSize: The size of the characteristic value attribute.
 479:.\Generated_Source\PSoC4/BLE_hts.c ****  *attrValue: The pointer to the characteristic value data that should be 
 480:.\Generated_Source\PSoC4/BLE_hts.c ****               sent to the client's device.
 481:.\Generated_Source\PSoC4/BLE_hts.c **** 
 482:.\Generated_Source\PSoC4/BLE_hts.c **** Return:
 483:.\Generated_Source\PSoC4/BLE_hts.c ****  Return value is of type CYBLE_API_RESULT_T.
 484:.\Generated_Source\PSoC4/BLE_hts.c ****   * CYBLE_ERROR_OK - The request handled successfully
 485:.\Generated_Source\PSoC4/BLE_hts.c ****   * CYBLE_ERROR_INVALID_PARAMETER - Validation of the input parameter failed
 486:.\Generated_Source\PSoC4/BLE_hts.c ****   * CYBLE_ERROR_INVALID_OPERATION - This operation is not permitted
 487:.\Generated_Source\PSoC4/BLE_hts.c ****   * CYBLE_ERROR_INVALID_STATE - Connection with the client is not established
 488:.\Generated_Source\PSoC4/BLE_hts.c ****   * CYBLE_ERROR_MEMORY_ALLOCATION_FAILED - Memory allocation failed. 
 489:.\Generated_Source\PSoC4/BLE_hts.c ****   * CYBLE_ERROR_NTF_DISABLED - Notification is not enabled by the client.
 490:.\Generated_Source\PSoC4/BLE_hts.c **** 
 491:.\Generated_Source\PSoC4/BLE_hts.c **** ******************************************************************************/
 492:.\Generated_Source\PSoC4/BLE_hts.c **** CYBLE_API_RESULT_T CyBle_HtssSendNotification(CYBLE_CONN_HANDLE_T connHandle,
 493:.\Generated_Source\PSoC4/BLE_hts.c ****     CYBLE_HTS_CHAR_INDEX_T charIndex, uint8 attrSize, uint8 *attrValue)
 494:.\Generated_Source\PSoC4/BLE_hts.c **** {
 1017              		.loc 1 494 0
 1018              		.cfi_startproc
 1019 0000 90B5     		push	{r4, r7, lr}
 1020              		.cfi_def_cfa_offset 12
 1021              		.cfi_offset 4, -12
 1022              		.cfi_offset 7, -8
 1023              		.cfi_offset 14, -4
 1024 0002 89B0     		sub	sp, sp, #36
 1025              		.cfi_def_cfa_offset 48
 1026 0004 00AF     		add	r7, sp, #0
 1027              		.cfi_def_cfa_register 7
 1028 0006 3C1C     		mov	r4, r7
 1029 0008 0C34     		add	r4, r4, #12
 1030 000a 2080     		strh	r0, [r4]
 1031 000c 7B60     		str	r3, [r7, #4]
 1032 000e 3B1C     		mov	r3, r7
 1033 0010 0B33     		add	r3, r3, #11
 1034 0012 1970     		strb	r1, [r3]
 1035 0014 3B1C     		mov	r3, r7
 1036 0016 0A33     		add	r3, r3, #10
 1037 0018 1A70     		strb	r2, [r3]
ARM GAS  C:\Users\Zachary\AppData\Local\Temp\ccv8jLse.s 			page 28


 495:.\Generated_Source\PSoC4/BLE_hts.c **** 
 496:.\Generated_Source\PSoC4/BLE_hts.c ****     CYBLE_API_RESULT_T apiResult;
 497:.\Generated_Source\PSoC4/BLE_hts.c ****     
 498:.\Generated_Source\PSoC4/BLE_hts.c ****     /* Send Notification if it is enabled and connected */
 499:.\Generated_Source\PSoC4/BLE_hts.c ****     if(CYBLE_STATE_CONNECTED != CyBle_GetState())
 1038              		.loc 1 499 0
 1039 001a 2C4B     		ldr	r3, .L60
 1040 001c 1B78     		ldrb	r3, [r3]
 1041 001e 022B     		cmp	r3, #2
 1042 0020 05D0     		beq	.L56
 500:.\Generated_Source\PSoC4/BLE_hts.c ****     {
 501:.\Generated_Source\PSoC4/BLE_hts.c ****         apiResult = CYBLE_ERROR_INVALID_STATE;
 1043              		.loc 1 501 0
 1044 0022 3B1C     		mov	r3, r7
 1045 0024 1E33     		add	r3, r3, #30
 1046 0026 8322     		mov	r2, #131
 1047 0028 5200     		lsl	r2, r2, #1
 1048 002a 1A80     		strh	r2, [r3]
 1049 002c 46E0     		b	.L57
 1050              	.L56:
 502:.\Generated_Source\PSoC4/BLE_hts.c ****     }
 503:.\Generated_Source\PSoC4/BLE_hts.c ****     else if(!CYBLE_IS_NOTIFICATION_ENABLED(cyBle_htss.charInfo[charIndex].descrHandle[CYBLE_HTS_CCC
 1051              		.loc 1 503 0
 1052 002e 3B1C     		mov	r3, r7
 1053 0030 0B33     		add	r3, r3, #11
 1054 0032 1A78     		ldrb	r2, [r3]
 1055 0034 2649     		ldr	r1, .L60+4
 1056 0036 131C     		mov	r3, r2
 1057 0038 5B00     		lsl	r3, r3, #1
 1058 003a 9B18     		add	r3, r3, r2
 1059 003c 5B00     		lsl	r3, r3, #1
 1060 003e CB18     		add	r3, r1, r3
 1061 0040 9B88     		ldrh	r3, [r3, #4]
 1062 0042 5A1E     		sub	r2, r3, #1
 1063 0044 2349     		ldr	r1, .L60+8
 1064 0046 131C     		mov	r3, r2
 1065 0048 9B00     		lsl	r3, r3, #2
 1066 004a 9B18     		add	r3, r3, r2
 1067 004c 9B00     		lsl	r3, r3, #2
 1068 004e CB18     		add	r3, r1, r3
 1069 0050 0833     		add	r3, r3, #8
 1070 0052 9B68     		ldr	r3, [r3, #8]
 1071 0054 181C     		mov	r0, r3
 1072 0056 FFF7FEFF 		bl	CyBle_Get16ByPtr
 1073 005a 031C     		mov	r3, r0
 1074 005c 1A1C     		mov	r2, r3
 1075 005e 0123     		mov	r3, #1
 1076 0060 1340     		and	r3, r2
 1077 0062 9BB2     		uxth	r3, r3
 1078 0064 002B     		cmp	r3, #0
 1079 0066 05D1     		bne	.L58
 504:.\Generated_Source\PSoC4/BLE_hts.c ****     {
 505:.\Generated_Source\PSoC4/BLE_hts.c ****         apiResult = CYBLE_ERROR_NTF_DISABLED;
 1080              		.loc 1 505 0
 1081 0068 3B1C     		mov	r3, r7
 1082 006a 1E33     		add	r3, r3, #30
 1083 006c 0422     		mov	r2, #4
ARM GAS  C:\Users\Zachary\AppData\Local\Temp\ccv8jLse.s 			page 29


 1084 006e FF32     		add	r2, r2, #255
 1085 0070 1A80     		strh	r2, [r3]
 1086 0072 23E0     		b	.L57
 1087              	.L58:
 1088              	.LBB4:
 506:.\Generated_Source\PSoC4/BLE_hts.c ****     }
 507:.\Generated_Source\PSoC4/BLE_hts.c ****     else
 508:.\Generated_Source\PSoC4/BLE_hts.c ****     {
 509:.\Generated_Source\PSoC4/BLE_hts.c ****         CYBLE_GATTS_HANDLE_VALUE_NTF_T ntfReqParam;
 510:.\Generated_Source\PSoC4/BLE_hts.c ****         
 511:.\Generated_Source\PSoC4/BLE_hts.c ****         /* Fill all fields of write request structure ... */
 512:.\Generated_Source\PSoC4/BLE_hts.c ****         ntfReqParam.attrHandle = cyBle_htss.charInfo[charIndex].charHandle;
 1089              		.loc 1 512 0
 1090 0074 3B1C     		mov	r3, r7
 1091 0076 0B33     		add	r3, r3, #11
 1092 0078 1A78     		ldrb	r2, [r3]
 1093 007a 1549     		ldr	r1, .L60+4
 1094 007c 131C     		mov	r3, r2
 1095 007e 5B00     		lsl	r3, r3, #1
 1096 0080 9B18     		add	r3, r3, r2
 1097 0082 5B00     		lsl	r3, r3, #1
 1098 0084 CB18     		add	r3, r1, r3
 1099 0086 5A88     		ldrh	r2, [r3, #2]
 1100 0088 3B1C     		mov	r3, r7
 1101 008a 1033     		add	r3, r3, #16
 1102 008c 1A81     		strh	r2, [r3, #8]
 513:.\Generated_Source\PSoC4/BLE_hts.c ****         ntfReqParam.value.val = attrValue;
 1103              		.loc 1 513 0
 1104 008e 3B1C     		mov	r3, r7
 1105 0090 1033     		add	r3, r3, #16
 1106 0092 7A68     		ldr	r2, [r7, #4]
 1107 0094 1A60     		str	r2, [r3]
 514:.\Generated_Source\PSoC4/BLE_hts.c ****         ntfReqParam.value.len = attrSize;
 1108              		.loc 1 514 0
 1109 0096 3B1C     		mov	r3, r7
 1110 0098 0A33     		add	r3, r3, #10
 1111 009a 1B78     		ldrb	r3, [r3]
 1112 009c 9AB2     		uxth	r2, r3
 1113 009e 3B1C     		mov	r3, r7
 1114 00a0 1033     		add	r3, r3, #16
 1115 00a2 9A80     		strh	r2, [r3, #4]
 515:.\Generated_Source\PSoC4/BLE_hts.c ****         
 516:.\Generated_Source\PSoC4/BLE_hts.c ****         /* Send notification to client using previously filled structure */
 517:.\Generated_Source\PSoC4/BLE_hts.c ****         apiResult = CyBle_GattsNotification(connHandle, &ntfReqParam);
 1116              		.loc 1 517 0
 1117 00a4 3C1C     		mov	r4, r7
 1118 00a6 1E34     		add	r4, r4, #30
 1119 00a8 3B1C     		mov	r3, r7
 1120 00aa 0C33     		add	r3, r3, #12
 1121 00ac 3A1C     		mov	r2, r7
 1122 00ae 1032     		add	r2, r2, #16
 1123 00b0 1868     		ldr	r0, [r3]
 1124 00b2 111C     		mov	r1, r2
 1125 00b4 FFF7FEFF 		bl	CyBle_GattsNotification
 1126 00b8 031C     		mov	r3, r0
 1127 00ba 2380     		strh	r3, [r4]
 1128              	.L57:
ARM GAS  C:\Users\Zachary\AppData\Local\Temp\ccv8jLse.s 			page 30


 1129              	.LBE4:
 518:.\Generated_Source\PSoC4/BLE_hts.c ****     }
 519:.\Generated_Source\PSoC4/BLE_hts.c **** 
 520:.\Generated_Source\PSoC4/BLE_hts.c ****     return (apiResult);
 1130              		.loc 1 520 0
 1131 00bc 3B1C     		mov	r3, r7
 1132 00be 1E33     		add	r3, r3, #30
 1133 00c0 1B88     		ldrh	r3, [r3]
 521:.\Generated_Source\PSoC4/BLE_hts.c **** }
 1134              		.loc 1 521 0
 1135 00c2 181C     		mov	r0, r3
 1136 00c4 BD46     		mov	sp, r7
 1137 00c6 09B0     		add	sp, sp, #36
 1138              		@ sp needed
 1139 00c8 90BD     		pop	{r4, r7, pc}
 1140              	.L61:
 1141 00ca C046     		.align	2
 1142              	.L60:
 1143 00cc 00000000 		.word	cyBle_state
 1144 00d0 00000000 		.word	cyBle_htss
 1145 00d4 00000000 		.word	cyBle_gattDB
 1146              		.cfi_endproc
 1147              	.LFE9:
 1148              		.size	CyBle_HtssSendNotification, .-CyBle_HtssSendNotification
 1149              		.section	.text.CyBle_HtssSendIndication,"ax",%progbits
 1150              		.align	2
 1151              		.global	CyBle_HtssSendIndication
 1152              		.code	16
 1153              		.thumb_func
 1154              		.type	CyBle_HtssSendIndication, %function
 1155              	CyBle_HtssSendIndication:
 1156              	.LFB10:
 522:.\Generated_Source\PSoC4/BLE_hts.c **** 
 523:.\Generated_Source\PSoC4/BLE_hts.c **** 
 524:.\Generated_Source\PSoC4/BLE_hts.c **** /******************************************************************************
 525:.\Generated_Source\PSoC4/BLE_hts.c **** ##Function Name: CyBle_HtssSendIndication
 526:.\Generated_Source\PSoC4/BLE_hts.c **** *******************************************************************************
 527:.\Generated_Source\PSoC4/BLE_hts.c **** 
 528:.\Generated_Source\PSoC4/BLE_hts.c **** Summary:
 529:.\Generated_Source\PSoC4/BLE_hts.c ****  Sends indication with a characteristic value of the Health Thermometer 
 530:.\Generated_Source\PSoC4/BLE_hts.c ****  Service, which is a value specified by charIndex, to the Client device.
 531:.\Generated_Source\PSoC4/BLE_hts.c **** 
 532:.\Generated_Source\PSoC4/BLE_hts.c **** Parameters:
 533:.\Generated_Source\PSoC4/BLE_hts.c ****  connHandle: The connection handle.
 534:.\Generated_Source\PSoC4/BLE_hts.c ****  charIndex:  The index of the service characteristic.
 535:.\Generated_Source\PSoC4/BLE_hts.c ****  attrSize: The size of the characteristic value attribute.
 536:.\Generated_Source\PSoC4/BLE_hts.c ****  *attrValue: The pointer to the characteristic value data that should be
 537:.\Generated_Source\PSoC4/BLE_hts.c ****               sent to the Client device.
 538:.\Generated_Source\PSoC4/BLE_hts.c **** 
 539:.\Generated_Source\PSoC4/BLE_hts.c **** Return:
 540:.\Generated_Source\PSoC4/BLE_hts.c ****  Return value is of type CYBLE_API_RESULT_T.
 541:.\Generated_Source\PSoC4/BLE_hts.c ****   * CYBLE_ERROR_OK - The request handled successfully
 542:.\Generated_Source\PSoC4/BLE_hts.c ****   * CYBLE_ERROR_INVALID_PARAMETER - Validation of the input parameter failed
 543:.\Generated_Source\PSoC4/BLE_hts.c ****   * CYBLE_ERROR_INVALID_OPERATION - This operation is not permitted
 544:.\Generated_Source\PSoC4/BLE_hts.c ****   * CYBLE_ERROR_INVALID_STATE - Connection with the client is not established
 545:.\Generated_Source\PSoC4/BLE_hts.c ****   * CYBLE_ERROR_MEMORY_ALLOCATION_FAILED - Memory allocation failed
 546:.\Generated_Source\PSoC4/BLE_hts.c ****   * CYBLE_ERROR_IND_DISABLED - Indication is not enabled by the client
ARM GAS  C:\Users\Zachary\AppData\Local\Temp\ccv8jLse.s 			page 31


 547:.\Generated_Source\PSoC4/BLE_hts.c **** 
 548:.\Generated_Source\PSoC4/BLE_hts.c **** ******************************************************************************/
 549:.\Generated_Source\PSoC4/BLE_hts.c **** CYBLE_API_RESULT_T CyBle_HtssSendIndication(CYBLE_CONN_HANDLE_T connHandle,
 550:.\Generated_Source\PSoC4/BLE_hts.c ****     CYBLE_HTS_CHAR_INDEX_T charIndex, uint8 attrSize, uint8 *attrValue)
 551:.\Generated_Source\PSoC4/BLE_hts.c **** {
 1157              		.loc 1 551 0
 1158              		.cfi_startproc
 1159 0000 90B5     		push	{r4, r7, lr}
 1160              		.cfi_def_cfa_offset 12
 1161              		.cfi_offset 4, -12
 1162              		.cfi_offset 7, -8
 1163              		.cfi_offset 14, -4
 1164 0002 89B0     		sub	sp, sp, #36
 1165              		.cfi_def_cfa_offset 48
 1166 0004 00AF     		add	r7, sp, #0
 1167              		.cfi_def_cfa_register 7
 1168 0006 3C1C     		mov	r4, r7
 1169 0008 0C34     		add	r4, r4, #12
 1170 000a 2080     		strh	r0, [r4]
 1171 000c 7B60     		str	r3, [r7, #4]
 1172 000e 3B1C     		mov	r3, r7
 1173 0010 0B33     		add	r3, r3, #11
 1174 0012 1970     		strb	r1, [r3]
 1175 0014 3B1C     		mov	r3, r7
 1176 0016 0A33     		add	r3, r3, #10
 1177 0018 1A70     		strb	r2, [r3]
 552:.\Generated_Source\PSoC4/BLE_hts.c ****     CYBLE_API_RESULT_T apiResult;
 553:.\Generated_Source\PSoC4/BLE_hts.c ****     
 554:.\Generated_Source\PSoC4/BLE_hts.c ****     /* Send Notification if it is enabled and connected */
 555:.\Generated_Source\PSoC4/BLE_hts.c ****     if(CYBLE_STATE_CONNECTED != CyBle_GetState())
 1178              		.loc 1 555 0
 1179 001a 314B     		ldr	r3, .L68
 1180 001c 1B78     		ldrb	r3, [r3]
 1181 001e 022B     		cmp	r3, #2
 1182 0020 05D0     		beq	.L63
 556:.\Generated_Source\PSoC4/BLE_hts.c ****     {
 557:.\Generated_Source\PSoC4/BLE_hts.c ****         apiResult = CYBLE_ERROR_INVALID_STATE;
 1183              		.loc 1 557 0
 1184 0022 3B1C     		mov	r3, r7
 1185 0024 1E33     		add	r3, r3, #30
 1186 0026 8322     		mov	r2, #131
 1187 0028 5200     		lsl	r2, r2, #1
 1188 002a 1A80     		strh	r2, [r3]
 1189 002c 50E0     		b	.L64
 1190              	.L63:
 558:.\Generated_Source\PSoC4/BLE_hts.c ****     }
 559:.\Generated_Source\PSoC4/BLE_hts.c ****     else if(!CYBLE_IS_INDICATION_ENABLED(cyBle_htss.charInfo[charIndex].descrHandle[CYBLE_HTS_CCCD]
 1191              		.loc 1 559 0
 1192 002e 3B1C     		mov	r3, r7
 1193 0030 0B33     		add	r3, r3, #11
 1194 0032 1A78     		ldrb	r2, [r3]
 1195 0034 2B49     		ldr	r1, .L68+4
 1196 0036 131C     		mov	r3, r2
 1197 0038 5B00     		lsl	r3, r3, #1
 1198 003a 9B18     		add	r3, r3, r2
 1199 003c 5B00     		lsl	r3, r3, #1
 1200 003e CB18     		add	r3, r1, r3
ARM GAS  C:\Users\Zachary\AppData\Local\Temp\ccv8jLse.s 			page 32


 1201 0040 9B88     		ldrh	r3, [r3, #4]
 1202 0042 5A1E     		sub	r2, r3, #1
 1203 0044 2849     		ldr	r1, .L68+8
 1204 0046 131C     		mov	r3, r2
 1205 0048 9B00     		lsl	r3, r3, #2
 1206 004a 9B18     		add	r3, r3, r2
 1207 004c 9B00     		lsl	r3, r3, #2
 1208 004e CB18     		add	r3, r1, r3
 1209 0050 0833     		add	r3, r3, #8
 1210 0052 9B68     		ldr	r3, [r3, #8]
 1211 0054 181C     		mov	r0, r3
 1212 0056 FFF7FEFF 		bl	CyBle_Get16ByPtr
 1213 005a 031C     		mov	r3, r0
 1214 005c 1A1C     		mov	r2, r3
 1215 005e 0223     		mov	r3, #2
 1216 0060 1340     		and	r3, r2
 1217 0062 9BB2     		uxth	r3, r3
 1218 0064 002B     		cmp	r3, #0
 1219 0066 05D1     		bne	.L65
 560:.\Generated_Source\PSoC4/BLE_hts.c ****     {
 561:.\Generated_Source\PSoC4/BLE_hts.c ****         apiResult = CYBLE_ERROR_IND_DISABLED;
 1220              		.loc 1 561 0
 1221 0068 3B1C     		mov	r3, r7
 1222 006a 1E33     		add	r3, r3, #30
 1223 006c 8222     		mov	r2, #130
 1224 006e 5200     		lsl	r2, r2, #1
 1225 0070 1A80     		strh	r2, [r3]
 1226 0072 2DE0     		b	.L64
 1227              	.L65:
 1228              	.LBB5:
 562:.\Generated_Source\PSoC4/BLE_hts.c ****     }
 563:.\Generated_Source\PSoC4/BLE_hts.c ****     else
 564:.\Generated_Source\PSoC4/BLE_hts.c ****     {
 565:.\Generated_Source\PSoC4/BLE_hts.c ****         CYBLE_GATTS_HANDLE_VALUE_NTF_T ntfReqParam;
 566:.\Generated_Source\PSoC4/BLE_hts.c ****         
 567:.\Generated_Source\PSoC4/BLE_hts.c ****         /* Fill all fields of write request structure ... */
 568:.\Generated_Source\PSoC4/BLE_hts.c ****         ntfReqParam.attrHandle = cyBle_htss.charInfo[charIndex].charHandle;
 1229              		.loc 1 568 0
 1230 0074 3B1C     		mov	r3, r7
 1231 0076 0B33     		add	r3, r3, #11
 1232 0078 1A78     		ldrb	r2, [r3]
 1233 007a 1A49     		ldr	r1, .L68+4
 1234 007c 131C     		mov	r3, r2
 1235 007e 5B00     		lsl	r3, r3, #1
 1236 0080 9B18     		add	r3, r3, r2
 1237 0082 5B00     		lsl	r3, r3, #1
 1238 0084 CB18     		add	r3, r1, r3
 1239 0086 5A88     		ldrh	r2, [r3, #2]
 1240 0088 3B1C     		mov	r3, r7
 1241 008a 1033     		add	r3, r3, #16
 1242 008c 1A81     		strh	r2, [r3, #8]
 569:.\Generated_Source\PSoC4/BLE_hts.c ****         ntfReqParam.value.val = attrValue;
 1243              		.loc 1 569 0
 1244 008e 3B1C     		mov	r3, r7
 1245 0090 1033     		add	r3, r3, #16
 1246 0092 7A68     		ldr	r2, [r7, #4]
 1247 0094 1A60     		str	r2, [r3]
ARM GAS  C:\Users\Zachary\AppData\Local\Temp\ccv8jLse.s 			page 33


 570:.\Generated_Source\PSoC4/BLE_hts.c ****         ntfReqParam.value.len = attrSize;
 1248              		.loc 1 570 0
 1249 0096 3B1C     		mov	r3, r7
 1250 0098 0A33     		add	r3, r3, #10
 1251 009a 1B78     		ldrb	r3, [r3]
 1252 009c 9AB2     		uxth	r2, r3
 1253 009e 3B1C     		mov	r3, r7
 1254 00a0 1033     		add	r3, r3, #16
 1255 00a2 9A80     		strh	r2, [r3, #4]
 571:.\Generated_Source\PSoC4/BLE_hts.c ****         
 572:.\Generated_Source\PSoC4/BLE_hts.c ****         /* Send indication to client using previously filled structure */
 573:.\Generated_Source\PSoC4/BLE_hts.c ****         apiResult = CyBle_GattsIndication(connHandle, &ntfReqParam);
 1256              		.loc 1 573 0
 1257 00a4 3C1C     		mov	r4, r7
 1258 00a6 1E34     		add	r4, r4, #30
 1259 00a8 3B1C     		mov	r3, r7
 1260 00aa 0C33     		add	r3, r3, #12
 1261 00ac 3A1C     		mov	r2, r7
 1262 00ae 1032     		add	r2, r2, #16
 1263 00b0 1868     		ldr	r0, [r3]
 1264 00b2 111C     		mov	r1, r2
 1265 00b4 FFF7FEFF 		bl	CyBle_GattsIndication
 1266 00b8 031C     		mov	r3, r0
 1267 00ba 2380     		strh	r3, [r4]
 574:.\Generated_Source\PSoC4/BLE_hts.c ****         /* Save handle to support service specific value confirmation response from client */
 575:.\Generated_Source\PSoC4/BLE_hts.c ****         if(apiResult == CYBLE_ERROR_OK)
 1268              		.loc 1 575 0
 1269 00bc 3B1C     		mov	r3, r7
 1270 00be 1E33     		add	r3, r3, #30
 1271 00c0 1B88     		ldrh	r3, [r3]
 1272 00c2 002B     		cmp	r3, #0
 1273 00c4 04D1     		bne	.L64
 576:.\Generated_Source\PSoC4/BLE_hts.c ****         {
 577:.\Generated_Source\PSoC4/BLE_hts.c ****             cyBle_htssReqHandle = ntfReqParam.attrHandle;
 1274              		.loc 1 577 0
 1275 00c6 3B1C     		mov	r3, r7
 1276 00c8 1033     		add	r3, r3, #16
 1277 00ca 1A89     		ldrh	r2, [r3, #8]
 1278 00cc 074B     		ldr	r3, .L68+12
 1279 00ce 1A80     		strh	r2, [r3]
 1280              	.L64:
 1281              	.LBE5:
 578:.\Generated_Source\PSoC4/BLE_hts.c ****         }
 579:.\Generated_Source\PSoC4/BLE_hts.c ****     }
 580:.\Generated_Source\PSoC4/BLE_hts.c ****     return (apiResult);
 1282              		.loc 1 580 0
 1283 00d0 3B1C     		mov	r3, r7
 1284 00d2 1E33     		add	r3, r3, #30
 1285 00d4 1B88     		ldrh	r3, [r3]
 581:.\Generated_Source\PSoC4/BLE_hts.c **** }
 1286              		.loc 1 581 0
 1287 00d6 181C     		mov	r0, r3
 1288 00d8 BD46     		mov	sp, r7
 1289 00da 09B0     		add	sp, sp, #36
 1290              		@ sp needed
 1291 00dc 90BD     		pop	{r4, r7, pc}
 1292              	.L69:
ARM GAS  C:\Users\Zachary\AppData\Local\Temp\ccv8jLse.s 			page 34


 1293 00de C046     		.align	2
 1294              	.L68:
 1295 00e0 00000000 		.word	cyBle_state
 1296 00e4 00000000 		.word	cyBle_htss
 1297 00e8 00000000 		.word	cyBle_gattDB
 1298 00ec 04000000 		.word	cyBle_htssReqHandle
 1299              		.cfi_endproc
 1300              	.LFE10:
 1301              		.size	CyBle_HtssSendIndication, .-CyBle_HtssSendIndication
 1302              		.section	.text.CyBle_HtssConfirmationEventHandler,"ax",%progbits
 1303              		.align	2
 1304              		.global	CyBle_HtssConfirmationEventHandler
 1305              		.code	16
 1306              		.thumb_func
 1307              		.type	CyBle_HtssConfirmationEventHandler, %function
 1308              	CyBle_HtssConfirmationEventHandler:
 1309              	.LFB11:
 582:.\Generated_Source\PSoC4/BLE_hts.c **** 
 583:.\Generated_Source\PSoC4/BLE_hts.c **** 
 584:.\Generated_Source\PSoC4/BLE_hts.c **** /******************************************************************************
 585:.\Generated_Source\PSoC4/BLE_hts.c **** ##Function Name: CyBle_HtssConfirmationEventHandler
 586:.\Generated_Source\PSoC4/BLE_hts.c **** *******************************************************************************
 587:.\Generated_Source\PSoC4/BLE_hts.c **** 
 588:.\Generated_Source\PSoC4/BLE_hts.c **** Summary:
 589:.\Generated_Source\PSoC4/BLE_hts.c ****  Handles a Value Confirmation request event from the BLE stack.
 590:.\Generated_Source\PSoC4/BLE_hts.c **** 
 591:.\Generated_Source\PSoC4/BLE_hts.c **** Parameters:
 592:.\Generated_Source\PSoC4/BLE_hts.c ****  *eventParam - The pointer to a structure of type CYBLE_CONN_HANDLE_T.
 593:.\Generated_Source\PSoC4/BLE_hts.c **** 
 594:.\Generated_Source\PSoC4/BLE_hts.c **** Return:
 595:.\Generated_Source\PSoC4/BLE_hts.c ****  None
 596:.\Generated_Source\PSoC4/BLE_hts.c **** 
 597:.\Generated_Source\PSoC4/BLE_hts.c **** ******************************************************************************/
 598:.\Generated_Source\PSoC4/BLE_hts.c **** void CyBle_HtssConfirmationEventHandler(const CYBLE_CONN_HANDLE_T *eventParam)
 599:.\Generated_Source\PSoC4/BLE_hts.c **** {
 1310              		.loc 1 599 0
 1311              		.cfi_startproc
 1312 0000 80B5     		push	{r7, lr}
 1313              		.cfi_def_cfa_offset 8
 1314              		.cfi_offset 7, -8
 1315              		.cfi_offset 14, -4
 1316 0002 86B0     		sub	sp, sp, #24
 1317              		.cfi_def_cfa_offset 32
 1318 0004 00AF     		add	r7, sp, #0
 1319              		.cfi_def_cfa_register 7
 1320 0006 7860     		str	r0, [r7, #4]
 600:.\Generated_Source\PSoC4/BLE_hts.c ****     CYBLE_HTS_CHAR_INDEX_T locCharIndex;
 601:.\Generated_Source\PSoC4/BLE_hts.c ****     CYBLE_HTS_CHAR_VALUE_T locCharValue;
 602:.\Generated_Source\PSoC4/BLE_hts.c ****     uint8 locReqHandle = 0u;
 1321              		.loc 1 602 0
 1322 0008 3B1C     		mov	r3, r7
 1323 000a 1633     		add	r3, r3, #22
 1324 000c 0022     		mov	r2, #0
 1325 000e 1A70     		strb	r2, [r3]
 603:.\Generated_Source\PSoC4/BLE_hts.c **** 
 604:.\Generated_Source\PSoC4/BLE_hts.c ****     if((NULL != CyBle_HtsApplCallback) && (CYBLE_GATT_INVALID_ATTR_HANDLE_VALUE != cyBle_htssReqHan
 1326              		.loc 1 604 0
ARM GAS  C:\Users\Zachary\AppData\Local\Temp\ccv8jLse.s 			page 35


 1327 0010 2D4B     		ldr	r3, .L75
 1328 0012 1B68     		ldr	r3, [r3]
 1329 0014 002B     		cmp	r3, #0
 1330 0016 54D0     		beq	.L70
 1331              		.loc 1 604 0 is_stmt 0 discriminator 1
 1332 0018 2C4B     		ldr	r3, .L75+4
 1333 001a 1B88     		ldrh	r3, [r3]
 1334 001c 002B     		cmp	r3, #0
 1335 001e 50D0     		beq	.L70
 605:.\Generated_Source\PSoC4/BLE_hts.c ****     {
 606:.\Generated_Source\PSoC4/BLE_hts.c ****         for(locCharIndex = CYBLE_HTS_TEMP_MEASURE; (locCharIndex < CYBLE_HTS_CHAR_COUNT) && (locReq
 1336              		.loc 1 606 0 is_stmt 1
 1337 0020 3B1C     		mov	r3, r7
 1338 0022 1733     		add	r3, r3, #23
 1339 0024 0022     		mov	r2, #0
 1340 0026 1A70     		strb	r2, [r3]
 1341 0028 41E0     		b	.L72
 1342              	.L74:
 607:.\Generated_Source\PSoC4/BLE_hts.c ****             locCharIndex++)
 608:.\Generated_Source\PSoC4/BLE_hts.c ****         {
 609:.\Generated_Source\PSoC4/BLE_hts.c ****             if(cyBle_htssReqHandle == cyBle_htss.charInfo[locCharIndex].charHandle)
 1343              		.loc 1 609 0
 1344 002a 3B1C     		mov	r3, r7
 1345 002c 1733     		add	r3, r3, #23
 1346 002e 1A78     		ldrb	r2, [r3]
 1347 0030 2749     		ldr	r1, .L75+8
 1348 0032 131C     		mov	r3, r2
 1349 0034 5B00     		lsl	r3, r3, #1
 1350 0036 9B18     		add	r3, r3, r2
 1351 0038 5B00     		lsl	r3, r3, #1
 1352 003a CB18     		add	r3, r1, r3
 1353 003c 5A88     		ldrh	r2, [r3, #2]
 1354 003e 234B     		ldr	r3, .L75+4
 1355 0040 1B88     		ldrh	r3, [r3]
 1356 0042 9A42     		cmp	r2, r3
 1357 0044 2CD1     		bne	.L73
 610:.\Generated_Source\PSoC4/BLE_hts.c ****             {
 611:.\Generated_Source\PSoC4/BLE_hts.c ****                 locCharValue.connHandle = *eventParam;
 1358              		.loc 1 611 0
 1359 0046 3A1C     		mov	r2, r7
 1360 0048 0C32     		add	r2, r2, #12
 1361 004a 7B68     		ldr	r3, [r7, #4]
 1362 004c 111C     		mov	r1, r2
 1363 004e 1A1C     		mov	r2, r3
 1364 0050 0223     		mov	r3, #2
 1365 0052 081C     		mov	r0, r1
 1366 0054 111C     		mov	r1, r2
 1367 0056 1A1C     		mov	r2, r3
 1368 0058 FFF7FEFF 		bl	memcpy
 612:.\Generated_Source\PSoC4/BLE_hts.c ****                 locCharValue.charIndex = locCharIndex;
 1369              		.loc 1 612 0
 1370 005c 3B1C     		mov	r3, r7
 1371 005e 0C33     		add	r3, r3, #12
 1372 0060 3A1C     		mov	r2, r7
 1373 0062 1732     		add	r2, r2, #23
 1374 0064 1278     		ldrb	r2, [r2]
 1375 0066 9A70     		strb	r2, [r3, #2]
ARM GAS  C:\Users\Zachary\AppData\Local\Temp\ccv8jLse.s 			page 36


 613:.\Generated_Source\PSoC4/BLE_hts.c ****                 locCharValue.value = NULL;
 1376              		.loc 1 613 0
 1377 0068 3B1C     		mov	r3, r7
 1378 006a 0C33     		add	r3, r3, #12
 1379 006c 0022     		mov	r2, #0
 1380 006e 5A60     		str	r2, [r3, #4]
 614:.\Generated_Source\PSoC4/BLE_hts.c ****                 cyBle_eventHandlerFlag &= (uint8)~CYBLE_CALLBACK;
 1381              		.loc 1 614 0
 1382 0070 184B     		ldr	r3, .L75+12
 1383 0072 1B78     		ldrb	r3, [r3]
 1384 0074 DBB2     		uxtb	r3, r3
 1385 0076 0122     		mov	r2, #1
 1386 0078 9343     		bic	r3, r2
 1387 007a DAB2     		uxtb	r2, r3
 1388 007c 154B     		ldr	r3, .L75+12
 1389 007e 1A70     		strb	r2, [r3]
 615:.\Generated_Source\PSoC4/BLE_hts.c ****                 cyBle_htssReqHandle = CYBLE_GATT_INVALID_ATTR_HANDLE_VALUE;
 1390              		.loc 1 615 0
 1391 0080 124B     		ldr	r3, .L75+4
 1392 0082 0022     		mov	r2, #0
 1393 0084 1A80     		strh	r2, [r3]
 616:.\Generated_Source\PSoC4/BLE_hts.c ****                 CyBle_HtsApplCallback((uint32)CYBLE_EVT_HTSS_INDICATION_CONFIRMED, &locCharValue);
 1394              		.loc 1 616 0
 1395 0086 104B     		ldr	r3, .L75
 1396 0088 1B68     		ldr	r3, [r3]
 1397 008a BE22     		mov	r2, #190
 1398 008c 5100     		lsl	r1, r2, #1
 1399 008e 3A1C     		mov	r2, r7
 1400 0090 0C32     		add	r2, r2, #12
 1401 0092 081C     		mov	r0, r1
 1402 0094 111C     		mov	r1, r2
 1403 0096 9847     		blx	r3
 617:.\Generated_Source\PSoC4/BLE_hts.c ****                 locReqHandle = 1u;
 1404              		.loc 1 617 0
 1405 0098 3B1C     		mov	r3, r7
 1406 009a 1633     		add	r3, r3, #22
 1407 009c 0122     		mov	r2, #1
 1408 009e 1A70     		strb	r2, [r3]
 1409              	.L73:
 607:.\Generated_Source\PSoC4/BLE_hts.c ****             locCharIndex++)
 1410              		.loc 1 607 0
 1411 00a0 3B1C     		mov	r3, r7
 1412 00a2 1733     		add	r3, r3, #23
 1413 00a4 1A78     		ldrb	r2, [r3]
 1414 00a6 3B1C     		mov	r3, r7
 1415 00a8 1733     		add	r3, r3, #23
 1416 00aa 0132     		add	r2, r2, #1
 1417 00ac 1A70     		strb	r2, [r3]
 1418              	.L72:
 606:.\Generated_Source\PSoC4/BLE_hts.c ****         for(locCharIndex = CYBLE_HTS_TEMP_MEASURE; (locCharIndex < CYBLE_HTS_CHAR_COUNT) && (locReq
 1419              		.loc 1 606 0 discriminator 1
 1420 00ae 3B1C     		mov	r3, r7
 1421 00b0 1733     		add	r3, r3, #23
 1422 00b2 1B78     		ldrb	r3, [r3]
 1423 00b4 032B     		cmp	r3, #3
 1424 00b6 04D8     		bhi	.L70
 606:.\Generated_Source\PSoC4/BLE_hts.c ****         for(locCharIndex = CYBLE_HTS_TEMP_MEASURE; (locCharIndex < CYBLE_HTS_CHAR_COUNT) && (locReq
ARM GAS  C:\Users\Zachary\AppData\Local\Temp\ccv8jLse.s 			page 37


 1425              		.loc 1 606 0 is_stmt 0 discriminator 2
 1426 00b8 3B1C     		mov	r3, r7
 1427 00ba 1633     		add	r3, r3, #22
 1428 00bc 1B78     		ldrb	r3, [r3]
 1429 00be 002B     		cmp	r3, #0
 1430 00c0 B3D0     		beq	.L74
 1431              	.L70:
 618:.\Generated_Source\PSoC4/BLE_hts.c ****             }
 619:.\Generated_Source\PSoC4/BLE_hts.c ****         }
 620:.\Generated_Source\PSoC4/BLE_hts.c ****     }
 621:.\Generated_Source\PSoC4/BLE_hts.c **** }
 1432              		.loc 1 621 0 is_stmt 1
 1433 00c2 BD46     		mov	sp, r7
 1434 00c4 06B0     		add	sp, sp, #24
 1435              		@ sp needed
 1436 00c6 80BD     		pop	{r7, pc}
 1437              	.L76:
 1438              		.align	2
 1439              	.L75:
 1440 00c8 00000000 		.word	CyBle_HtsApplCallback
 1441 00cc 04000000 		.word	cyBle_htssReqHandle
 1442 00d0 00000000 		.word	cyBle_htss
 1443 00d4 00000000 		.word	cyBle_eventHandlerFlag
 1444              		.cfi_endproc
 1445              	.LFE11:
 1446              		.size	CyBle_HtssConfirmationEventHandler, .-CyBle_HtssConfirmationEventHandler
 1447              		.text
 1448              	.Letext0:
 1449              		.file 2 ".\\Generated_Source\\PSoC4\\cytypes.h"
 1450              		.file 3 ".\\Generated_Source\\PSoC4\\BLE_Stack.h"
 1451              		.file 4 ".\\Generated_Source\\PSoC4\\BLE_StackGatt.h"
 1452              		.file 5 ".\\Generated_Source\\PSoC4\\BLE_StackGattServer.h"
 1453              		.file 6 ".\\Generated_Source\\PSoC4\\BLE_StackGattDb.h"
 1454              		.file 7 ".\\Generated_Source\\PSoC4\\BLE.h"
 1455              		.file 8 ".\\Generated_Source\\PSoC4\\BLE_dis.h"
 1456              		.file 9 ".\\Generated_Source\\PSoC4\\BLE_hts.h"
 1457              		.file 10 ".\\Generated_Source\\PSoC4\\BLE_eventHandler.h"
 1458              		.file 11 ".\\Generated_Source\\PSoC4\\BLE_gatt.h"
 1459              		.section	.debug_info,"",%progbits
 1460              	.Ldebug_info0:
 1461 0000 CD100000 		.4byte	0x10cd
 1462 0004 0400     		.2byte	0x4
 1463 0006 00000000 		.4byte	.Ldebug_abbrev0
 1464 000a 04       		.byte	0x4
 1465 000b 01       		.uleb128 0x1
 1466 000c 361C0000 		.4byte	.LASF418
 1467 0010 01       		.byte	0x1
 1468 0011 4D120000 		.4byte	.LASF419
 1469 0015 010C0000 		.4byte	.LASF420
 1470 0019 00000000 		.4byte	.Ldebug_ranges0+0
 1471 001d 00000000 		.4byte	0
 1472 0021 00000000 		.4byte	.Ldebug_line0
 1473 0025 02       		.uleb128 0x2
 1474 0026 01       		.byte	0x1
 1475 0027 06       		.byte	0x6
 1476 0028 6C0A0000 		.4byte	.LASF0
 1477 002c 02       		.uleb128 0x2
ARM GAS  C:\Users\Zachary\AppData\Local\Temp\ccv8jLse.s 			page 38


 1478 002d 01       		.byte	0x1
 1479 002e 08       		.byte	0x8
 1480 002f 2E0B0000 		.4byte	.LASF1
 1481 0033 02       		.uleb128 0x2
 1482 0034 02       		.byte	0x2
 1483 0035 05       		.byte	0x5
 1484 0036 C4270000 		.4byte	.LASF2
 1485 003a 02       		.uleb128 0x2
 1486 003b 02       		.byte	0x2
 1487 003c 07       		.byte	0x7
 1488 003d 572D0000 		.4byte	.LASF3
 1489 0041 02       		.uleb128 0x2
 1490 0042 04       		.byte	0x4
 1491 0043 05       		.byte	0x5
 1492 0044 F6070000 		.4byte	.LASF4
 1493 0048 02       		.uleb128 0x2
 1494 0049 04       		.byte	0x4
 1495 004a 07       		.byte	0x7
 1496 004b 6A140000 		.4byte	.LASF5
 1497 004f 02       		.uleb128 0x2
 1498 0050 08       		.byte	0x8
 1499 0051 05       		.byte	0x5
 1500 0052 87170000 		.4byte	.LASF6
 1501 0056 02       		.uleb128 0x2
 1502 0057 08       		.byte	0x8
 1503 0058 07       		.byte	0x7
 1504 0059 0B220000 		.4byte	.LASF7
 1505 005d 03       		.uleb128 0x3
 1506 005e 04       		.byte	0x4
 1507 005f 05       		.byte	0x5
 1508 0060 696E7400 		.ascii	"int\000"
 1509 0064 02       		.uleb128 0x2
 1510 0065 04       		.byte	0x4
 1511 0066 07       		.byte	0x7
 1512 0067 4C1B0000 		.4byte	.LASF8
 1513 006b 04       		.uleb128 0x4
 1514 006c 77270000 		.4byte	.LASF9
 1515 0070 02       		.byte	0x2
 1516 0071 A1       		.byte	0xa1
 1517 0072 2C000000 		.4byte	0x2c
 1518 0076 04       		.uleb128 0x4
 1519 0077 BD2F0000 		.4byte	.LASF10
 1520 007b 02       		.byte	0x2
 1521 007c A2       		.byte	0xa2
 1522 007d 3A000000 		.4byte	0x3a
 1523 0081 04       		.uleb128 0x4
 1524 0082 6E020000 		.4byte	.LASF11
 1525 0086 02       		.byte	0x2
 1526 0087 A3       		.byte	0xa3
 1527 0088 48000000 		.4byte	0x48
 1528 008c 02       		.uleb128 0x2
 1529 008d 04       		.byte	0x4
 1530 008e 04       		.byte	0x4
 1531 008f 001A0000 		.4byte	.LASF12
 1532 0093 02       		.uleb128 0x2
 1533 0094 08       		.byte	0x8
 1534 0095 04       		.byte	0x4
ARM GAS  C:\Users\Zachary\AppData\Local\Temp\ccv8jLse.s 			page 39


 1535 0096 A6180000 		.4byte	.LASF13
 1536 009a 02       		.uleb128 0x2
 1537 009b 01       		.byte	0x1
 1538 009c 08       		.byte	0x8
 1539 009d 140D0000 		.4byte	.LASF14
 1540 00a1 05       		.uleb128 0x5
 1541 00a2 6B000000 		.4byte	0x6b
 1542 00a6 02       		.uleb128 0x2
 1543 00a7 04       		.byte	0x4
 1544 00a8 07       		.byte	0x7
 1545 00a9 5C000000 		.4byte	.LASF15
 1546 00ad 06       		.uleb128 0x6
 1547 00ae 04       		.byte	0x4
 1548 00af 07       		.uleb128 0x7
 1549 00b0 01       		.byte	0x1
 1550 00b1 03       		.byte	0x3
 1551 00b2 58       		.byte	0x58
 1552 00b3 1F020000 		.4byte	0x21f
 1553 00b7 08       		.uleb128 0x8
 1554 00b8 7C0D0000 		.4byte	.LASF16
 1555 00bc 00       		.sleb128 0
 1556 00bd 08       		.uleb128 0x8
 1557 00be BA080000 		.4byte	.LASF17
 1558 00c2 01       		.sleb128 1
 1559 00c3 08       		.uleb128 0x8
 1560 00c4 40220000 		.4byte	.LASF18
 1561 00c8 02       		.sleb128 2
 1562 00c9 08       		.uleb128 0x8
 1563 00ca 9B0A0000 		.4byte	.LASF19
 1564 00ce 03       		.sleb128 3
 1565 00cf 08       		.uleb128 0x8
 1566 00d0 7B2E0000 		.4byte	.LASF20
 1567 00d4 04       		.sleb128 4
 1568 00d5 08       		.uleb128 0x8
 1569 00d6 042C0000 		.4byte	.LASF21
 1570 00da 05       		.sleb128 5
 1571 00db 08       		.uleb128 0x8
 1572 00dc 82290000 		.4byte	.LASF22
 1573 00e0 20       		.sleb128 32
 1574 00e1 08       		.uleb128 0x8
 1575 00e2 23060000 		.4byte	.LASF23
 1576 00e6 21       		.sleb128 33
 1577 00e7 08       		.uleb128 0x8
 1578 00e8 DF160000 		.4byte	.LASF24
 1579 00ec 22       		.sleb128 34
 1580 00ed 08       		.uleb128 0x8
 1581 00ee 2A1E0000 		.4byte	.LASF25
 1582 00f2 23       		.sleb128 35
 1583 00f3 08       		.uleb128 0x8
 1584 00f4 47130000 		.4byte	.LASF26
 1585 00f8 24       		.sleb128 36
 1586 00f9 08       		.uleb128 0x8
 1587 00fa 87130000 		.4byte	.LASF27
 1588 00fe 25       		.sleb128 37
 1589 00ff 08       		.uleb128 0x8
 1590 0100 EE260000 		.4byte	.LASF28
 1591 0104 26       		.sleb128 38
ARM GAS  C:\Users\Zachary\AppData\Local\Temp\ccv8jLse.s 			page 40


 1592 0105 08       		.uleb128 0x8
 1593 0106 E2010000 		.4byte	.LASF29
 1594 010a 27       		.sleb128 39
 1595 010b 08       		.uleb128 0x8
 1596 010c 362F0000 		.4byte	.LASF30
 1597 0110 28       		.sleb128 40
 1598 0111 08       		.uleb128 0x8
 1599 0112 78200000 		.4byte	.LASF31
 1600 0116 29       		.sleb128 41
 1601 0117 08       		.uleb128 0x8
 1602 0118 F6150000 		.4byte	.LASF32
 1603 011c 2A       		.sleb128 42
 1604 011d 08       		.uleb128 0x8
 1605 011e AA1D0000 		.4byte	.LASF33
 1606 0122 2B       		.sleb128 43
 1607 0123 08       		.uleb128 0x8
 1608 0124 442C0000 		.4byte	.LASF34
 1609 0128 2C       		.sleb128 44
 1610 0129 08       		.uleb128 0x8
 1611 012a 7B280000 		.4byte	.LASF35
 1612 012e C000     		.sleb128 64
 1613 0130 08       		.uleb128 0x8
 1614 0131 45020000 		.4byte	.LASF36
 1615 0135 C100     		.sleb128 65
 1616 0137 08       		.uleb128 0x8
 1617 0138 902E0000 		.4byte	.LASF37
 1618 013c C200     		.sleb128 66
 1619 013e 08       		.uleb128 0x8
 1620 013f EF200000 		.4byte	.LASF38
 1621 0143 C300     		.sleb128 67
 1622 0145 08       		.uleb128 0x8
 1623 0146 3C0B0000 		.4byte	.LASF39
 1624 014a C400     		.sleb128 68
 1625 014c 08       		.uleb128 0x8
 1626 014d D00A0000 		.4byte	.LASF40
 1627 0151 C500     		.sleb128 69
 1628 0153 08       		.uleb128 0x8
 1629 0154 21250000 		.4byte	.LASF41
 1630 0158 C600     		.sleb128 70
 1631 015a 08       		.uleb128 0x8
 1632 015b 03250000 		.4byte	.LASF42
 1633 015f C700     		.sleb128 71
 1634 0161 08       		.uleb128 0x8
 1635 0162 C80C0000 		.4byte	.LASF43
 1636 0166 C800     		.sleb128 72
 1637 0168 08       		.uleb128 0x8
 1638 0169 A01E0000 		.4byte	.LASF44
 1639 016d C900     		.sleb128 73
 1640 016f 08       		.uleb128 0x8
 1641 0170 F10D0000 		.4byte	.LASF45
 1642 0174 CA00     		.sleb128 74
 1643 0176 08       		.uleb128 0x8
 1644 0177 5D0D0000 		.4byte	.LASF46
 1645 017b CB00     		.sleb128 75
 1646 017d 08       		.uleb128 0x8
 1647 017e ED1D0000 		.4byte	.LASF47
 1648 0182 CC00     		.sleb128 76
ARM GAS  C:\Users\Zachary\AppData\Local\Temp\ccv8jLse.s 			page 41


 1649 0184 08       		.uleb128 0x8
 1650 0185 65260000 		.4byte	.LASF48
 1651 0189 CD00     		.sleb128 77
 1652 018b 08       		.uleb128 0x8
 1653 018c B4070000 		.4byte	.LASF49
 1654 0190 CE00     		.sleb128 78
 1655 0192 08       		.uleb128 0x8
 1656 0193 591B0000 		.4byte	.LASF50
 1657 0197 CF00     		.sleb128 79
 1658 0199 08       		.uleb128 0x8
 1659 019a 63290000 		.4byte	.LASF51
 1660 019e D000     		.sleb128 80
 1661 01a0 08       		.uleb128 0x8
 1662 01a1 550E0000 		.4byte	.LASF52
 1663 01a5 D100     		.sleb128 81
 1664 01a7 08       		.uleb128 0x8
 1665 01a8 02060000 		.4byte	.LASF53
 1666 01ac D200     		.sleb128 82
 1667 01ae 08       		.uleb128 0x8
 1668 01af 842B0000 		.4byte	.LASF54
 1669 01b3 D300     		.sleb128 83
 1670 01b5 08       		.uleb128 0x8
 1671 01b6 782F0000 		.4byte	.LASF55
 1672 01ba D400     		.sleb128 84
 1673 01bc 08       		.uleb128 0x8
 1674 01bd BC040000 		.4byte	.LASF56
 1675 01c1 D500     		.sleb128 85
 1676 01c3 08       		.uleb128 0x8
 1677 01c4 742C0000 		.4byte	.LASF57
 1678 01c8 F000     		.sleb128 112
 1679 01ca 08       		.uleb128 0x8
 1680 01cb 27120000 		.4byte	.LASF58
 1681 01cf F100     		.sleb128 113
 1682 01d1 08       		.uleb128 0x8
 1683 01d2 EB090000 		.4byte	.LASF59
 1684 01d6 F200     		.sleb128 114
 1685 01d8 08       		.uleb128 0x8
 1686 01d9 45290000 		.4byte	.LASF60
 1687 01dd F300     		.sleb128 115
 1688 01df 08       		.uleb128 0x8
 1689 01e0 131F0000 		.4byte	.LASF61
 1690 01e4 F400     		.sleb128 116
 1691 01e6 08       		.uleb128 0x8
 1692 01e7 96160000 		.4byte	.LASF62
 1693 01eb F500     		.sleb128 117
 1694 01ed 08       		.uleb128 0x8
 1695 01ee A70C0000 		.4byte	.LASF63
 1696 01f2 F600     		.sleb128 118
 1697 01f4 08       		.uleb128 0x8
 1698 01f5 B2220000 		.4byte	.LASF64
 1699 01f9 F700     		.sleb128 119
 1700 01fb 08       		.uleb128 0x8
 1701 01fc E0040000 		.4byte	.LASF65
 1702 0200 F800     		.sleb128 120
 1703 0202 08       		.uleb128 0x8
 1704 0203 D40B0000 		.4byte	.LASF66
 1705 0207 F900     		.sleb128 121
ARM GAS  C:\Users\Zachary\AppData\Local\Temp\ccv8jLse.s 			page 42


 1706 0209 08       		.uleb128 0x8
 1707 020a D42E0000 		.4byte	.LASF67
 1708 020e FA00     		.sleb128 122
 1709 0210 08       		.uleb128 0x8
 1710 0211 CF180000 		.4byte	.LASF68
 1711 0215 FA01     		.sleb128 250
 1712 0217 08       		.uleb128 0x8
 1713 0218 9C1D0000 		.4byte	.LASF69
 1714 021c FF01     		.sleb128 255
 1715 021e 00       		.byte	0
 1716 021f 09       		.uleb128 0x9
 1717 0220 02       		.byte	0x2
 1718 0221 03       		.byte	0x3
 1719 0222 9A01     		.2byte	0x19a
 1720 0224 EB020000 		.4byte	0x2eb
 1721 0228 08       		.uleb128 0x8
 1722 0229 B40A0000 		.4byte	.LASF70
 1723 022d 00       		.sleb128 0
 1724 022e 08       		.uleb128 0x8
 1725 022f C90F0000 		.4byte	.LASF71
 1726 0233 01       		.sleb128 1
 1727 0234 08       		.uleb128 0x8
 1728 0235 5D2E0000 		.4byte	.LASF72
 1729 0239 02       		.sleb128 2
 1730 023a 08       		.uleb128 0x8
 1731 023b 04110000 		.4byte	.LASF73
 1732 023f 03       		.sleb128 3
 1733 0240 08       		.uleb128 0x8
 1734 0241 FD130000 		.4byte	.LASF74
 1735 0245 04       		.sleb128 4
 1736 0246 08       		.uleb128 0x8
 1737 0247 5A180000 		.4byte	.LASF75
 1738 024b 05       		.sleb128 5
 1739 024c 08       		.uleb128 0x8
 1740 024d D12A0000 		.4byte	.LASF76
 1741 0251 06       		.sleb128 6
 1742 0252 08       		.uleb128 0x8
 1743 0253 D40D0000 		.4byte	.LASF77
 1744 0257 07       		.sleb128 7
 1745 0258 08       		.uleb128 0x8
 1746 0259 E2190000 		.4byte	.LASF78
 1747 025d 08       		.sleb128 8
 1748 025e 08       		.uleb128 0x8
 1749 025f C8290000 		.4byte	.LASF79
 1750 0263 09       		.sleb128 9
 1751 0264 08       		.uleb128 0x8
 1752 0265 C42F0000 		.4byte	.LASF80
 1753 0269 0A       		.sleb128 10
 1754 026a 08       		.uleb128 0x8
 1755 026b 99060000 		.4byte	.LASF81
 1756 026f 0B       		.sleb128 11
 1757 0270 08       		.uleb128 0x8
 1758 0271 ED2B0000 		.4byte	.LASF82
 1759 0275 0C       		.sleb128 12
 1760 0276 08       		.uleb128 0x8
 1761 0277 0C1D0000 		.4byte	.LASF83
 1762 027b 0D       		.sleb128 13
ARM GAS  C:\Users\Zachary\AppData\Local\Temp\ccv8jLse.s 			page 43


 1763 027c 08       		.uleb128 0x8
 1764 027d 11150000 		.4byte	.LASF84
 1765 0281 0E       		.sleb128 14
 1766 0282 08       		.uleb128 0x8
 1767 0283 35180000 		.4byte	.LASF85
 1768 0287 0F       		.sleb128 15
 1769 0288 08       		.uleb128 0x8
 1770 0289 4C040000 		.4byte	.LASF86
 1771 028d 10       		.sleb128 16
 1772 028e 08       		.uleb128 0x8
 1773 028f B1190000 		.4byte	.LASF87
 1774 0293 11       		.sleb128 17
 1775 0294 08       		.uleb128 0x8
 1776 0295 CD080000 		.4byte	.LASF88
 1777 0299 12       		.sleb128 18
 1778 029a 08       		.uleb128 0x8
 1779 029b 440A0000 		.4byte	.LASF89
 1780 029f 13       		.sleb128 19
 1781 02a0 08       		.uleb128 0x8
 1782 02a1 AD180000 		.4byte	.LASF90
 1783 02a5 27       		.sleb128 39
 1784 02a6 08       		.uleb128 0x8
 1785 02a7 451A0000 		.4byte	.LASF91
 1786 02ab 28       		.sleb128 40
 1787 02ac 08       		.uleb128 0x8
 1788 02ad 7A040000 		.4byte	.LASF92
 1789 02b1 29       		.sleb128 41
 1790 02b2 08       		.uleb128 0x8
 1791 02b3 F4110000 		.4byte	.LASF93
 1792 02b7 FF01     		.sleb128 255
 1793 02b9 08       		.uleb128 0x8
 1794 02ba BE130000 		.4byte	.LASF94
 1795 02be 8002     		.sleb128 256
 1796 02c0 08       		.uleb128 0x8
 1797 02c1 D52C0000 		.4byte	.LASF95
 1798 02c5 8102     		.sleb128 257
 1799 02c7 08       		.uleb128 0x8
 1800 02c8 D0100000 		.4byte	.LASF96
 1801 02cc 8202     		.sleb128 258
 1802 02ce 08       		.uleb128 0x8
 1803 02cf 691E0000 		.4byte	.LASF97
 1804 02d3 8302     		.sleb128 259
 1805 02d5 08       		.uleb128 0x8
 1806 02d6 501E0000 		.4byte	.LASF98
 1807 02da 8402     		.sleb128 260
 1808 02dc 08       		.uleb128 0x8
 1809 02dd 84090000 		.4byte	.LASF99
 1810 02e1 8502     		.sleb128 261
 1811 02e3 08       		.uleb128 0x8
 1812 02e4 7C220000 		.4byte	.LASF100
 1813 02e8 8602     		.sleb128 262
 1814 02ea 00       		.byte	0
 1815 02eb 0A       		.uleb128 0xa
 1816 02ec EB2A0000 		.4byte	.LASF101
 1817 02f0 03       		.byte	0x3
 1818 02f1 F401     		.2byte	0x1f4
 1819 02f3 1F020000 		.4byte	0x21f
ARM GAS  C:\Users\Zachary\AppData\Local\Temp\ccv8jLse.s 			page 44


 1820 02f7 0B       		.uleb128 0xb
 1821 02f8 04       		.byte	0x4
 1822 02f9 6B000000 		.4byte	0x6b
 1823 02fd 07       		.uleb128 0x7
 1824 02fe 01       		.byte	0x1
 1825 02ff 04       		.byte	0x4
 1826 0300 A4       		.byte	0xa4
 1827 0301 B8030000 		.4byte	0x3b8
 1828 0305 08       		.uleb128 0x8
 1829 0306 D1220000 		.4byte	.LASF102
 1830 030a 00       		.sleb128 0
 1831 030b 08       		.uleb128 0x8
 1832 030c 22220000 		.4byte	.LASF103
 1833 0310 01       		.sleb128 1
 1834 0311 08       		.uleb128 0x8
 1835 0312 D0030000 		.4byte	.LASF104
 1836 0316 02       		.sleb128 2
 1837 0317 08       		.uleb128 0x8
 1838 0318 102D0000 		.4byte	.LASF105
 1839 031c 03       		.sleb128 3
 1840 031d 08       		.uleb128 0x8
 1841 031e 69090000 		.4byte	.LASF106
 1842 0322 04       		.sleb128 4
 1843 0323 08       		.uleb128 0x8
 1844 0324 851B0000 		.4byte	.LASF107
 1845 0328 05       		.sleb128 5
 1846 0329 08       		.uleb128 0x8
 1847 032a 3F280000 		.4byte	.LASF108
 1848 032e 06       		.sleb128 6
 1849 032f 08       		.uleb128 0x8
 1850 0330 D31E0000 		.4byte	.LASF109
 1851 0334 07       		.sleb128 7
 1852 0335 08       		.uleb128 0x8
 1853 0336 D21A0000 		.4byte	.LASF110
 1854 033a 08       		.sleb128 8
 1855 033b 08       		.uleb128 0x8
 1856 033c 0D180000 		.4byte	.LASF111
 1857 0340 09       		.sleb128 9
 1858 0341 08       		.uleb128 0x8
 1859 0342 561D0000 		.4byte	.LASF112
 1860 0346 0A       		.sleb128 10
 1861 0347 08       		.uleb128 0x8
 1862 0348 AA0E0000 		.4byte	.LASF113
 1863 034c 0B       		.sleb128 11
 1864 034d 08       		.uleb128 0x8
 1865 034e ED180000 		.4byte	.LASF114
 1866 0352 0C       		.sleb128 12
 1867 0353 08       		.uleb128 0x8
 1868 0354 070A0000 		.4byte	.LASF115
 1869 0358 0D       		.sleb128 13
 1870 0359 08       		.uleb128 0x8
 1871 035a 930D0000 		.4byte	.LASF116
 1872 035e 0E       		.sleb128 14
 1873 035f 08       		.uleb128 0x8
 1874 0360 6A2D0000 		.4byte	.LASF117
 1875 0364 0F       		.sleb128 15
 1876 0365 08       		.uleb128 0x8
ARM GAS  C:\Users\Zachary\AppData\Local\Temp\ccv8jLse.s 			page 45


 1877 0366 26040000 		.4byte	.LASF118
 1878 036a 10       		.sleb128 16
 1879 036b 08       		.uleb128 0x8
 1880 036c F2030000 		.4byte	.LASF119
 1881 0370 11       		.sleb128 17
 1882 0371 08       		.uleb128 0x8
 1883 0372 740E0000 		.4byte	.LASF120
 1884 0376 8001     		.sleb128 128
 1885 0378 08       		.uleb128 0x8
 1886 0379 F6120000 		.4byte	.LASF121
 1887 037d 8001     		.sleb128 128
 1888 037f 08       		.uleb128 0x8
 1889 0380 EB270000 		.4byte	.LASF122
 1890 0384 8001     		.sleb128 128
 1891 0386 08       		.uleb128 0x8
 1892 0387 B9230000 		.4byte	.LASF123
 1893 038b 8001     		.sleb128 128
 1894 038d 08       		.uleb128 0x8
 1895 038e B21C0000 		.4byte	.LASF124
 1896 0392 8001     		.sleb128 128
 1897 0394 08       		.uleb128 0x8
 1898 0395 C9110000 		.4byte	.LASF125
 1899 0399 8101     		.sleb128 129
 1900 039b 08       		.uleb128 0x8
 1901 039c 602A0000 		.4byte	.LASF126
 1902 03a0 A001     		.sleb128 160
 1903 03a2 08       		.uleb128 0x8
 1904 03a3 D3130000 		.4byte	.LASF127
 1905 03a7 FD01     		.sleb128 253
 1906 03a9 08       		.uleb128 0x8
 1907 03aa 16190000 		.4byte	.LASF128
 1908 03ae FE01     		.sleb128 254
 1909 03b0 08       		.uleb128 0x8
 1910 03b1 6E1F0000 		.4byte	.LASF129
 1911 03b5 FF01     		.sleb128 255
 1912 03b7 00       		.byte	0
 1913 03b8 0A       		.uleb128 0xa
 1914 03b9 80230000 		.4byte	.LASF130
 1915 03bd 04       		.byte	0x4
 1916 03be 3001     		.2byte	0x130
 1917 03c0 FD020000 		.4byte	0x2fd
 1918 03c4 0A       		.uleb128 0xa
 1919 03c5 96220000 		.4byte	.LASF131
 1920 03c9 04       		.byte	0x4
 1921 03ca 5201     		.2byte	0x152
 1922 03cc 76000000 		.4byte	0x76
 1923 03d0 0C       		.uleb128 0xc
 1924 03d1 02       		.byte	0x2
 1925 03d2 04       		.byte	0x4
 1926 03d3 5501     		.2byte	0x155
 1927 03d5 F4030000 		.4byte	0x3f4
 1928 03d9 0D       		.uleb128 0xd
 1929 03da FA060000 		.4byte	.LASF132
 1930 03de 04       		.byte	0x4
 1931 03df 5C01     		.2byte	0x15c
 1932 03e1 6B000000 		.4byte	0x6b
 1933 03e5 00       		.byte	0
ARM GAS  C:\Users\Zachary\AppData\Local\Temp\ccv8jLse.s 			page 46


 1934 03e6 0D       		.uleb128 0xd
 1935 03e7 572E0000 		.4byte	.LASF133
 1936 03eb 04       		.byte	0x4
 1937 03ec 6201     		.2byte	0x162
 1938 03ee 6B000000 		.4byte	0x6b
 1939 03f2 01       		.byte	0x1
 1940 03f3 00       		.byte	0
 1941 03f4 0A       		.uleb128 0xa
 1942 03f5 62060000 		.4byte	.LASF134
 1943 03f9 04       		.byte	0x4
 1944 03fa 6401     		.2byte	0x164
 1945 03fc D0030000 		.4byte	0x3d0
 1946 0400 0C       		.uleb128 0xc
 1947 0401 08       		.byte	0x8
 1948 0402 04       		.byte	0x4
 1949 0403 7901     		.2byte	0x179
 1950 0405 31040000 		.4byte	0x431
 1951 0409 0E       		.uleb128 0xe
 1952 040a 76616C00 		.ascii	"val\000"
 1953 040e 04       		.byte	0x4
 1954 040f 7C01     		.2byte	0x17c
 1955 0411 F7020000 		.4byte	0x2f7
 1956 0415 00       		.byte	0
 1957 0416 0E       		.uleb128 0xe
 1958 0417 6C656E00 		.ascii	"len\000"
 1959 041b 04       		.byte	0x4
 1960 041c 7F01     		.2byte	0x17f
 1961 041e 76000000 		.4byte	0x76
 1962 0422 04       		.byte	0x4
 1963 0423 0D       		.uleb128 0xd
 1964 0424 ED2D0000 		.4byte	.LASF135
 1965 0428 04       		.byte	0x4
 1966 0429 8601     		.2byte	0x186
 1967 042b 76000000 		.4byte	0x76
 1968 042f 06       		.byte	0x6
 1969 0430 00       		.byte	0
 1970 0431 0A       		.uleb128 0xa
 1971 0432 03050000 		.4byte	.LASF136
 1972 0436 04       		.byte	0x4
 1973 0437 8801     		.2byte	0x188
 1974 0439 00040000 		.4byte	0x400
 1975 043d 0C       		.uleb128 0xc
 1976 043e 0C       		.byte	0xc
 1977 043f 04       		.byte	0x4
 1978 0440 8B01     		.2byte	0x18b
 1979 0442 61040000 		.4byte	0x461
 1980 0446 0D       		.uleb128 0xd
 1981 0447 E5220000 		.4byte	.LASF137
 1982 044b 04       		.byte	0x4
 1983 044c 8E01     		.2byte	0x18e
 1984 044e 31040000 		.4byte	0x431
 1985 0452 00       		.byte	0
 1986 0453 0D       		.uleb128 0xd
 1987 0454 071B0000 		.4byte	.LASF138
 1988 0458 04       		.byte	0x4
 1989 0459 9101     		.2byte	0x191
 1990 045b C4030000 		.4byte	0x3c4
ARM GAS  C:\Users\Zachary\AppData\Local\Temp\ccv8jLse.s 			page 47


 1991 045f 08       		.byte	0x8
 1992 0460 00       		.byte	0
 1993 0461 0A       		.uleb128 0xa
 1994 0462 A7090000 		.4byte	.LASF139
 1995 0466 04       		.byte	0x4
 1996 0467 9301     		.2byte	0x193
 1997 0469 3D040000 		.4byte	0x43d
 1998 046d 04       		.uleb128 0x4
 1999 046e 8A000000 		.4byte	.LASF140
 2000 0472 05       		.byte	0x5
 2001 0473 2D       		.byte	0x2d
 2002 0474 61040000 		.4byte	0x461
 2003 0478 0F       		.uleb128 0xf
 2004 0479 10       		.byte	0x10
 2005 047a 05       		.byte	0x5
 2006 047b 52       		.byte	0x52
 2007 047c 99040000 		.4byte	0x499
 2008 0480 10       		.uleb128 0x10
 2009 0481 55240000 		.4byte	.LASF141
 2010 0485 05       		.byte	0x5
 2011 0486 55       		.byte	0x55
 2012 0487 F4030000 		.4byte	0x3f4
 2013 048b 00       		.byte	0
 2014 048c 10       		.uleb128 0x10
 2015 048d CE270000 		.4byte	.LASF142
 2016 0491 05       		.byte	0x5
 2017 0492 58       		.byte	0x58
 2018 0493 61040000 		.4byte	0x461
 2019 0497 04       		.byte	0x4
 2020 0498 00       		.byte	0
 2021 0499 04       		.uleb128 0x4
 2022 049a 2E1B0000 		.4byte	.LASF143
 2023 049e 05       		.byte	0x5
 2024 049f 5A       		.byte	0x5a
 2025 04a0 78040000 		.4byte	0x478
 2026 04a4 0F       		.uleb128 0xf
 2027 04a5 08       		.byte	0x8
 2028 04a6 06       		.byte	0x6
 2029 04a7 B8       		.byte	0xb8
 2030 04a8 C5040000 		.4byte	0x4c5
 2031 04ac 10       		.uleb128 0x10
 2032 04ad 75220000 		.4byte	.LASF144
 2033 04b1 06       		.byte	0x6
 2034 04b2 BB       		.byte	0xbb
 2035 04b3 76000000 		.4byte	0x76
 2036 04b7 00       		.byte	0
 2037 04b8 10       		.uleb128 0x10
 2038 04b9 3A270000 		.4byte	.LASF145
 2039 04bd 06       		.byte	0x6
 2040 04be C0       		.byte	0xc0
 2041 04bf AD000000 		.4byte	0xad
 2042 04c3 04       		.byte	0x4
 2043 04c4 00       		.byte	0
 2044 04c5 04       		.uleb128 0x4
 2045 04c6 E5240000 		.4byte	.LASF146
 2046 04ca 06       		.byte	0x6
 2047 04cb C2       		.byte	0xc2
ARM GAS  C:\Users\Zachary\AppData\Local\Temp\ccv8jLse.s 			page 48


 2048 04cc A4040000 		.4byte	0x4a4
 2049 04d0 11       		.uleb128 0x11
 2050 04d1 08       		.byte	0x8
 2051 04d2 06       		.byte	0x6
 2052 04d3 C5       		.byte	0xc5
 2053 04d4 EF040000 		.4byte	0x4ef
 2054 04d8 12       		.uleb128 0x12
 2055 04d9 DC270000 		.4byte	.LASF147
 2056 04dd 06       		.byte	0x6
 2057 04de CC       		.byte	0xcc
 2058 04df C5040000 		.4byte	0x4c5
 2059 04e3 12       		.uleb128 0x12
 2060 04e4 54150000 		.4byte	.LASF148
 2061 04e8 06       		.byte	0x6
 2062 04e9 CF       		.byte	0xcf
 2063 04ea 76000000 		.4byte	0x76
 2064 04ee 00       		.byte	0
 2065 04ef 04       		.uleb128 0x4
 2066 04f0 98260000 		.4byte	.LASF149
 2067 04f4 06       		.byte	0x6
 2068 04f5 D1       		.byte	0xd1
 2069 04f6 D0040000 		.4byte	0x4d0
 2070 04fa 0F       		.uleb128 0xf
 2071 04fb 14       		.byte	0x14
 2072 04fc 06       		.byte	0x6
 2073 04fd D4       		.byte	0xd4
 2074 04fe 3F050000 		.4byte	0x53f
 2075 0502 10       		.uleb128 0x10
 2076 0503 F70B0000 		.4byte	.LASF150
 2077 0507 06       		.byte	0x6
 2078 0508 D7       		.byte	0xd7
 2079 0509 76000000 		.4byte	0x76
 2080 050d 00       		.byte	0
 2081 050e 10       		.uleb128 0x10
 2082 050f C6090000 		.4byte	.LASF151
 2083 0513 06       		.byte	0x6
 2084 0514 DD       		.byte	0xdd
 2085 0515 76000000 		.4byte	0x76
 2086 0519 02       		.byte	0x2
 2087 051a 10       		.uleb128 0x10
 2088 051b 39050000 		.4byte	.LASF152
 2089 051f 06       		.byte	0x6
 2090 0520 E7       		.byte	0xe7
 2091 0521 81000000 		.4byte	0x81
 2092 0525 04       		.byte	0x4
 2093 0526 10       		.uleb128 0x10
 2094 0527 781B0000 		.4byte	.LASF153
 2095 052b 06       		.byte	0x6
 2096 052c EA       		.byte	0xea
 2097 052d 76000000 		.4byte	0x76
 2098 0531 08       		.byte	0x8
 2099 0532 10       		.uleb128 0x10
 2100 0533 3F230000 		.4byte	.LASF154
 2101 0537 06       		.byte	0x6
 2102 0538 F3       		.byte	0xf3
 2103 0539 EF040000 		.4byte	0x4ef
 2104 053d 0C       		.byte	0xc
ARM GAS  C:\Users\Zachary\AppData\Local\Temp\ccv8jLse.s 			page 49


 2105 053e 00       		.byte	0
 2106 053f 04       		.uleb128 0x4
 2107 0540 800F0000 		.4byte	.LASF155
 2108 0544 06       		.byte	0x6
 2109 0545 F4       		.byte	0xf4
 2110 0546 FA040000 		.4byte	0x4fa
 2111 054a 0A       		.uleb128 0xa
 2112 054b BF050000 		.4byte	.LASF156
 2113 054f 07       		.byte	0x7
 2114 0550 0001     		.2byte	0x100
 2115 0552 56050000 		.4byte	0x556
 2116 0556 0B       		.uleb128 0xb
 2117 0557 04       		.byte	0x4
 2118 0558 5C050000 		.4byte	0x55c
 2119 055c 13       		.uleb128 0x13
 2120 055d 6C050000 		.4byte	0x56c
 2121 0561 14       		.uleb128 0x14
 2122 0562 81000000 		.4byte	0x81
 2123 0566 14       		.uleb128 0x14
 2124 0567 AD000000 		.4byte	0xad
 2125 056b 00       		.byte	0
 2126 056c 0B       		.uleb128 0xb
 2127 056d 04       		.byte	0x4
 2128 056e 31040000 		.4byte	0x431
 2129 0572 07       		.uleb128 0x7
 2130 0573 01       		.byte	0x1
 2131 0574 08       		.byte	0x8
 2132 0575 1D       		.byte	0x1d
 2133 0576 B7050000 		.4byte	0x5b7
 2134 057a 08       		.uleb128 0x8
 2135 057b A8210000 		.4byte	.LASF157
 2136 057f 00       		.sleb128 0
 2137 0580 08       		.uleb128 0x8
 2138 0581 690F0000 		.4byte	.LASF158
 2139 0585 01       		.sleb128 1
 2140 0586 08       		.uleb128 0x8
 2141 0587 C3150000 		.4byte	.LASF159
 2142 058b 02       		.sleb128 2
 2143 058c 08       		.uleb128 0x8
 2144 058d F0080000 		.4byte	.LASF160
 2145 0591 03       		.sleb128 3
 2146 0592 08       		.uleb128 0x8
 2147 0593 EB050000 		.4byte	.LASF161
 2148 0597 04       		.sleb128 4
 2149 0598 08       		.uleb128 0x8
 2150 0599 130F0000 		.4byte	.LASF162
 2151 059d 05       		.sleb128 5
 2152 059e 08       		.uleb128 0x8
 2153 059f B50F0000 		.4byte	.LASF163
 2154 05a3 06       		.sleb128 6
 2155 05a4 08       		.uleb128 0x8
 2156 05a5 F81B0000 		.4byte	.LASF164
 2157 05a9 07       		.sleb128 7
 2158 05aa 08       		.uleb128 0x8
 2159 05ab B7170000 		.4byte	.LASF165
 2160 05af 08       		.sleb128 8
 2161 05b0 08       		.uleb128 0x8
ARM GAS  C:\Users\Zachary\AppData\Local\Temp\ccv8jLse.s 			page 50


 2162 05b1 47000000 		.4byte	.LASF166
 2163 05b5 09       		.sleb128 9
 2164 05b6 00       		.byte	0
 2165 05b7 07       		.uleb128 0x7
 2166 05b8 01       		.byte	0x1
 2167 05b9 09       		.byte	0x9
 2168 05ba 1C       		.byte	0x1c
 2169 05bb DE050000 		.4byte	0x5de
 2170 05bf 08       		.uleb128 0x8
 2171 05c0 64280000 		.4byte	.LASF167
 2172 05c4 00       		.sleb128 0
 2173 05c5 08       		.uleb128 0x8
 2174 05c6 2B230000 		.4byte	.LASF168
 2175 05ca 01       		.sleb128 1
 2176 05cb 08       		.uleb128 0x8
 2177 05cc 5E080000 		.4byte	.LASF169
 2178 05d0 02       		.sleb128 2
 2179 05d1 08       		.uleb128 0x8
 2180 05d2 DB150000 		.4byte	.LASF170
 2181 05d6 03       		.sleb128 3
 2182 05d7 08       		.uleb128 0x8
 2183 05d8 DA200000 		.4byte	.LASF171
 2184 05dc 04       		.sleb128 4
 2185 05dd 00       		.byte	0
 2186 05de 04       		.uleb128 0x4
 2187 05df 5B160000 		.4byte	.LASF172
 2188 05e3 09       		.byte	0x9
 2189 05e4 23       		.byte	0x23
 2190 05e5 B7050000 		.4byte	0x5b7
 2191 05e9 07       		.uleb128 0x7
 2192 05ea 01       		.byte	0x1
 2193 05eb 09       		.byte	0x9
 2194 05ec 27       		.byte	0x27
 2195 05ed 04060000 		.4byte	0x604
 2196 05f1 08       		.uleb128 0x8
 2197 05f2 17040000 		.4byte	.LASF173
 2198 05f6 00       		.sleb128 0
 2199 05f7 08       		.uleb128 0x8
 2200 05f8 60020000 		.4byte	.LASF174
 2201 05fc 01       		.sleb128 1
 2202 05fd 08       		.uleb128 0x8
 2203 05fe 7E0B0000 		.4byte	.LASF175
 2204 0602 02       		.sleb128 2
 2205 0603 00       		.byte	0
 2206 0604 04       		.uleb128 0x4
 2207 0605 3E200000 		.4byte	.LASF176
 2208 0609 09       		.byte	0x9
 2209 060a 2B       		.byte	0x2b
 2210 060b E9050000 		.4byte	0x5e9
 2211 060f 0F       		.uleb128 0xf
 2212 0610 06       		.byte	0x6
 2213 0611 09       		.byte	0x9
 2214 0612 2E       		.byte	0x2e
 2215 0613 30060000 		.4byte	0x630
 2216 0617 10       		.uleb128 0x10
 2217 0618 48270000 		.4byte	.LASF177
 2218 061c 09       		.byte	0x9
ARM GAS  C:\Users\Zachary\AppData\Local\Temp\ccv8jLse.s 			page 51


 2219 061d 30       		.byte	0x30
 2220 061e C4030000 		.4byte	0x3c4
 2221 0622 00       		.byte	0
 2222 0623 10       		.uleb128 0x10
 2223 0624 EE060000 		.4byte	.LASF178
 2224 0628 09       		.byte	0x9
 2225 0629 31       		.byte	0x31
 2226 062a 30060000 		.4byte	0x630
 2227 062e 02       		.byte	0x2
 2228 062f 00       		.byte	0
 2229 0630 15       		.uleb128 0x15
 2230 0631 C4030000 		.4byte	0x3c4
 2231 0635 40060000 		.4byte	0x640
 2232 0639 16       		.uleb128 0x16
 2233 063a A6000000 		.4byte	0xa6
 2234 063e 01       		.byte	0x1
 2235 063f 00       		.byte	0
 2236 0640 04       		.uleb128 0x4
 2237 0641 4C110000 		.4byte	.LASF179
 2238 0645 09       		.byte	0x9
 2239 0646 32       		.byte	0x32
 2240 0647 0F060000 		.4byte	0x60f
 2241 064b 0F       		.uleb128 0xf
 2242 064c 1A       		.byte	0x1a
 2243 064d 09       		.byte	0x9
 2244 064e 35       		.byte	0x35
 2245 064f 6C060000 		.4byte	0x66c
 2246 0653 10       		.uleb128 0x10
 2247 0654 37090000 		.4byte	.LASF180
 2248 0658 09       		.byte	0x9
 2249 0659 38       		.byte	0x38
 2250 065a C4030000 		.4byte	0x3c4
 2251 065e 00       		.byte	0
 2252 065f 10       		.uleb128 0x10
 2253 0660 C82A0000 		.4byte	.LASF181
 2254 0664 09       		.byte	0x9
 2255 0665 3B       		.byte	0x3b
 2256 0666 6C060000 		.4byte	0x66c
 2257 066a 02       		.byte	0x2
 2258 066b 00       		.byte	0
 2259 066c 15       		.uleb128 0x15
 2260 066d 40060000 		.4byte	0x640
 2261 0671 7C060000 		.4byte	0x67c
 2262 0675 16       		.uleb128 0x16
 2263 0676 A6000000 		.4byte	0xa6
 2264 067a 03       		.byte	0x3
 2265 067b 00       		.byte	0
 2266 067c 04       		.uleb128 0x4
 2267 067d C02C0000 		.4byte	.LASF182
 2268 0681 09       		.byte	0x9
 2269 0682 3C       		.byte	0x3c
 2270 0683 4B060000 		.4byte	0x64b
 2271 0687 0F       		.uleb128 0xf
 2272 0688 08       		.byte	0x8
 2273 0689 09       		.byte	0x9
 2274 068a 54       		.byte	0x54
 2275 068b B4060000 		.4byte	0x6b4
ARM GAS  C:\Users\Zachary\AppData\Local\Temp\ccv8jLse.s 			page 52


 2276 068f 10       		.uleb128 0x10
 2277 0690 55240000 		.4byte	.LASF141
 2278 0694 09       		.byte	0x9
 2279 0695 56       		.byte	0x56
 2280 0696 F4030000 		.4byte	0x3f4
 2281 069a 00       		.byte	0
 2282 069b 10       		.uleb128 0x10
 2283 069c 06010000 		.4byte	.LASF183
 2284 06a0 09       		.byte	0x9
 2285 06a1 57       		.byte	0x57
 2286 06a2 DE050000 		.4byte	0x5de
 2287 06a6 02       		.byte	0x2
 2288 06a7 10       		.uleb128 0x10
 2289 06a8 E5220000 		.4byte	.LASF137
 2290 06ac 09       		.byte	0x9
 2291 06ad 58       		.byte	0x58
 2292 06ae 6C050000 		.4byte	0x56c
 2293 06b2 04       		.byte	0x4
 2294 06b3 00       		.byte	0
 2295 06b4 04       		.uleb128 0x4
 2296 06b5 FF070000 		.4byte	.LASF184
 2297 06b9 09       		.byte	0x9
 2298 06ba 59       		.byte	0x59
 2299 06bb 87060000 		.4byte	0x687
 2300 06bf 07       		.uleb128 0x7
 2301 06c0 02       		.byte	0x2
 2302 06c1 0A       		.byte	0xa
 2303 06c2 80       		.byte	0x80
 2304 06c3 250C0000 		.4byte	0xc25
 2305 06c7 08       		.uleb128 0x8
 2306 06c8 E91C0000 		.4byte	.LASF185
 2307 06cc 8002     		.sleb128 256
 2308 06ce 08       		.uleb128 0x8
 2309 06cf F82E0000 		.4byte	.LASF186
 2310 06d3 8102     		.sleb128 257
 2311 06d5 08       		.uleb128 0x8
 2312 06d6 98080000 		.4byte	.LASF187
 2313 06da 8202     		.sleb128 258
 2314 06dc 08       		.uleb128 0x8
 2315 06dd AE2E0000 		.4byte	.LASF188
 2316 06e1 8302     		.sleb128 259
 2317 06e3 08       		.uleb128 0x8
 2318 06e4 E8210000 		.4byte	.LASF189
 2319 06e8 8402     		.sleb128 260
 2320 06ea 08       		.uleb128 0x8
 2321 06eb 332D0000 		.4byte	.LASF190
 2322 06ef 8502     		.sleb128 261
 2323 06f1 08       		.uleb128 0x8
 2324 06f2 670C0000 		.4byte	.LASF191
 2325 06f6 8602     		.sleb128 262
 2326 06f8 08       		.uleb128 0x8
 2327 06f9 E3280000 		.4byte	.LASF192
 2328 06fd 8702     		.sleb128 263
 2329 06ff 08       		.uleb128 0x8
 2330 0700 EA2C0000 		.4byte	.LASF193
 2331 0704 8802     		.sleb128 264
 2332 0706 08       		.uleb128 0x8
ARM GAS  C:\Users\Zachary\AppData\Local\Temp\ccv8jLse.s 			page 53


 2333 0707 96040000 		.4byte	.LASF194
 2334 070b 8902     		.sleb128 265
 2335 070d 08       		.uleb128 0x8
 2336 070e 90020000 		.4byte	.LASF195
 2337 0712 8A02     		.sleb128 266
 2338 0714 08       		.uleb128 0x8
 2339 0715 D9230000 		.4byte	.LASF196
 2340 0719 8B02     		.sleb128 267
 2341 071b 08       		.uleb128 0x8
 2342 071c C8170000 		.4byte	.LASF197
 2343 0720 8C02     		.sleb128 268
 2344 0722 08       		.uleb128 0x8
 2345 0723 B8200000 		.4byte	.LASF198
 2346 0727 8D02     		.sleb128 269
 2347 0729 08       		.uleb128 0x8
 2348 072a 21030000 		.4byte	.LASF199
 2349 072e 8E02     		.sleb128 270
 2350 0730 08       		.uleb128 0x8
 2351 0731 350D0000 		.4byte	.LASF200
 2352 0735 8F02     		.sleb128 271
 2353 0737 08       		.uleb128 0x8
 2354 0738 3A060000 		.4byte	.LASF201
 2355 073c 9002     		.sleb128 272
 2356 073e 08       		.uleb128 0x8
 2357 073f 222B0000 		.4byte	.LASF202
 2358 0743 9102     		.sleb128 273
 2359 0745 08       		.uleb128 0x8
 2360 0746 C91D0000 		.4byte	.LASF203
 2361 074a 9202     		.sleb128 274
 2362 074c 08       		.uleb128 0x8
 2363 074d 03300000 		.4byte	.LASF204
 2364 0751 9302     		.sleb128 275
 2365 0753 08       		.uleb128 0x8
 2366 0754 2B290000 		.4byte	.LASF205
 2367 0758 9402     		.sleb128 276
 2368 075a 08       		.uleb128 0x8
 2369 075b 1A2F0000 		.4byte	.LASF206
 2370 075f 9502     		.sleb128 277
 2371 0761 08       		.uleb128 0x8
 2372 0762 EF140000 		.4byte	.LASF207
 2373 0766 9602     		.sleb128 278
 2374 0768 08       		.uleb128 0x8
 2375 0769 70120000 		.4byte	.LASF208
 2376 076d 9702     		.sleb128 279
 2377 076f 08       		.uleb128 0x8
 2378 0770 AD030000 		.4byte	.LASF209
 2379 0774 9802     		.sleb128 280
 2380 0776 08       		.uleb128 0x8
 2381 0777 62210000 		.4byte	.LASF210
 2382 077b 9902     		.sleb128 281
 2383 077d 08       		.uleb128 0x8
 2384 077e 61150000 		.4byte	.LASF211
 2385 0782 9A02     		.sleb128 282
 2386 0784 08       		.uleb128 0x8
 2387 0785 6E240000 		.4byte	.LASF212
 2388 0789 9B02     		.sleb128 283
 2389 078b 08       		.uleb128 0x8
ARM GAS  C:\Users\Zachary\AppData\Local\Temp\ccv8jLse.s 			page 54


 2390 078c A3280000 		.4byte	.LASF213
 2391 0790 9C02     		.sleb128 284
 2392 0792 08       		.uleb128 0x8
 2393 0793 222A0000 		.4byte	.LASF214
 2394 0797 9D02     		.sleb128 285
 2395 0799 08       		.uleb128 0x8
 2396 079a 780A0000 		.4byte	.LASF215
 2397 079e 9E02     		.sleb128 286
 2398 07a0 08       		.uleb128 0x8
 2399 07a1 BF280000 		.4byte	.LASF216
 2400 07a5 9F02     		.sleb128 287
 2401 07a7 08       		.uleb128 0x8
 2402 07a8 81050000 		.4byte	.LASF217
 2403 07ac A002     		.sleb128 288
 2404 07ae 08       		.uleb128 0x8
 2405 07af D51B0000 		.4byte	.LASF218
 2406 07b3 A102     		.sleb128 289
 2407 07b5 08       		.uleb128 0x8
 2408 07b6 16270000 		.4byte	.LASF219
 2409 07ba A202     		.sleb128 290
 2410 07bc 08       		.uleb128 0x8
 2411 07bd 910F0000 		.4byte	.LASF220
 2412 07c1 A302     		.sleb128 291
 2413 07c3 08       		.uleb128 0x8
 2414 07c4 311D0000 		.4byte	.LASF221
 2415 07c8 A402     		.sleb128 292
 2416 07ca 08       		.uleb128 0x8
 2417 07cb 8D110000 		.4byte	.LASF222
 2418 07cf A502     		.sleb128 293
 2419 07d1 08       		.uleb128 0x8
 2420 07d2 A3050000 		.4byte	.LASF223
 2421 07d6 A602     		.sleb128 294
 2422 07d8 08       		.uleb128 0x8
 2423 07d9 C0010000 		.4byte	.LASF224
 2424 07dd A702     		.sleb128 295
 2425 07df 08       		.uleb128 0x8
 2426 07e0 28070000 		.4byte	.LASF225
 2427 07e4 A802     		.sleb128 296
 2428 07e6 08       		.uleb128 0x8
 2429 07e7 07230000 		.4byte	.LASF226
 2430 07eb A902     		.sleb128 297
 2431 07ed 08       		.uleb128 0x8
 2432 07ee 78180000 		.4byte	.LASF227
 2433 07f2 AA02     		.sleb128 298
 2434 07f4 08       		.uleb128 0x8
 2435 07f5 FE2A0000 		.4byte	.LASF228
 2436 07f9 AB02     		.sleb128 299
 2437 07fb 08       		.uleb128 0x8
 2438 07fc 03070000 		.4byte	.LASF229
 2439 0800 AC02     		.sleb128 300
 2440 0802 08       		.uleb128 0x8
 2441 0803 A41F0000 		.4byte	.LASF230
 2442 0807 AD02     		.sleb128 301
 2443 0809 08       		.uleb128 0x8
 2444 080a 9A2C0000 		.4byte	.LASF231
 2445 080e AE02     		.sleb128 302
 2446 0810 08       		.uleb128 0x8
ARM GAS  C:\Users\Zachary\AppData\Local\Temp\ccv8jLse.s 			page 55


 2447 0811 452B0000 		.4byte	.LASF232
 2448 0815 AF02     		.sleb128 303
 2449 0817 08       		.uleb128 0x8
 2450 0818 A9000000 		.4byte	.LASF233
 2451 081c B002     		.sleb128 304
 2452 081e 08       		.uleb128 0x8
 2453 081f 22280000 		.4byte	.LASF234
 2454 0823 B102     		.sleb128 305
 2455 0825 08       		.uleb128 0x8
 2456 0826 1F160000 		.4byte	.LASF235
 2457 082a B202     		.sleb128 306
 2458 082c 08       		.uleb128 0x8
 2459 082d 53270000 		.4byte	.LASF236
 2460 0831 B302     		.sleb128 307
 2461 0833 08       		.uleb128 0x8
 2462 0834 68250000 		.4byte	.LASF237
 2463 0838 B402     		.sleb128 308
 2464 083a 08       		.uleb128 0x8
 2465 083b 6B010000 		.4byte	.LASF238
 2466 083f B502     		.sleb128 309
 2467 0841 08       		.uleb128 0x8
 2468 0842 9E240000 		.4byte	.LASF239
 2469 0846 B602     		.sleb128 310
 2470 0848 08       		.uleb128 0x8
 2471 0849 940B0000 		.4byte	.LASF240
 2472 084d B702     		.sleb128 311
 2473 084f 08       		.uleb128 0x8
 2474 0850 6E070000 		.4byte	.LASF241
 2475 0854 B802     		.sleb128 312
 2476 0856 08       		.uleb128 0x8
 2477 0857 4B070000 		.4byte	.LASF242
 2478 085b B902     		.sleb128 313
 2479 085d 08       		.uleb128 0x8
 2480 085e 5A0B0000 		.4byte	.LASF243
 2481 0862 BA02     		.sleb128 314
 2482 0864 08       		.uleb128 0x8
 2483 0865 28170000 		.4byte	.LASF244
 2484 0869 BB02     		.sleb128 315
 2485 086b 08       		.uleb128 0x8
 2486 086c 352E0000 		.4byte	.LASF245
 2487 0870 BC02     		.sleb128 316
 2488 0872 08       		.uleb128 0x8
 2489 0873 2A0F0000 		.4byte	.LASF246
 2490 0877 BD02     		.sleb128 317
 2491 0879 08       		.uleb128 0x8
 2492 087a EB220000 		.4byte	.LASF247
 2493 087e BE02     		.sleb128 318
 2494 0880 08       		.uleb128 0x8
 2495 0881 B91E0000 		.4byte	.LASF248
 2496 0885 BF02     		.sleb128 319
 2497 0887 08       		.uleb128 0x8
 2498 0888 26010000 		.4byte	.LASF249
 2499 088c C002     		.sleb128 320
 2500 088e 08       		.uleb128 0x8
 2501 088f A0150000 		.4byte	.LASF250
 2502 0893 C102     		.sleb128 321
 2503 0895 08       		.uleb128 0x8
ARM GAS  C:\Users\Zachary\AppData\Local\Temp\ccv8jLse.s 			page 56


 2504 0896 C4000000 		.4byte	.LASF251
 2505 089a C202     		.sleb128 322
 2506 089c 08       		.uleb128 0x8
 2507 089d D2070000 		.4byte	.LASF252
 2508 08a1 C302     		.sleb128 323
 2509 08a3 08       		.uleb128 0x8
 2510 08a4 A52B0000 		.4byte	.LASF253
 2511 08a8 C402     		.sleb128 324
 2512 08aa 08       		.uleb128 0x8
 2513 08ab 5E110000 		.4byte	.LASF254
 2514 08af C502     		.sleb128 325
 2515 08b1 08       		.uleb128 0x8
 2516 08b2 3C100000 		.4byte	.LASF255
 2517 08b6 C602     		.sleb128 326
 2518 08b8 08       		.uleb128 0x8
 2519 08b9 16050000 		.4byte	.LASF256
 2520 08bd C702     		.sleb128 327
 2521 08bf 08       		.uleb128 0x8
 2522 08c0 16080000 		.4byte	.LASF257
 2523 08c4 C802     		.sleb128 328
 2524 08c6 08       		.uleb128 0x8
 2525 08c7 89190000 		.4byte	.LASF258
 2526 08cb C902     		.sleb128 329
 2527 08cd 08       		.uleb128 0x8
 2528 08ce B7160000 		.4byte	.LASF259
 2529 08d2 CA02     		.sleb128 330
 2530 08d4 08       		.uleb128 0x8
 2531 08d5 B9060000 		.4byte	.LASF260
 2532 08d9 CB02     		.sleb128 331
 2533 08db 08       		.uleb128 0x8
 2534 08dc D0050000 		.4byte	.LASF261
 2535 08e0 CC02     		.sleb128 332
 2536 08e2 08       		.uleb128 0x8
 2537 08e3 48010000 		.4byte	.LASF262
 2538 08e7 CD02     		.sleb128 333
 2539 08e9 08       		.uleb128 0x8
 2540 08ea 72160000 		.4byte	.LASF263
 2541 08ee CE02     		.sleb128 334
 2542 08f0 08       		.uleb128 0x8
 2543 08f1 992F0000 		.4byte	.LASF264
 2544 08f5 CF02     		.sleb128 335
 2545 08f7 08       		.uleb128 0x8
 2546 08f8 1C240000 		.4byte	.LASF265
 2547 08fc D002     		.sleb128 336
 2548 08fe 08       		.uleb128 0x8
 2549 08ff 62100000 		.4byte	.LASF266
 2550 0903 D102     		.sleb128 337
 2551 0905 08       		.uleb128 0x8
 2552 0906 B01B0000 		.4byte	.LASF267
 2553 090a D202     		.sleb128 338
 2554 090c 08       		.uleb128 0x8
 2555 090d 64230000 		.4byte	.LASF268
 2556 0911 D302     		.sleb128 339
 2557 0913 08       		.uleb128 0x8
 2558 0914 FF020000 		.4byte	.LASF269
 2559 0918 D402     		.sleb128 340
 2560 091a 08       		.uleb128 0x8
ARM GAS  C:\Users\Zachary\AppData\Local\Temp\ccv8jLse.s 			page 57


 2561 091b 52220000 		.4byte	.LASF270
 2562 091f D502     		.sleb128 341
 2563 0921 08       		.uleb128 0x8
 2564 0922 CC0E0000 		.4byte	.LASF271
 2565 0926 D602     		.sleb128 342
 2566 0928 08       		.uleb128 0x8
 2567 0929 F11E0000 		.4byte	.LASF272
 2568 092d D702     		.sleb128 343
 2569 092f 08       		.uleb128 0x8
 2570 0930 09290000 		.4byte	.LASF273
 2571 0934 D802     		.sleb128 344
 2572 0936 08       		.uleb128 0x8
 2573 0937 96230000 		.4byte	.LASF274
 2574 093b D902     		.sleb128 345
 2575 093d 08       		.uleb128 0x8
 2576 093e C4210000 		.4byte	.LASF275
 2577 0942 DA02     		.sleb128 346
 2578 0944 08       		.uleb128 0x8
 2579 0945 E9170000 		.4byte	.LASF276
 2580 0949 DB02     		.sleb128 347
 2581 094b 08       		.uleb128 0x8
 2582 094c 90010000 		.4byte	.LASF277
 2583 0950 DC02     		.sleb128 348
 2584 0952 08       		.uleb128 0x8
 2585 0953 8A1F0000 		.4byte	.LASF278
 2586 0957 DD02     		.sleb128 349
 2587 0959 08       		.uleb128 0x8
 2588 095a 1B2E0000 		.4byte	.LASF279
 2589 095e DE02     		.sleb128 350
 2590 0960 08       		.uleb128 0x8
 2591 0961 442A0000 		.4byte	.LASF280
 2592 0965 DF02     		.sleb128 351
 2593 0967 08       		.uleb128 0x8
 2594 0968 49170000 		.4byte	.LASF281
 2595 096c E002     		.sleb128 352
 2596 096e 08       		.uleb128 0x8
 2597 096f 912D0000 		.4byte	.LASF282
 2598 0973 E102     		.sleb128 353
 2599 0975 08       		.uleb128 0x8
 2600 0976 B10D0000 		.4byte	.LASF283
 2601 097a E202     		.sleb128 354
 2602 097c 08       		.uleb128 0x8
 2603 097d 602B0000 		.4byte	.LASF284
 2604 0981 E302     		.sleb128 355
 2605 0983 08       		.uleb128 0x8
 2606 0984 42300000 		.4byte	.LASF285
 2607 0988 E402     		.sleb128 356
 2608 098a 08       		.uleb128 0x8
 2609 098b 6A1A0000 		.4byte	.LASF286
 2610 098f E502     		.sleb128 357
 2611 0991 08       		.uleb128 0x8
 2612 0992 582F0000 		.4byte	.LASF287
 2613 0996 E602     		.sleb128 358
 2614 0998 08       		.uleb128 0x8
 2615 0999 231A0000 		.4byte	.LASF288
 2616 099d E702     		.sleb128 359
 2617 099f 08       		.uleb128 0x8
ARM GAS  C:\Users\Zachary\AppData\Local\Temp\ccv8jLse.s 			page 58


 2618 09a0 2C0A0000 		.4byte	.LASF289
 2619 09a4 E802     		.sleb128 360
 2620 09a6 08       		.uleb128 0x8
 2621 09a7 A1130000 		.4byte	.LASF290
 2622 09ab E902     		.sleb128 361
 2623 09ad 08       		.uleb128 0x8
 2624 09ae A7110000 		.4byte	.LASF291
 2625 09b2 EA02     		.sleb128 362
 2626 09b4 08       		.uleb128 0x8
 2627 09b5 CE090000 		.4byte	.LASF292
 2628 09b9 EB02     		.sleb128 363
 2629 09bb 08       		.uleb128 0x8
 2630 09bc 8C250000 		.4byte	.LASF293
 2631 09c0 EC02     		.sleb128 364
 2632 09c2 08       		.uleb128 0x8
 2633 09c3 46140000 		.4byte	.LASF294
 2634 09c7 ED02     		.sleb128 365
 2635 09c9 08       		.uleb128 0x8
 2636 09ca 1A200000 		.4byte	.LASF295
 2637 09ce EE02     		.sleb128 366
 2638 09d0 08       		.uleb128 0x8
 2639 09d1 88030000 		.4byte	.LASF296
 2640 09d5 EF02     		.sleb128 367
 2641 09d7 08       		.uleb128 0x8
 2642 09d8 440F0000 		.4byte	.LASF297
 2643 09dc F002     		.sleb128 368
 2644 09de 08       		.uleb128 0x8
 2645 09df D2120000 		.4byte	.LASF298
 2646 09e3 F102     		.sleb128 369
 2647 09e5 08       		.uleb128 0x8
 2648 09e6 8B300000 		.4byte	.LASF299
 2649 09ea F202     		.sleb128 370
 2650 09ec 08       		.uleb128 0x8
 2651 09ed C91F0000 		.4byte	.LASF300
 2652 09f1 F302     		.sleb128 371
 2653 09f3 08       		.uleb128 0x8
 2654 09f4 56200000 		.4byte	.LASF301
 2655 09f8 F402     		.sleb128 372
 2656 09fa 08       		.uleb128 0x8
 2657 09fb 76060000 		.4byte	.LASF302
 2658 09ff F502     		.sleb128 373
 2659 0a01 08       		.uleb128 0x8
 2660 0a02 29110000 		.4byte	.LASF303
 2661 0a06 F602     		.sleb128 374
 2662 0a08 08       		.uleb128 0x8
 2663 0a09 0E260000 		.4byte	.LASF304
 2664 0a0d F702     		.sleb128 375
 2665 0a0f 08       		.uleb128 0x8
 2666 0a10 45090000 		.4byte	.LASF305
 2667 0a14 F802     		.sleb128 376
 2668 0a16 08       		.uleb128 0x8
 2669 0a17 22000000 		.4byte	.LASF306
 2670 0a1b F902     		.sleb128 377
 2671 0a1d 08       		.uleb128 0x8
 2672 0a1e DD290000 		.4byte	.LASF307
 2673 0a22 FA02     		.sleb128 378
 2674 0a24 08       		.uleb128 0x8
ARM GAS  C:\Users\Zachary\AppData\Local\Temp\ccv8jLse.s 			page 59


 2675 0a25 0F0E0000 		.4byte	.LASF308
 2676 0a29 FB02     		.sleb128 379
 2677 0a2b 08       		.uleb128 0x8
 2678 0a2c 67300000 		.4byte	.LASF309
 2679 0a30 FC02     		.sleb128 380
 2680 0a32 08       		.uleb128 0x8
 2681 0a33 3A150000 		.4byte	.LASF310
 2682 0a37 FD02     		.sleb128 381
 2683 0a39 08       		.uleb128 0x8
 2684 0a3a 6B170000 		.4byte	.LASF311
 2685 0a3e FE02     		.sleb128 382
 2686 0a40 08       		.uleb128 0x8
 2687 0a41 28300000 		.4byte	.LASF312
 2688 0a45 FF02     		.sleb128 383
 2689 0a47 08       		.uleb128 0x8
 2690 0a48 7D270000 		.4byte	.LASF313
 2691 0a4c 8003     		.sleb128 384
 2692 0a4e 08       		.uleb128 0x8
 2693 0a4f 791D0000 		.4byte	.LASF314
 2694 0a53 8103     		.sleb128 385
 2695 0a55 08       		.uleb128 0x8
 2696 0a56 311F0000 		.4byte	.LASF315
 2697 0a5a 8203     		.sleb128 386
 2698 0a5c 08       		.uleb128 0x8
 2699 0a5d 202C0000 		.4byte	.LASF316
 2700 0a61 8303     		.sleb128 387
 2701 0a63 08       		.uleb128 0x8
 2702 0a64 7C140000 		.4byte	.LASF317
 2703 0a68 8403     		.sleb128 388
 2704 0a6a 08       		.uleb128 0x8
 2705 0a6b E6100000 		.4byte	.LASF318
 2706 0a6f 8503     		.sleb128 389
 2707 0a71 08       		.uleb128 0x8
 2708 0a72 67190000 		.4byte	.LASF319
 2709 0a76 8603     		.sleb128 390
 2710 0a78 08       		.uleb128 0x8
 2711 0a79 01020000 		.4byte	.LASF320
 2712 0a7d 8703     		.sleb128 391
 2713 0a7f 08       		.uleb128 0x8
 2714 0a80 FA230000 		.4byte	.LASF321
 2715 0a84 8803     		.sleb128 392
 2716 0a86 08       		.uleb128 0x8
 2717 0a87 DC020000 		.4byte	.LASF322
 2718 0a8b 8903     		.sleb128 393
 2719 0a8d 08       		.uleb128 0x8
 2720 0a8e 3E210000 		.4byte	.LASF323
 2721 0a92 8A03     		.sleb128 394
 2722 0a94 08       		.uleb128 0x8
 2723 0a95 90070000 		.4byte	.LASF324
 2724 0a99 8B03     		.sleb128 395
 2725 0a9b 08       		.uleb128 0x8
 2726 0a9c 03170000 		.4byte	.LASF325
 2727 0aa0 8C03     		.sleb128 396
 2728 0aa2 08       		.uleb128 0x8
 2729 0aa3 4B260000 		.4byte	.LASF326
 2730 0aa7 8D03     		.sleb128 397
 2731 0aa9 08       		.uleb128 0x8
ARM GAS  C:\Users\Zachary\AppData\Local\Temp\ccv8jLse.s 			page 60


 2732 0aaa 44050000 		.4byte	.LASF327
 2733 0aae 8E03     		.sleb128 398
 2734 0ab0 08       		.uleb128 0x8
 2735 0ab1 48230000 		.4byte	.LASF328
 2736 0ab5 8F03     		.sleb128 399
 2737 0ab7 08       		.uleb128 0x8
 2738 0ab8 86210000 		.4byte	.LASF329
 2739 0abc 9003     		.sleb128 400
 2740 0abe 08       		.uleb128 0x8
 2741 0abf 04120000 		.4byte	.LASF330
 2742 0ac3 9103     		.sleb128 401
 2743 0ac5 08       		.uleb128 0x8
 2744 0ac6 B42D0000 		.4byte	.LASF331
 2745 0aca 9203     		.sleb128 402
 2746 0acc 08       		.uleb128 0x8
 2747 0acd 43190000 		.4byte	.LASF332
 2748 0ad1 9303     		.sleb128 403
 2749 0ad3 08       		.uleb128 0x8
 2750 0ad4 95200000 		.4byte	.LASF333
 2751 0ad8 9403     		.sleb128 404
 2752 0ada 08       		.uleb128 0x8
 2753 0adb AD140000 		.4byte	.LASF334
 2754 0adf 9503     		.sleb128 405
 2755 0ae1 08       		.uleb128 0x8
 2756 0ae2 42250000 		.4byte	.LASF335
 2757 0ae6 9603     		.sleb128 406
 2758 0ae8 08       		.uleb128 0x8
 2759 0ae9 85150000 		.4byte	.LASF336
 2760 0aed 9703     		.sleb128 407
 2761 0aef 08       		.uleb128 0x8
 2762 0af0 D2140000 		.4byte	.LASF337
 2763 0af4 9803     		.sleb128 408
 2764 0af6 08       		.uleb128 0x8
 2765 0af7 5E050000 		.4byte	.LASF338
 2766 0afb 9903     		.sleb128 409
 2767 0afd 08       		.uleb128 0x8
 2768 0afe 3A080000 		.4byte	.LASF339
 2769 0b02 9A03     		.sleb128 410
 2770 0b04 08       		.uleb128 0x8
 2771 0b05 63130000 		.4byte	.LASF340
 2772 0b09 9B03     		.sleb128 411
 2773 0b0b 08       		.uleb128 0x8
 2774 0b0c 9F270000 		.4byte	.LASF341
 2775 0b10 9C03     		.sleb128 412
 2776 0b12 08       		.uleb128 0x8
 2777 0b13 DE2F0000 		.4byte	.LASF342
 2778 0b17 9D03     		.sleb128 413
 2779 0b19 08       		.uleb128 0x8
 2780 0b1a 20140000 		.4byte	.LASF343
 2781 0b1e 9E03     		.sleb128 414
 2782 0b20 08       		.uleb128 0x8
 2783 0b21 0B0B0000 		.4byte	.LASF344
 2784 0b25 9F03     		.sleb128 415
 2785 0b27 08       		.uleb128 0x8
 2786 0b28 86100000 		.4byte	.LASF345
 2787 0b2c A003     		.sleb128 416
 2788 0b2e 08       		.uleb128 0x8
ARM GAS  C:\Users\Zachary\AppData\Local\Temp\ccv8jLse.s 			page 61


 2789 0b2f F21F0000 		.4byte	.LASF346
 2790 0b33 A103     		.sleb128 417
 2791 0b35 08       		.uleb128 0x8
 2792 0b36 49030000 		.4byte	.LASF347
 2793 0b3a A203     		.sleb128 418
 2794 0b3c 08       		.uleb128 0x8
 2795 0b3d B0260000 		.4byte	.LASF348
 2796 0b41 A303     		.sleb128 419
 2797 0b43 08       		.uleb128 0x8
 2798 0b44 B90B0000 		.4byte	.LASF349
 2799 0b48 A403     		.sleb128 420
 2800 0b4a 08       		.uleb128 0x8
 2801 0b4b 14090000 		.4byte	.LASF350
 2802 0b4f A503     		.sleb128 421
 2803 0b51 08       		.uleb128 0x8
 2804 0b52 F40F0000 		.4byte	.LASF351
 2805 0b56 A603     		.sleb128 422
 2806 0b58 08       		.uleb128 0x8
 2807 0b59 C92B0000 		.4byte	.LASF352
 2808 0b5d A703     		.sleb128 423
 2809 0b5f 08       		.uleb128 0x8
 2810 0b60 B7020000 		.4byte	.LASF353
 2811 0b64 A803     		.sleb128 424
 2812 0b66 08       		.uleb128 0x8
 2813 0b67 E7000000 		.4byte	.LASF354
 2814 0b6b A903     		.sleb128 425
 2815 0b6d 08       		.uleb128 0x8
 2816 0b6e 320E0000 		.4byte	.LASF355
 2817 0b72 AA03     		.sleb128 426
 2818 0b74 08       		.uleb128 0x8
 2819 0b75 820C0000 		.4byte	.LASF356
 2820 0b79 AB03     		.sleb128 427
 2821 0b7b 08       		.uleb128 0x8
 2822 0b7c 101C0000 		.4byte	.LASF357
 2823 0b80 AC03     		.sleb128 428
 2824 0b82 08       		.uleb128 0x8
 2825 0b83 892A0000 		.4byte	.LASF358
 2826 0b87 AD03     		.sleb128 429
 2827 0b89 08       		.uleb128 0x8
 2828 0b8a 061A0000 		.4byte	.LASF359
 2829 0b8e AE03     		.sleb128 430
 2830 0b90 08       		.uleb128 0x8
 2831 0b91 EA250000 		.4byte	.LASF360
 2832 0b95 AF03     		.sleb128 431
 2833 0b97 08       		.uleb128 0x8
 2834 0b98 EF0C0000 		.4byte	.LASF361
 2835 0b9c B003     		.sleb128 432
 2836 0b9e 08       		.uleb128 0x8
 2837 0b9f F72D0000 		.4byte	.LASF362
 2838 0ba3 B103     		.sleb128 433
 2839 0ba5 08       		.uleb128 0x8
 2840 0ba6 C5250000 		.4byte	.LASF363
 2841 0baa B203     		.sleb128 434
 2842 0bac 08       		.uleb128 0x8
 2843 0bad 190D0000 		.4byte	.LASF364
 2844 0bb1 B303     		.sleb128 435
 2845 0bb3 08       		.uleb128 0x8
ARM GAS  C:\Users\Zachary\AppData\Local\Temp\ccv8jLse.s 			page 62


 2846 0bb4 95170000 		.4byte	.LASF365
 2847 0bb8 B403     		.sleb128 436
 2848 0bba 08       		.uleb128 0x8
 2849 0bbb C2240000 		.4byte	.LASF366
 2850 0bbf B503     		.sleb128 437
 2851 0bc1 08       		.uleb128 0x8
 2852 0bc2 18100000 		.4byte	.LASF367
 2853 0bc6 B603     		.sleb128 438
 2854 0bc8 08       		.uleb128 0x8
 2855 0bc9 A6290000 		.4byte	.LASF368
 2856 0bcd B703     		.sleb128 439
 2857 0bcf 08       		.uleb128 0x8
 2858 0bd0 F00E0000 		.4byte	.LASF369
 2859 0bd4 B803     		.sleb128 440
 2860 0bd6 08       		.uleb128 0x8
 2861 0bd7 74080000 		.4byte	.LASF370
 2862 0bdb B903     		.sleb128 441
 2863 0bdd 08       		.uleb128 0x8
 2864 0bde 1A210000 		.4byte	.LASF371
 2865 0be2 BA03     		.sleb128 442
 2866 0be4 08       		.uleb128 0x8
 2867 0be5 93120000 		.4byte	.LASF372
 2868 0be9 BB03     		.sleb128 443
 2869 0beb 08       		.uleb128 0x8
 2870 0bec B8120000 		.4byte	.LASF373
 2871 0bf0 BC03     		.sleb128 444
 2872 0bf2 08       		.uleb128 0x8
 2873 0bf3 70000000 		.4byte	.LASF374
 2874 0bf7 BD03     		.sleb128 445
 2875 0bf9 08       		.uleb128 0x8
 2876 0bfa 121B0000 		.4byte	.LASF375
 2877 0bfe BE03     		.sleb128 446
 2878 0c00 08       		.uleb128 0x8
 2879 0c01 00000000 		.4byte	.LASF376
 2880 0c05 BF03     		.sleb128 447
 2881 0c07 08       		.uleb128 0x8
 2882 0c08 071E0000 		.4byte	.LASF377
 2883 0c0c C003     		.sleb128 448
 2884 0c0e 08       		.uleb128 0x8
 2885 0c0f FF290000 		.4byte	.LASF378
 2886 0c13 C103     		.sleb128 449
 2887 0c15 08       		.uleb128 0x8
 2888 0c16 64030000 		.4byte	.LASF379
 2889 0c1a C203     		.sleb128 450
 2890 0c1c 08       		.uleb128 0x8
 2891 0c1d 541F0000 		.4byte	.LASF380
 2892 0c21 80C003   		.sleb128 57344
 2893 0c24 00       		.byte	0
 2894 0c25 09       		.uleb128 0x9
 2895 0c26 01       		.byte	0x1
 2896 0c27 0A       		.byte	0xa
 2897 0c28 9505     		.2byte	0x595
 2898 0c2a 4D0C0000 		.4byte	0xc4d
 2899 0c2e 08       		.uleb128 0x8
 2900 0c2f F70A0000 		.4byte	.LASF381
 2901 0c33 00       		.sleb128 0
 2902 0c34 08       		.uleb128 0x8
ARM GAS  C:\Users\Zachary\AppData\Local\Temp\ccv8jLse.s 			page 63


 2903 0c35 42160000 		.4byte	.LASF382
 2904 0c39 01       		.sleb128 1
 2905 0c3a 08       		.uleb128 0x8
 2906 0c3b D72D0000 		.4byte	.LASF383
 2907 0c3f 02       		.sleb128 2
 2908 0c40 08       		.uleb128 0x8
 2909 0c41 D6060000 		.4byte	.LASF384
 2910 0c45 03       		.sleb128 3
 2911 0c46 08       		.uleb128 0x8
 2912 0c47 7F260000 		.4byte	.LASF385
 2913 0c4b 04       		.sleb128 4
 2914 0c4c 00       		.byte	0
 2915 0c4d 0A       		.uleb128 0xa
 2916 0c4e 95280000 		.4byte	.LASF386
 2917 0c52 0A       		.byte	0xa
 2918 0c53 A305     		.2byte	0x5a3
 2919 0c55 250C0000 		.4byte	0xc25
 2920 0c59 17       		.uleb128 0x17
 2921 0c5a 60240000 		.4byte	.LASF421
 2922 0c5e 01       		.byte	0x1
 2923 0c5f 62       		.byte	0x62
 2924 0c60 00000000 		.4byte	.LFB2
 2925 0c64 14000000 		.4byte	.LFE2-.LFB2
 2926 0c68 01       		.uleb128 0x1
 2927 0c69 9C       		.byte	0x9c
 2928 0c6a 18       		.uleb128 0x18
 2929 0c6b 821E0000 		.4byte	.LASF410
 2930 0c6f 01       		.byte	0x1
 2931 0c70 8E       		.byte	0x8e
 2932 0c71 00000000 		.4byte	.LFB3
 2933 0c75 18000000 		.4byte	.LFE3-.LFB3
 2934 0c79 01       		.uleb128 0x1
 2935 0c7a 9C       		.byte	0x9c
 2936 0c7b 8E0C0000 		.4byte	0xc8e
 2937 0c7f 19       		.uleb128 0x19
 2938 0c80 07090000 		.4byte	.LASF387
 2939 0c84 01       		.byte	0x1
 2940 0c85 8E       		.byte	0x8e
 2941 0c86 4A050000 		.4byte	0x54a
 2942 0c8a 02       		.uleb128 0x2
 2943 0c8b 91       		.byte	0x91
 2944 0c8c 74       		.sleb128 -12
 2945 0c8d 00       		.byte	0
 2946 0c8e 1A       		.uleb128 0x1a
 2947 0c8f 24020000 		.4byte	.LASF392
 2948 0c93 01       		.byte	0x1
 2949 0c94 A9       		.byte	0xa9
 2950 0c95 EB020000 		.4byte	0x2eb
 2951 0c99 00000000 		.4byte	.LFB4
 2952 0c9d 8C000000 		.4byte	.LFE4-.LFB4
 2953 0ca1 01       		.uleb128 0x1
 2954 0ca2 9C       		.byte	0x9c
 2955 0ca3 EE0C0000 		.4byte	0xcee
 2956 0ca7 19       		.uleb128 0x19
 2957 0ca8 06010000 		.4byte	.LASF183
 2958 0cac 01       		.byte	0x1
 2959 0cad A9       		.byte	0xa9
ARM GAS  C:\Users\Zachary\AppData\Local\Temp\ccv8jLse.s 			page 64


 2960 0cae DE050000 		.4byte	0x5de
 2961 0cb2 02       		.uleb128 0x2
 2962 0cb3 91       		.byte	0x91
 2963 0cb4 67       		.sleb128 -25
 2964 0cb5 19       		.uleb128 0x19
 2965 0cb6 E01C0000 		.4byte	.LASF388
 2966 0cba 01       		.byte	0x1
 2967 0cbb AA       		.byte	0xaa
 2968 0cbc 6B000000 		.4byte	0x6b
 2969 0cc0 02       		.uleb128 0x2
 2970 0cc1 91       		.byte	0x91
 2971 0cc2 66       		.sleb128 -26
 2972 0cc3 19       		.uleb128 0x19
 2973 0cc4 83110000 		.4byte	.LASF389
 2974 0cc8 01       		.byte	0x1
 2975 0cc9 AA       		.byte	0xaa
 2976 0cca F7020000 		.4byte	0x2f7
 2977 0cce 02       		.uleb128 0x2
 2978 0ccf 91       		.byte	0x91
 2979 0cd0 60       		.sleb128 -32
 2980 0cd1 1B       		.uleb128 0x1b
 2981 0cd2 AF250000 		.4byte	.LASF390
 2982 0cd6 01       		.byte	0x1
 2983 0cd7 AC       		.byte	0xac
 2984 0cd8 EB020000 		.4byte	0x2eb
 2985 0cdc 02       		.uleb128 0x2
 2986 0cdd 91       		.byte	0x91
 2987 0cde 76       		.sleb128 -10
 2988 0cdf 1B       		.uleb128 0x1b
 2989 0ce0 9A140000 		.4byte	.LASF391
 2990 0ce4 01       		.byte	0x1
 2991 0ce5 AD       		.byte	0xad
 2992 0ce6 61040000 		.4byte	0x461
 2993 0cea 02       		.uleb128 0x2
 2994 0ceb 91       		.byte	0x91
 2995 0cec 68       		.sleb128 -24
 2996 0ced 00       		.byte	0
 2997 0cee 1A       		.uleb128 0x1a
 2998 0cef CD260000 		.4byte	.LASF393
 2999 0cf3 01       		.byte	0x1
 3000 0cf4 D7       		.byte	0xd7
 3001 0cf5 EB020000 		.4byte	0x2eb
 3002 0cf9 00000000 		.4byte	.LFB5
 3003 0cfd 88000000 		.4byte	.LFE5-.LFB5
 3004 0d01 01       		.uleb128 0x1
 3005 0d02 9C       		.byte	0x9c
 3006 0d03 4E0D0000 		.4byte	0xd4e
 3007 0d07 19       		.uleb128 0x19
 3008 0d08 06010000 		.4byte	.LASF183
 3009 0d0c 01       		.byte	0x1
 3010 0d0d D7       		.byte	0xd7
 3011 0d0e DE050000 		.4byte	0x5de
 3012 0d12 02       		.uleb128 0x2
 3013 0d13 91       		.byte	0x91
 3014 0d14 67       		.sleb128 -25
 3015 0d15 19       		.uleb128 0x19
 3016 0d16 E01C0000 		.4byte	.LASF388
ARM GAS  C:\Users\Zachary\AppData\Local\Temp\ccv8jLse.s 			page 65


 3017 0d1a 01       		.byte	0x1
 3018 0d1b D8       		.byte	0xd8
 3019 0d1c 6B000000 		.4byte	0x6b
 3020 0d20 02       		.uleb128 0x2
 3021 0d21 91       		.byte	0x91
 3022 0d22 66       		.sleb128 -26
 3023 0d23 19       		.uleb128 0x19
 3024 0d24 83110000 		.4byte	.LASF389
 3025 0d28 01       		.byte	0x1
 3026 0d29 D8       		.byte	0xd8
 3027 0d2a F7020000 		.4byte	0x2f7
 3028 0d2e 02       		.uleb128 0x2
 3029 0d2f 91       		.byte	0x91
 3030 0d30 60       		.sleb128 -32
 3031 0d31 1B       		.uleb128 0x1b
 3032 0d32 AF250000 		.4byte	.LASF390
 3033 0d36 01       		.byte	0x1
 3034 0d37 DA       		.byte	0xda
 3035 0d38 EB020000 		.4byte	0x2eb
 3036 0d3c 02       		.uleb128 0x2
 3037 0d3d 91       		.byte	0x91
 3038 0d3e 76       		.sleb128 -10
 3039 0d3f 1B       		.uleb128 0x1b
 3040 0d40 9A140000 		.4byte	.LASF391
 3041 0d44 01       		.byte	0x1
 3042 0d45 DB       		.byte	0xdb
 3043 0d46 61040000 		.4byte	0x461
 3044 0d4a 02       		.uleb128 0x2
 3045 0d4b 91       		.byte	0x91
 3046 0d4c 68       		.sleb128 -24
 3047 0d4d 00       		.byte	0
 3048 0d4e 1C       		.uleb128 0x1c
 3049 0d4f AA100000 		.4byte	.LASF394
 3050 0d53 01       		.byte	0x1
 3051 0d54 0501     		.2byte	0x105
 3052 0d56 EB020000 		.4byte	0x2eb
 3053 0d5a 00000000 		.4byte	.LFB6
 3054 0d5e AC000000 		.4byte	.LFE6-.LFB6
 3055 0d62 01       		.uleb128 0x1
 3056 0d63 9C       		.byte	0x9c
 3057 0d64 C30D0000 		.4byte	0xdc3
 3058 0d68 1D       		.uleb128 0x1d
 3059 0d69 06010000 		.4byte	.LASF183
 3060 0d6d 01       		.byte	0x1
 3061 0d6e 0501     		.2byte	0x105
 3062 0d70 DE050000 		.4byte	0x5de
 3063 0d74 02       		.uleb128 0x2
 3064 0d75 91       		.byte	0x91
 3065 0d76 67       		.sleb128 -25
 3066 0d77 1D       		.uleb128 0x1d
 3067 0d78 FC1A0000 		.4byte	.LASF395
 3068 0d7c 01       		.byte	0x1
 3069 0d7d 0601     		.2byte	0x106
 3070 0d7f 04060000 		.4byte	0x604
 3071 0d83 02       		.uleb128 0x2
 3072 0d84 91       		.byte	0x91
 3073 0d85 66       		.sleb128 -26
ARM GAS  C:\Users\Zachary\AppData\Local\Temp\ccv8jLse.s 			page 66


 3074 0d86 1D       		.uleb128 0x1d
 3075 0d87 E01C0000 		.4byte	.LASF388
 3076 0d8b 01       		.byte	0x1
 3077 0d8c 0601     		.2byte	0x106
 3078 0d8e 6B000000 		.4byte	0x6b
 3079 0d92 02       		.uleb128 0x2
 3080 0d93 91       		.byte	0x91
 3081 0d94 65       		.sleb128 -27
 3082 0d95 1D       		.uleb128 0x1d
 3083 0d96 83110000 		.4byte	.LASF389
 3084 0d9a 01       		.byte	0x1
 3085 0d9b 0601     		.2byte	0x106
 3086 0d9d F7020000 		.4byte	0x2f7
 3087 0da1 02       		.uleb128 0x2
 3088 0da2 91       		.byte	0x91
 3089 0da3 60       		.sleb128 -32
 3090 0da4 1E       		.uleb128 0x1e
 3091 0da5 AF250000 		.4byte	.LASF390
 3092 0da9 01       		.byte	0x1
 3093 0daa 0801     		.2byte	0x108
 3094 0dac EB020000 		.4byte	0x2eb
 3095 0db0 02       		.uleb128 0x2
 3096 0db1 91       		.byte	0x91
 3097 0db2 76       		.sleb128 -10
 3098 0db3 1E       		.uleb128 0x1e
 3099 0db4 9A140000 		.4byte	.LASF391
 3100 0db8 01       		.byte	0x1
 3101 0db9 0901     		.2byte	0x109
 3102 0dbb 61040000 		.4byte	0x461
 3103 0dbf 02       		.uleb128 0x2
 3104 0dc0 91       		.byte	0x91
 3105 0dc1 68       		.sleb128 -24
 3106 0dc2 00       		.byte	0
 3107 0dc3 1C       		.uleb128 0x1c
 3108 0dc4 AC1A0000 		.4byte	.LASF396
 3109 0dc8 01       		.byte	0x1
 3110 0dc9 3901     		.2byte	0x139
 3111 0dcb EB020000 		.4byte	0x2eb
 3112 0dcf 00000000 		.4byte	.LFB7
 3113 0dd3 AC000000 		.4byte	.LFE7-.LFB7
 3114 0dd7 01       		.uleb128 0x1
 3115 0dd8 9C       		.byte	0x9c
 3116 0dd9 380E0000 		.4byte	0xe38
 3117 0ddd 1D       		.uleb128 0x1d
 3118 0dde 06010000 		.4byte	.LASF183
 3119 0de2 01       		.byte	0x1
 3120 0de3 3901     		.2byte	0x139
 3121 0de5 DE050000 		.4byte	0x5de
 3122 0de9 02       		.uleb128 0x2
 3123 0dea 91       		.byte	0x91
 3124 0deb 67       		.sleb128 -25
 3125 0dec 1D       		.uleb128 0x1d
 3126 0ded FC1A0000 		.4byte	.LASF395
 3127 0df1 01       		.byte	0x1
 3128 0df2 3A01     		.2byte	0x13a
 3129 0df4 04060000 		.4byte	0x604
 3130 0df8 02       		.uleb128 0x2
ARM GAS  C:\Users\Zachary\AppData\Local\Temp\ccv8jLse.s 			page 67


 3131 0df9 91       		.byte	0x91
 3132 0dfa 66       		.sleb128 -26
 3133 0dfb 1D       		.uleb128 0x1d
 3134 0dfc E01C0000 		.4byte	.LASF388
 3135 0e00 01       		.byte	0x1
 3136 0e01 3A01     		.2byte	0x13a
 3137 0e03 6B000000 		.4byte	0x6b
 3138 0e07 02       		.uleb128 0x2
 3139 0e08 91       		.byte	0x91
 3140 0e09 65       		.sleb128 -27
 3141 0e0a 1D       		.uleb128 0x1d
 3142 0e0b 83110000 		.4byte	.LASF389
 3143 0e0f 01       		.byte	0x1
 3144 0e10 3A01     		.2byte	0x13a
 3145 0e12 F7020000 		.4byte	0x2f7
 3146 0e16 02       		.uleb128 0x2
 3147 0e17 91       		.byte	0x91
 3148 0e18 60       		.sleb128 -32
 3149 0e19 1E       		.uleb128 0x1e
 3150 0e1a AF250000 		.4byte	.LASF390
 3151 0e1e 01       		.byte	0x1
 3152 0e1f 3C01     		.2byte	0x13c
 3153 0e21 EB020000 		.4byte	0x2eb
 3154 0e25 02       		.uleb128 0x2
 3155 0e26 91       		.byte	0x91
 3156 0e27 76       		.sleb128 -10
 3157 0e28 1E       		.uleb128 0x1e
 3158 0e29 9A140000 		.4byte	.LASF391
 3159 0e2d 01       		.byte	0x1
 3160 0e2e 3D01     		.2byte	0x13d
 3161 0e30 61040000 		.4byte	0x461
 3162 0e34 02       		.uleb128 0x2
 3163 0e35 91       		.byte	0x91
 3164 0e36 68       		.sleb128 -24
 3165 0e37 00       		.byte	0
 3166 0e38 1C       		.uleb128 0x1c
 3167 0e39 901A0000 		.4byte	.LASF397
 3168 0e3d 01       		.byte	0x1
 3169 0e3e 6801     		.2byte	0x168
 3170 0e40 B8030000 		.4byte	0x3b8
 3171 0e44 00000000 		.4byte	.LFB8
 3172 0e48 EC020000 		.4byte	.LFE8-.LFB8
 3173 0e4c 01       		.uleb128 0x1
 3174 0e4d 9C       		.byte	0x9c
 3175 0e4e EE0E0000 		.4byte	0xeee
 3176 0e52 1D       		.uleb128 0x1d
 3177 0e53 B5010000 		.4byte	.LASF398
 3178 0e57 01       		.byte	0x1
 3179 0e58 6801     		.2byte	0x168
 3180 0e5a EE0E0000 		.4byte	0xeee
 3181 0e5e 02       		.uleb128 0x2
 3182 0e5f 91       		.byte	0x91
 3183 0e60 54       		.sleb128 -44
 3184 0e61 1E       		.uleb128 0x1e
 3185 0e62 0D210000 		.4byte	.LASF399
 3186 0e66 01       		.byte	0x1
 3187 0e67 6A01     		.2byte	0x16a
ARM GAS  C:\Users\Zachary\AppData\Local\Temp\ccv8jLse.s 			page 68


 3188 0e69 DE050000 		.4byte	0x5de
 3189 0e6d 02       		.uleb128 0x2
 3190 0e6e 91       		.byte	0x91
 3191 0e6f 6F       		.sleb128 -17
 3192 0e70 1E       		.uleb128 0x1e
 3193 0e71 C30A0000 		.4byte	.LASF400
 3194 0e75 01       		.byte	0x1
 3195 0e76 6B01     		.2byte	0x16b
 3196 0e78 B4060000 		.4byte	0x6b4
 3197 0e7c 02       		.uleb128 0x2
 3198 0e7d 91       		.byte	0x91
 3199 0e7e 5C       		.sleb128 -36
 3200 0e7f 1E       		.uleb128 0x1e
 3201 0e80 CD2C0000 		.4byte	.LASF401
 3202 0e84 01       		.byte	0x1
 3203 0e85 6C01     		.2byte	0x16c
 3204 0e87 B8030000 		.4byte	0x3b8
 3205 0e8b 02       		.uleb128 0x2
 3206 0e8c 91       		.byte	0x91
 3207 0e8d 6E       		.sleb128 -18
 3208 0e8e 1E       		.uleb128 0x1e
 3209 0e8f E51F0000 		.4byte	.LASF402
 3210 0e93 01       		.byte	0x1
 3211 0e94 6D01     		.2byte	0x16d
 3212 0e96 6B000000 		.4byte	0x6b
 3213 0e9a 02       		.uleb128 0x2
 3214 0e9b 91       		.byte	0x91
 3215 0e9c 6D       		.sleb128 -19
 3216 0e9d 1F       		.uleb128 0x1f
 3217 0e9e AE000000 		.4byte	.LBB2
 3218 0ea2 A0000000 		.4byte	.LBE2-.LBB2
 3219 0ea6 1E       		.uleb128 0x1e
 3220 0ea7 E70F0000 		.4byte	.LASF403
 3221 0eab 01       		.byte	0x1
 3222 0eac 8101     		.2byte	0x181
 3223 0eae F40E0000 		.4byte	0xef4
 3224 0eb2 02       		.uleb128 0x2
 3225 0eb3 91       		.byte	0x91
 3226 0eb4 58       		.sleb128 -40
 3227 0eb5 1E       		.uleb128 0x1e
 3228 0eb6 D2160000 		.4byte	.LASF404
 3229 0eba 01       		.byte	0x1
 3230 0ebb 8201     		.2byte	0x182
 3231 0ebd 76000000 		.4byte	0x76
 3232 0ec1 02       		.uleb128 0x2
 3233 0ec2 91       		.byte	0x91
 3234 0ec3 6A       		.sleb128 -22
 3235 0ec4 1F       		.uleb128 0x1f
 3236 0ec5 E4000000 		.4byte	.LBB3
 3237 0ec9 6A000000 		.4byte	.LBE3-.LBB3
 3238 0ecd 1E       		.uleb128 0x1e
 3239 0ece 9B180000 		.4byte	.LASF405
 3240 0ed2 01       		.byte	0x1
 3241 0ed3 8C01     		.2byte	0x18c
 3242 0ed5 76000000 		.4byte	0x76
 3243 0ed9 02       		.uleb128 0x2
 3244 0eda 91       		.byte	0x91
ARM GAS  C:\Users\Zachary\AppData\Local\Temp\ccv8jLse.s 			page 69


 3245 0edb 68       		.sleb128 -24
 3246 0edc 1E       		.uleb128 0x1e
 3247 0edd 65000000 		.4byte	.LASF406
 3248 0ee1 01       		.byte	0x1
 3249 0ee2 8D01     		.2byte	0x18d
 3250 0ee4 76000000 		.4byte	0x76
 3251 0ee8 02       		.uleb128 0x2
 3252 0ee9 91       		.byte	0x91
 3253 0eea 66       		.sleb128 -26
 3254 0eeb 00       		.byte	0
 3255 0eec 00       		.byte	0
 3256 0eed 00       		.byte	0
 3257 0eee 0B       		.uleb128 0xb
 3258 0eef 04       		.byte	0x4
 3259 0ef0 99040000 		.4byte	0x499
 3260 0ef4 15       		.uleb128 0x15
 3261 0ef5 6B000000 		.4byte	0x6b
 3262 0ef9 040F0000 		.4byte	0xf04
 3263 0efd 16       		.uleb128 0x16
 3264 0efe A6000000 		.4byte	0xa6
 3265 0f02 03       		.byte	0x3
 3266 0f03 00       		.byte	0
 3267 0f04 1C       		.uleb128 0x1c
 3268 0f05 75020000 		.4byte	.LASF407
 3269 0f09 01       		.byte	0x1
 3270 0f0a EC01     		.2byte	0x1ec
 3271 0f0c EB020000 		.4byte	0x2eb
 3272 0f10 00000000 		.4byte	.LFB9
 3273 0f14 D8000000 		.4byte	.LFE9-.LFB9
 3274 0f18 01       		.uleb128 0x1
 3275 0f19 9C       		.byte	0x9c
 3276 0f1a 830F0000 		.4byte	0xf83
 3277 0f1e 1D       		.uleb128 0x1d
 3278 0f1f 55240000 		.4byte	.LASF141
 3279 0f23 01       		.byte	0x1
 3280 0f24 EC01     		.2byte	0x1ec
 3281 0f26 F4030000 		.4byte	0x3f4
 3282 0f2a 02       		.uleb128 0x2
 3283 0f2b 91       		.byte	0x91
 3284 0f2c 5C       		.sleb128 -36
 3285 0f2d 1D       		.uleb128 0x1d
 3286 0f2e 06010000 		.4byte	.LASF183
 3287 0f32 01       		.byte	0x1
 3288 0f33 ED01     		.2byte	0x1ed
 3289 0f35 DE050000 		.4byte	0x5de
 3290 0f39 02       		.uleb128 0x2
 3291 0f3a 91       		.byte	0x91
 3292 0f3b 5B       		.sleb128 -37
 3293 0f3c 1D       		.uleb128 0x1d
 3294 0f3d E01C0000 		.4byte	.LASF388
 3295 0f41 01       		.byte	0x1
 3296 0f42 ED01     		.2byte	0x1ed
 3297 0f44 6B000000 		.4byte	0x6b
 3298 0f48 02       		.uleb128 0x2
 3299 0f49 91       		.byte	0x91
 3300 0f4a 5A       		.sleb128 -38
 3301 0f4b 1D       		.uleb128 0x1d
ARM GAS  C:\Users\Zachary\AppData\Local\Temp\ccv8jLse.s 			page 70


 3302 0f4c 83110000 		.4byte	.LASF389
 3303 0f50 01       		.byte	0x1
 3304 0f51 ED01     		.2byte	0x1ed
 3305 0f53 F7020000 		.4byte	0x2f7
 3306 0f57 02       		.uleb128 0x2
 3307 0f58 91       		.byte	0x91
 3308 0f59 54       		.sleb128 -44
 3309 0f5a 1E       		.uleb128 0x1e
 3310 0f5b AF250000 		.4byte	.LASF390
 3311 0f5f 01       		.byte	0x1
 3312 0f60 F001     		.2byte	0x1f0
 3313 0f62 EB020000 		.4byte	0x2eb
 3314 0f66 02       		.uleb128 0x2
 3315 0f67 91       		.byte	0x91
 3316 0f68 6E       		.sleb128 -18
 3317 0f69 1F       		.uleb128 0x1f
 3318 0f6a 74000000 		.4byte	.LBB4
 3319 0f6e 48000000 		.4byte	.LBE4-.LBB4
 3320 0f72 1E       		.uleb128 0x1e
 3321 0f73 682C0000 		.4byte	.LASF408
 3322 0f77 01       		.byte	0x1
 3323 0f78 FD01     		.2byte	0x1fd
 3324 0f7a 6D040000 		.4byte	0x46d
 3325 0f7e 02       		.uleb128 0x2
 3326 0f7f 91       		.byte	0x91
 3327 0f80 60       		.sleb128 -32
 3328 0f81 00       		.byte	0
 3329 0f82 00       		.byte	0
 3330 0f83 1C       		.uleb128 0x1c
 3331 0f84 32260000 		.4byte	.LASF409
 3332 0f88 01       		.byte	0x1
 3333 0f89 2502     		.2byte	0x225
 3334 0f8b EB020000 		.4byte	0x2eb
 3335 0f8f 00000000 		.4byte	.LFB10
 3336 0f93 F0000000 		.4byte	.LFE10-.LFB10
 3337 0f97 01       		.uleb128 0x1
 3338 0f98 9C       		.byte	0x9c
 3339 0f99 02100000 		.4byte	0x1002
 3340 0f9d 1D       		.uleb128 0x1d
 3341 0f9e 55240000 		.4byte	.LASF141
 3342 0fa2 01       		.byte	0x1
 3343 0fa3 2502     		.2byte	0x225
 3344 0fa5 F4030000 		.4byte	0x3f4
 3345 0fa9 02       		.uleb128 0x2
 3346 0faa 91       		.byte	0x91
 3347 0fab 5C       		.sleb128 -36
 3348 0fac 1D       		.uleb128 0x1d
 3349 0fad 06010000 		.4byte	.LASF183
 3350 0fb1 01       		.byte	0x1
 3351 0fb2 2602     		.2byte	0x226
 3352 0fb4 DE050000 		.4byte	0x5de
 3353 0fb8 02       		.uleb128 0x2
 3354 0fb9 91       		.byte	0x91
 3355 0fba 5B       		.sleb128 -37
 3356 0fbb 1D       		.uleb128 0x1d
 3357 0fbc E01C0000 		.4byte	.LASF388
 3358 0fc0 01       		.byte	0x1
ARM GAS  C:\Users\Zachary\AppData\Local\Temp\ccv8jLse.s 			page 71


 3359 0fc1 2602     		.2byte	0x226
 3360 0fc3 6B000000 		.4byte	0x6b
 3361 0fc7 02       		.uleb128 0x2
 3362 0fc8 91       		.byte	0x91
 3363 0fc9 5A       		.sleb128 -38
 3364 0fca 1D       		.uleb128 0x1d
 3365 0fcb 83110000 		.4byte	.LASF389
 3366 0fcf 01       		.byte	0x1
 3367 0fd0 2602     		.2byte	0x226
 3368 0fd2 F7020000 		.4byte	0x2f7
 3369 0fd6 02       		.uleb128 0x2
 3370 0fd7 91       		.byte	0x91
 3371 0fd8 54       		.sleb128 -44
 3372 0fd9 1E       		.uleb128 0x1e
 3373 0fda AF250000 		.4byte	.LASF390
 3374 0fde 01       		.byte	0x1
 3375 0fdf 2802     		.2byte	0x228
 3376 0fe1 EB020000 		.4byte	0x2eb
 3377 0fe5 02       		.uleb128 0x2
 3378 0fe6 91       		.byte	0x91
 3379 0fe7 6E       		.sleb128 -18
 3380 0fe8 1F       		.uleb128 0x1f
 3381 0fe9 74000000 		.4byte	.LBB5
 3382 0fed 5C000000 		.4byte	.LBE5-.LBB5
 3383 0ff1 1E       		.uleb128 0x1e
 3384 0ff2 682C0000 		.4byte	.LASF408
 3385 0ff6 01       		.byte	0x1
 3386 0ff7 3502     		.2byte	0x235
 3387 0ff9 6D040000 		.4byte	0x46d
 3388 0ffd 02       		.uleb128 0x2
 3389 0ffe 91       		.byte	0x91
 3390 0fff 60       		.sleb128 -32
 3391 1000 00       		.byte	0
 3392 1001 00       		.byte	0
 3393 1002 20       		.uleb128 0x20
 3394 1003 24130000 		.4byte	.LASF411
 3395 1007 01       		.byte	0x1
 3396 1008 5602     		.2byte	0x256
 3397 100a 00000000 		.4byte	.LFB11
 3398 100e D8000000 		.4byte	.LFE11-.LFB11
 3399 1012 01       		.uleb128 0x1
 3400 1013 9C       		.byte	0x9c
 3401 1014 55100000 		.4byte	0x1055
 3402 1018 1D       		.uleb128 0x1d
 3403 1019 B5010000 		.4byte	.LASF398
 3404 101d 01       		.byte	0x1
 3405 101e 5602     		.2byte	0x256
 3406 1020 55100000 		.4byte	0x1055
 3407 1024 02       		.uleb128 0x2
 3408 1025 91       		.byte	0x91
 3409 1026 64       		.sleb128 -28
 3410 1027 1E       		.uleb128 0x1e
 3411 1028 0D210000 		.4byte	.LASF399
 3412 102c 01       		.byte	0x1
 3413 102d 5802     		.2byte	0x258
 3414 102f DE050000 		.4byte	0x5de
 3415 1033 02       		.uleb128 0x2
ARM GAS  C:\Users\Zachary\AppData\Local\Temp\ccv8jLse.s 			page 72


 3416 1034 91       		.byte	0x91
 3417 1035 77       		.sleb128 -9
 3418 1036 1E       		.uleb128 0x1e
 3419 1037 C30A0000 		.4byte	.LASF400
 3420 103b 01       		.byte	0x1
 3421 103c 5902     		.2byte	0x259
 3422 103e B4060000 		.4byte	0x6b4
 3423 1042 02       		.uleb128 0x2
 3424 1043 91       		.byte	0x91
 3425 1044 6C       		.sleb128 -20
 3426 1045 1E       		.uleb128 0x1e
 3427 1046 E51F0000 		.4byte	.LASF402
 3428 104a 01       		.byte	0x1
 3429 104b 5A02     		.2byte	0x25a
 3430 104d 6B000000 		.4byte	0x6b
 3431 1051 02       		.uleb128 0x2
 3432 1052 91       		.byte	0x91
 3433 1053 76       		.sleb128 -10
 3434 1054 00       		.byte	0
 3435 1055 0B       		.uleb128 0xb
 3436 1056 04       		.byte	0x4
 3437 1057 5B100000 		.4byte	0x105b
 3438 105b 21       		.uleb128 0x21
 3439 105c F4030000 		.4byte	0x3f4
 3440 1060 1B       		.uleb128 0x1b
 3441 1061 10010000 		.4byte	.LASF412
 3442 1065 01       		.byte	0x1
 3443 1066 12       		.byte	0x12
 3444 1067 4A050000 		.4byte	0x54a
 3445 106b 05       		.uleb128 0x5
 3446 106c 03       		.byte	0x3
 3447 106d 00000000 		.4byte	CyBle_HtsApplCallback
 3448 1071 1B       		.uleb128 0x1b
 3449 1072 41240000 		.4byte	.LASF413
 3450 1076 01       		.byte	0x1
 3451 1077 48       		.byte	0x48
 3452 1078 C4030000 		.4byte	0x3c4
 3453 107c 05       		.uleb128 0x5
 3454 107d 03       		.byte	0x3
 3455 107e 04000000 		.4byte	cyBle_htssReqHandle
 3456 1082 22       		.uleb128 0x22
 3457 1083 B12A0000 		.4byte	.LASF414
 3458 1087 07       		.byte	0x7
 3459 1088 6E01     		.2byte	0x16e
 3460 108a A1000000 		.4byte	0xa1
 3461 108e 15       		.uleb128 0x15
 3462 108f 3F050000 		.4byte	0x53f
 3463 1093 9E100000 		.4byte	0x109e
 3464 1097 16       		.uleb128 0x16
 3465 1098 A6000000 		.4byte	0xa6
 3466 109c 1F       		.byte	0x1f
 3467 109d 00       		.byte	0
 3468 109e 23       		.uleb128 0x23
 3469 109f D5190000 		.4byte	.LASF415
 3470 10a3 0B       		.byte	0xb
 3471 10a4 B6       		.byte	0xb6
 3472 10a5 A9100000 		.4byte	0x10a9
ARM GAS  C:\Users\Zachary\AppData\Local\Temp\ccv8jLse.s 			page 73


 3473 10a9 21       		.uleb128 0x21
 3474 10aa 8E100000 		.4byte	0x108e
 3475 10ae 24       		.uleb128 0x24
 3476 10af 93240000 		.4byte	.LASF416
 3477 10b3 01       		.byte	0x1
 3478 10b4 16       		.byte	0x16
 3479 10b5 BF100000 		.4byte	0x10bf
 3480 10b9 05       		.uleb128 0x5
 3481 10ba 03       		.byte	0x3
 3482 10bb 00000000 		.4byte	cyBle_htss
 3483 10bf 21       		.uleb128 0x21
 3484 10c0 7C060000 		.4byte	0x67c
 3485 10c4 22       		.uleb128 0x22
 3486 10c5 B9250000 		.4byte	.LASF417
 3487 10c9 0A       		.byte	0xa
 3488 10ca 2207     		.2byte	0x722
 3489 10cc 4D0C0000 		.4byte	0xc4d
 3490 10d0 00       		.byte	0
 3491              		.section	.debug_abbrev,"",%progbits
 3492              	.Ldebug_abbrev0:
 3493 0000 01       		.uleb128 0x1
 3494 0001 11       		.uleb128 0x11
 3495 0002 01       		.byte	0x1
 3496 0003 25       		.uleb128 0x25
 3497 0004 0E       		.uleb128 0xe
 3498 0005 13       		.uleb128 0x13
 3499 0006 0B       		.uleb128 0xb
 3500 0007 03       		.uleb128 0x3
 3501 0008 0E       		.uleb128 0xe
 3502 0009 1B       		.uleb128 0x1b
 3503 000a 0E       		.uleb128 0xe
 3504 000b 55       		.uleb128 0x55
 3505 000c 17       		.uleb128 0x17
 3506 000d 11       		.uleb128 0x11
 3507 000e 01       		.uleb128 0x1
 3508 000f 10       		.uleb128 0x10
 3509 0010 17       		.uleb128 0x17
 3510 0011 00       		.byte	0
 3511 0012 00       		.byte	0
 3512 0013 02       		.uleb128 0x2
 3513 0014 24       		.uleb128 0x24
 3514 0015 00       		.byte	0
 3515 0016 0B       		.uleb128 0xb
 3516 0017 0B       		.uleb128 0xb
 3517 0018 3E       		.uleb128 0x3e
 3518 0019 0B       		.uleb128 0xb
 3519 001a 03       		.uleb128 0x3
 3520 001b 0E       		.uleb128 0xe
 3521 001c 00       		.byte	0
 3522 001d 00       		.byte	0
 3523 001e 03       		.uleb128 0x3
 3524 001f 24       		.uleb128 0x24
 3525 0020 00       		.byte	0
 3526 0021 0B       		.uleb128 0xb
 3527 0022 0B       		.uleb128 0xb
 3528 0023 3E       		.uleb128 0x3e
 3529 0024 0B       		.uleb128 0xb
ARM GAS  C:\Users\Zachary\AppData\Local\Temp\ccv8jLse.s 			page 74


 3530 0025 03       		.uleb128 0x3
 3531 0026 08       		.uleb128 0x8
 3532 0027 00       		.byte	0
 3533 0028 00       		.byte	0
 3534 0029 04       		.uleb128 0x4
 3535 002a 16       		.uleb128 0x16
 3536 002b 00       		.byte	0
 3537 002c 03       		.uleb128 0x3
 3538 002d 0E       		.uleb128 0xe
 3539 002e 3A       		.uleb128 0x3a
 3540 002f 0B       		.uleb128 0xb
 3541 0030 3B       		.uleb128 0x3b
 3542 0031 0B       		.uleb128 0xb
 3543 0032 49       		.uleb128 0x49
 3544 0033 13       		.uleb128 0x13
 3545 0034 00       		.byte	0
 3546 0035 00       		.byte	0
 3547 0036 05       		.uleb128 0x5
 3548 0037 35       		.uleb128 0x35
 3549 0038 00       		.byte	0
 3550 0039 49       		.uleb128 0x49
 3551 003a 13       		.uleb128 0x13
 3552 003b 00       		.byte	0
 3553 003c 00       		.byte	0
 3554 003d 06       		.uleb128 0x6
 3555 003e 0F       		.uleb128 0xf
 3556 003f 00       		.byte	0
 3557 0040 0B       		.uleb128 0xb
 3558 0041 0B       		.uleb128 0xb
 3559 0042 00       		.byte	0
 3560 0043 00       		.byte	0
 3561 0044 07       		.uleb128 0x7
 3562 0045 04       		.uleb128 0x4
 3563 0046 01       		.byte	0x1
 3564 0047 0B       		.uleb128 0xb
 3565 0048 0B       		.uleb128 0xb
 3566 0049 3A       		.uleb128 0x3a
 3567 004a 0B       		.uleb128 0xb
 3568 004b 3B       		.uleb128 0x3b
 3569 004c 0B       		.uleb128 0xb
 3570 004d 01       		.uleb128 0x1
 3571 004e 13       		.uleb128 0x13
 3572 004f 00       		.byte	0
 3573 0050 00       		.byte	0
 3574 0051 08       		.uleb128 0x8
 3575 0052 28       		.uleb128 0x28
 3576 0053 00       		.byte	0
 3577 0054 03       		.uleb128 0x3
 3578 0055 0E       		.uleb128 0xe
 3579 0056 1C       		.uleb128 0x1c
 3580 0057 0D       		.uleb128 0xd
 3581 0058 00       		.byte	0
 3582 0059 00       		.byte	0
 3583 005a 09       		.uleb128 0x9
 3584 005b 04       		.uleb128 0x4
 3585 005c 01       		.byte	0x1
 3586 005d 0B       		.uleb128 0xb
ARM GAS  C:\Users\Zachary\AppData\Local\Temp\ccv8jLse.s 			page 75


 3587 005e 0B       		.uleb128 0xb
 3588 005f 3A       		.uleb128 0x3a
 3589 0060 0B       		.uleb128 0xb
 3590 0061 3B       		.uleb128 0x3b
 3591 0062 05       		.uleb128 0x5
 3592 0063 01       		.uleb128 0x1
 3593 0064 13       		.uleb128 0x13
 3594 0065 00       		.byte	0
 3595 0066 00       		.byte	0
 3596 0067 0A       		.uleb128 0xa
 3597 0068 16       		.uleb128 0x16
 3598 0069 00       		.byte	0
 3599 006a 03       		.uleb128 0x3
 3600 006b 0E       		.uleb128 0xe
 3601 006c 3A       		.uleb128 0x3a
 3602 006d 0B       		.uleb128 0xb
 3603 006e 3B       		.uleb128 0x3b
 3604 006f 05       		.uleb128 0x5
 3605 0070 49       		.uleb128 0x49
 3606 0071 13       		.uleb128 0x13
 3607 0072 00       		.byte	0
 3608 0073 00       		.byte	0
 3609 0074 0B       		.uleb128 0xb
 3610 0075 0F       		.uleb128 0xf
 3611 0076 00       		.byte	0
 3612 0077 0B       		.uleb128 0xb
 3613 0078 0B       		.uleb128 0xb
 3614 0079 49       		.uleb128 0x49
 3615 007a 13       		.uleb128 0x13
 3616 007b 00       		.byte	0
 3617 007c 00       		.byte	0
 3618 007d 0C       		.uleb128 0xc
 3619 007e 13       		.uleb128 0x13
 3620 007f 01       		.byte	0x1
 3621 0080 0B       		.uleb128 0xb
 3622 0081 0B       		.uleb128 0xb
 3623 0082 3A       		.uleb128 0x3a
 3624 0083 0B       		.uleb128 0xb
 3625 0084 3B       		.uleb128 0x3b
 3626 0085 05       		.uleb128 0x5
 3627 0086 01       		.uleb128 0x1
 3628 0087 13       		.uleb128 0x13
 3629 0088 00       		.byte	0
 3630 0089 00       		.byte	0
 3631 008a 0D       		.uleb128 0xd
 3632 008b 0D       		.uleb128 0xd
 3633 008c 00       		.byte	0
 3634 008d 03       		.uleb128 0x3
 3635 008e 0E       		.uleb128 0xe
 3636 008f 3A       		.uleb128 0x3a
 3637 0090 0B       		.uleb128 0xb
 3638 0091 3B       		.uleb128 0x3b
 3639 0092 05       		.uleb128 0x5
 3640 0093 49       		.uleb128 0x49
 3641 0094 13       		.uleb128 0x13
 3642 0095 38       		.uleb128 0x38
 3643 0096 0B       		.uleb128 0xb
ARM GAS  C:\Users\Zachary\AppData\Local\Temp\ccv8jLse.s 			page 76


 3644 0097 00       		.byte	0
 3645 0098 00       		.byte	0
 3646 0099 0E       		.uleb128 0xe
 3647 009a 0D       		.uleb128 0xd
 3648 009b 00       		.byte	0
 3649 009c 03       		.uleb128 0x3
 3650 009d 08       		.uleb128 0x8
 3651 009e 3A       		.uleb128 0x3a
 3652 009f 0B       		.uleb128 0xb
 3653 00a0 3B       		.uleb128 0x3b
 3654 00a1 05       		.uleb128 0x5
 3655 00a2 49       		.uleb128 0x49
 3656 00a3 13       		.uleb128 0x13
 3657 00a4 38       		.uleb128 0x38
 3658 00a5 0B       		.uleb128 0xb
 3659 00a6 00       		.byte	0
 3660 00a7 00       		.byte	0
 3661 00a8 0F       		.uleb128 0xf
 3662 00a9 13       		.uleb128 0x13
 3663 00aa 01       		.byte	0x1
 3664 00ab 0B       		.uleb128 0xb
 3665 00ac 0B       		.uleb128 0xb
 3666 00ad 3A       		.uleb128 0x3a
 3667 00ae 0B       		.uleb128 0xb
 3668 00af 3B       		.uleb128 0x3b
 3669 00b0 0B       		.uleb128 0xb
 3670 00b1 01       		.uleb128 0x1
 3671 00b2 13       		.uleb128 0x13
 3672 00b3 00       		.byte	0
 3673 00b4 00       		.byte	0
 3674 00b5 10       		.uleb128 0x10
 3675 00b6 0D       		.uleb128 0xd
 3676 00b7 00       		.byte	0
 3677 00b8 03       		.uleb128 0x3
 3678 00b9 0E       		.uleb128 0xe
 3679 00ba 3A       		.uleb128 0x3a
 3680 00bb 0B       		.uleb128 0xb
 3681 00bc 3B       		.uleb128 0x3b
 3682 00bd 0B       		.uleb128 0xb
 3683 00be 49       		.uleb128 0x49
 3684 00bf 13       		.uleb128 0x13
 3685 00c0 38       		.uleb128 0x38
 3686 00c1 0B       		.uleb128 0xb
 3687 00c2 00       		.byte	0
 3688 00c3 00       		.byte	0
 3689 00c4 11       		.uleb128 0x11
 3690 00c5 17       		.uleb128 0x17
 3691 00c6 01       		.byte	0x1
 3692 00c7 0B       		.uleb128 0xb
 3693 00c8 0B       		.uleb128 0xb
 3694 00c9 3A       		.uleb128 0x3a
 3695 00ca 0B       		.uleb128 0xb
 3696 00cb 3B       		.uleb128 0x3b
 3697 00cc 0B       		.uleb128 0xb
 3698 00cd 01       		.uleb128 0x1
 3699 00ce 13       		.uleb128 0x13
 3700 00cf 00       		.byte	0
ARM GAS  C:\Users\Zachary\AppData\Local\Temp\ccv8jLse.s 			page 77


 3701 00d0 00       		.byte	0
 3702 00d1 12       		.uleb128 0x12
 3703 00d2 0D       		.uleb128 0xd
 3704 00d3 00       		.byte	0
 3705 00d4 03       		.uleb128 0x3
 3706 00d5 0E       		.uleb128 0xe
 3707 00d6 3A       		.uleb128 0x3a
 3708 00d7 0B       		.uleb128 0xb
 3709 00d8 3B       		.uleb128 0x3b
 3710 00d9 0B       		.uleb128 0xb
 3711 00da 49       		.uleb128 0x49
 3712 00db 13       		.uleb128 0x13
 3713 00dc 00       		.byte	0
 3714 00dd 00       		.byte	0
 3715 00de 13       		.uleb128 0x13
 3716 00df 15       		.uleb128 0x15
 3717 00e0 01       		.byte	0x1
 3718 00e1 27       		.uleb128 0x27
 3719 00e2 19       		.uleb128 0x19
 3720 00e3 01       		.uleb128 0x1
 3721 00e4 13       		.uleb128 0x13
 3722 00e5 00       		.byte	0
 3723 00e6 00       		.byte	0
 3724 00e7 14       		.uleb128 0x14
 3725 00e8 05       		.uleb128 0x5
 3726 00e9 00       		.byte	0
 3727 00ea 49       		.uleb128 0x49
 3728 00eb 13       		.uleb128 0x13
 3729 00ec 00       		.byte	0
 3730 00ed 00       		.byte	0
 3731 00ee 15       		.uleb128 0x15
 3732 00ef 01       		.uleb128 0x1
 3733 00f0 01       		.byte	0x1
 3734 00f1 49       		.uleb128 0x49
 3735 00f2 13       		.uleb128 0x13
 3736 00f3 01       		.uleb128 0x1
 3737 00f4 13       		.uleb128 0x13
 3738 00f5 00       		.byte	0
 3739 00f6 00       		.byte	0
 3740 00f7 16       		.uleb128 0x16
 3741 00f8 21       		.uleb128 0x21
 3742 00f9 00       		.byte	0
 3743 00fa 49       		.uleb128 0x49
 3744 00fb 13       		.uleb128 0x13
 3745 00fc 2F       		.uleb128 0x2f
 3746 00fd 0B       		.uleb128 0xb
 3747 00fe 00       		.byte	0
 3748 00ff 00       		.byte	0
 3749 0100 17       		.uleb128 0x17
 3750 0101 2E       		.uleb128 0x2e
 3751 0102 00       		.byte	0
 3752 0103 3F       		.uleb128 0x3f
 3753 0104 19       		.uleb128 0x19
 3754 0105 03       		.uleb128 0x3
 3755 0106 0E       		.uleb128 0xe
 3756 0107 3A       		.uleb128 0x3a
 3757 0108 0B       		.uleb128 0xb
ARM GAS  C:\Users\Zachary\AppData\Local\Temp\ccv8jLse.s 			page 78


 3758 0109 3B       		.uleb128 0x3b
 3759 010a 0B       		.uleb128 0xb
 3760 010b 27       		.uleb128 0x27
 3761 010c 19       		.uleb128 0x19
 3762 010d 11       		.uleb128 0x11
 3763 010e 01       		.uleb128 0x1
 3764 010f 12       		.uleb128 0x12
 3765 0110 06       		.uleb128 0x6
 3766 0111 40       		.uleb128 0x40
 3767 0112 18       		.uleb128 0x18
 3768 0113 9742     		.uleb128 0x2117
 3769 0115 19       		.uleb128 0x19
 3770 0116 00       		.byte	0
 3771 0117 00       		.byte	0
 3772 0118 18       		.uleb128 0x18
 3773 0119 2E       		.uleb128 0x2e
 3774 011a 01       		.byte	0x1
 3775 011b 3F       		.uleb128 0x3f
 3776 011c 19       		.uleb128 0x19
 3777 011d 03       		.uleb128 0x3
 3778 011e 0E       		.uleb128 0xe
 3779 011f 3A       		.uleb128 0x3a
 3780 0120 0B       		.uleb128 0xb
 3781 0121 3B       		.uleb128 0x3b
 3782 0122 0B       		.uleb128 0xb
 3783 0123 27       		.uleb128 0x27
 3784 0124 19       		.uleb128 0x19
 3785 0125 11       		.uleb128 0x11
 3786 0126 01       		.uleb128 0x1
 3787 0127 12       		.uleb128 0x12
 3788 0128 06       		.uleb128 0x6
 3789 0129 40       		.uleb128 0x40
 3790 012a 18       		.uleb128 0x18
 3791 012b 9742     		.uleb128 0x2117
 3792 012d 19       		.uleb128 0x19
 3793 012e 01       		.uleb128 0x1
 3794 012f 13       		.uleb128 0x13
 3795 0130 00       		.byte	0
 3796 0131 00       		.byte	0
 3797 0132 19       		.uleb128 0x19
 3798 0133 05       		.uleb128 0x5
 3799 0134 00       		.byte	0
 3800 0135 03       		.uleb128 0x3
 3801 0136 0E       		.uleb128 0xe
 3802 0137 3A       		.uleb128 0x3a
 3803 0138 0B       		.uleb128 0xb
 3804 0139 3B       		.uleb128 0x3b
 3805 013a 0B       		.uleb128 0xb
 3806 013b 49       		.uleb128 0x49
 3807 013c 13       		.uleb128 0x13
 3808 013d 02       		.uleb128 0x2
 3809 013e 18       		.uleb128 0x18
 3810 013f 00       		.byte	0
 3811 0140 00       		.byte	0
 3812 0141 1A       		.uleb128 0x1a
 3813 0142 2E       		.uleb128 0x2e
 3814 0143 01       		.byte	0x1
ARM GAS  C:\Users\Zachary\AppData\Local\Temp\ccv8jLse.s 			page 79


 3815 0144 3F       		.uleb128 0x3f
 3816 0145 19       		.uleb128 0x19
 3817 0146 03       		.uleb128 0x3
 3818 0147 0E       		.uleb128 0xe
 3819 0148 3A       		.uleb128 0x3a
 3820 0149 0B       		.uleb128 0xb
 3821 014a 3B       		.uleb128 0x3b
 3822 014b 0B       		.uleb128 0xb
 3823 014c 27       		.uleb128 0x27
 3824 014d 19       		.uleb128 0x19
 3825 014e 49       		.uleb128 0x49
 3826 014f 13       		.uleb128 0x13
 3827 0150 11       		.uleb128 0x11
 3828 0151 01       		.uleb128 0x1
 3829 0152 12       		.uleb128 0x12
 3830 0153 06       		.uleb128 0x6
 3831 0154 40       		.uleb128 0x40
 3832 0155 18       		.uleb128 0x18
 3833 0156 9642     		.uleb128 0x2116
 3834 0158 19       		.uleb128 0x19
 3835 0159 01       		.uleb128 0x1
 3836 015a 13       		.uleb128 0x13
 3837 015b 00       		.byte	0
 3838 015c 00       		.byte	0
 3839 015d 1B       		.uleb128 0x1b
 3840 015e 34       		.uleb128 0x34
 3841 015f 00       		.byte	0
 3842 0160 03       		.uleb128 0x3
 3843 0161 0E       		.uleb128 0xe
 3844 0162 3A       		.uleb128 0x3a
 3845 0163 0B       		.uleb128 0xb
 3846 0164 3B       		.uleb128 0x3b
 3847 0165 0B       		.uleb128 0xb
 3848 0166 49       		.uleb128 0x49
 3849 0167 13       		.uleb128 0x13
 3850 0168 02       		.uleb128 0x2
 3851 0169 18       		.uleb128 0x18
 3852 016a 00       		.byte	0
 3853 016b 00       		.byte	0
 3854 016c 1C       		.uleb128 0x1c
 3855 016d 2E       		.uleb128 0x2e
 3856 016e 01       		.byte	0x1
 3857 016f 3F       		.uleb128 0x3f
 3858 0170 19       		.uleb128 0x19
 3859 0171 03       		.uleb128 0x3
 3860 0172 0E       		.uleb128 0xe
 3861 0173 3A       		.uleb128 0x3a
 3862 0174 0B       		.uleb128 0xb
 3863 0175 3B       		.uleb128 0x3b
 3864 0176 05       		.uleb128 0x5
 3865 0177 27       		.uleb128 0x27
 3866 0178 19       		.uleb128 0x19
 3867 0179 49       		.uleb128 0x49
 3868 017a 13       		.uleb128 0x13
 3869 017b 11       		.uleb128 0x11
 3870 017c 01       		.uleb128 0x1
 3871 017d 12       		.uleb128 0x12
ARM GAS  C:\Users\Zachary\AppData\Local\Temp\ccv8jLse.s 			page 80


 3872 017e 06       		.uleb128 0x6
 3873 017f 40       		.uleb128 0x40
 3874 0180 18       		.uleb128 0x18
 3875 0181 9642     		.uleb128 0x2116
 3876 0183 19       		.uleb128 0x19
 3877 0184 01       		.uleb128 0x1
 3878 0185 13       		.uleb128 0x13
 3879 0186 00       		.byte	0
 3880 0187 00       		.byte	0
 3881 0188 1D       		.uleb128 0x1d
 3882 0189 05       		.uleb128 0x5
 3883 018a 00       		.byte	0
 3884 018b 03       		.uleb128 0x3
 3885 018c 0E       		.uleb128 0xe
 3886 018d 3A       		.uleb128 0x3a
 3887 018e 0B       		.uleb128 0xb
 3888 018f 3B       		.uleb128 0x3b
 3889 0190 05       		.uleb128 0x5
 3890 0191 49       		.uleb128 0x49
 3891 0192 13       		.uleb128 0x13
 3892 0193 02       		.uleb128 0x2
 3893 0194 18       		.uleb128 0x18
 3894 0195 00       		.byte	0
 3895 0196 00       		.byte	0
 3896 0197 1E       		.uleb128 0x1e
 3897 0198 34       		.uleb128 0x34
 3898 0199 00       		.byte	0
 3899 019a 03       		.uleb128 0x3
 3900 019b 0E       		.uleb128 0xe
 3901 019c 3A       		.uleb128 0x3a
 3902 019d 0B       		.uleb128 0xb
 3903 019e 3B       		.uleb128 0x3b
 3904 019f 05       		.uleb128 0x5
 3905 01a0 49       		.uleb128 0x49
 3906 01a1 13       		.uleb128 0x13
 3907 01a2 02       		.uleb128 0x2
 3908 01a3 18       		.uleb128 0x18
 3909 01a4 00       		.byte	0
 3910 01a5 00       		.byte	0
 3911 01a6 1F       		.uleb128 0x1f
 3912 01a7 0B       		.uleb128 0xb
 3913 01a8 01       		.byte	0x1
 3914 01a9 11       		.uleb128 0x11
 3915 01aa 01       		.uleb128 0x1
 3916 01ab 12       		.uleb128 0x12
 3917 01ac 06       		.uleb128 0x6
 3918 01ad 00       		.byte	0
 3919 01ae 00       		.byte	0
 3920 01af 20       		.uleb128 0x20
 3921 01b0 2E       		.uleb128 0x2e
 3922 01b1 01       		.byte	0x1
 3923 01b2 3F       		.uleb128 0x3f
 3924 01b3 19       		.uleb128 0x19
 3925 01b4 03       		.uleb128 0x3
 3926 01b5 0E       		.uleb128 0xe
 3927 01b6 3A       		.uleb128 0x3a
 3928 01b7 0B       		.uleb128 0xb
ARM GAS  C:\Users\Zachary\AppData\Local\Temp\ccv8jLse.s 			page 81


 3929 01b8 3B       		.uleb128 0x3b
 3930 01b9 05       		.uleb128 0x5
 3931 01ba 27       		.uleb128 0x27
 3932 01bb 19       		.uleb128 0x19
 3933 01bc 11       		.uleb128 0x11
 3934 01bd 01       		.uleb128 0x1
 3935 01be 12       		.uleb128 0x12
 3936 01bf 06       		.uleb128 0x6
 3937 01c0 40       		.uleb128 0x40
 3938 01c1 18       		.uleb128 0x18
 3939 01c2 9642     		.uleb128 0x2116
 3940 01c4 19       		.uleb128 0x19
 3941 01c5 01       		.uleb128 0x1
 3942 01c6 13       		.uleb128 0x13
 3943 01c7 00       		.byte	0
 3944 01c8 00       		.byte	0
 3945 01c9 21       		.uleb128 0x21
 3946 01ca 26       		.uleb128 0x26
 3947 01cb 00       		.byte	0
 3948 01cc 49       		.uleb128 0x49
 3949 01cd 13       		.uleb128 0x13
 3950 01ce 00       		.byte	0
 3951 01cf 00       		.byte	0
 3952 01d0 22       		.uleb128 0x22
 3953 01d1 34       		.uleb128 0x34
 3954 01d2 00       		.byte	0
 3955 01d3 03       		.uleb128 0x3
 3956 01d4 0E       		.uleb128 0xe
 3957 01d5 3A       		.uleb128 0x3a
 3958 01d6 0B       		.uleb128 0xb
 3959 01d7 3B       		.uleb128 0x3b
 3960 01d8 05       		.uleb128 0x5
 3961 01d9 49       		.uleb128 0x49
 3962 01da 13       		.uleb128 0x13
 3963 01db 3F       		.uleb128 0x3f
 3964 01dc 19       		.uleb128 0x19
 3965 01dd 3C       		.uleb128 0x3c
 3966 01de 19       		.uleb128 0x19
 3967 01df 00       		.byte	0
 3968 01e0 00       		.byte	0
 3969 01e1 23       		.uleb128 0x23
 3970 01e2 34       		.uleb128 0x34
 3971 01e3 00       		.byte	0
 3972 01e4 03       		.uleb128 0x3
 3973 01e5 0E       		.uleb128 0xe
 3974 01e6 3A       		.uleb128 0x3a
 3975 01e7 0B       		.uleb128 0xb
 3976 01e8 3B       		.uleb128 0x3b
 3977 01e9 0B       		.uleb128 0xb
 3978 01ea 49       		.uleb128 0x49
 3979 01eb 13       		.uleb128 0x13
 3980 01ec 3F       		.uleb128 0x3f
 3981 01ed 19       		.uleb128 0x19
 3982 01ee 3C       		.uleb128 0x3c
 3983 01ef 19       		.uleb128 0x19
 3984 01f0 00       		.byte	0
 3985 01f1 00       		.byte	0
ARM GAS  C:\Users\Zachary\AppData\Local\Temp\ccv8jLse.s 			page 82


 3986 01f2 24       		.uleb128 0x24
 3987 01f3 34       		.uleb128 0x34
 3988 01f4 00       		.byte	0
 3989 01f5 03       		.uleb128 0x3
 3990 01f6 0E       		.uleb128 0xe
 3991 01f7 3A       		.uleb128 0x3a
 3992 01f8 0B       		.uleb128 0xb
 3993 01f9 3B       		.uleb128 0x3b
 3994 01fa 0B       		.uleb128 0xb
 3995 01fb 49       		.uleb128 0x49
 3996 01fc 13       		.uleb128 0x13
 3997 01fd 3F       		.uleb128 0x3f
 3998 01fe 19       		.uleb128 0x19
 3999 01ff 02       		.uleb128 0x2
 4000 0200 18       		.uleb128 0x18
 4001 0201 00       		.byte	0
 4002 0202 00       		.byte	0
 4003 0203 00       		.byte	0
 4004              		.section	.debug_aranges,"",%progbits
 4005 0000 64000000 		.4byte	0x64
 4006 0004 0200     		.2byte	0x2
 4007 0006 00000000 		.4byte	.Ldebug_info0
 4008 000a 04       		.byte	0x4
 4009 000b 00       		.byte	0
 4010 000c 0000     		.2byte	0
 4011 000e 0000     		.2byte	0
 4012 0010 00000000 		.4byte	.LFB2
 4013 0014 14000000 		.4byte	.LFE2-.LFB2
 4014 0018 00000000 		.4byte	.LFB3
 4015 001c 18000000 		.4byte	.LFE3-.LFB3
 4016 0020 00000000 		.4byte	.LFB4
 4017 0024 8C000000 		.4byte	.LFE4-.LFB4
 4018 0028 00000000 		.4byte	.LFB5
 4019 002c 88000000 		.4byte	.LFE5-.LFB5
 4020 0030 00000000 		.4byte	.LFB6
 4021 0034 AC000000 		.4byte	.LFE6-.LFB6
 4022 0038 00000000 		.4byte	.LFB7
 4023 003c AC000000 		.4byte	.LFE7-.LFB7
 4024 0040 00000000 		.4byte	.LFB8
 4025 0044 EC020000 		.4byte	.LFE8-.LFB8
 4026 0048 00000000 		.4byte	.LFB9
 4027 004c D8000000 		.4byte	.LFE9-.LFB9
 4028 0050 00000000 		.4byte	.LFB10
 4029 0054 F0000000 		.4byte	.LFE10-.LFB10
 4030 0058 00000000 		.4byte	.LFB11
 4031 005c D8000000 		.4byte	.LFE11-.LFB11
 4032 0060 00000000 		.4byte	0
 4033 0064 00000000 		.4byte	0
 4034              		.section	.debug_ranges,"",%progbits
 4035              	.Ldebug_ranges0:
 4036 0000 00000000 		.4byte	.LFB2
 4037 0004 14000000 		.4byte	.LFE2
 4038 0008 00000000 		.4byte	.LFB3
 4039 000c 18000000 		.4byte	.LFE3
 4040 0010 00000000 		.4byte	.LFB4
 4041 0014 8C000000 		.4byte	.LFE4
 4042 0018 00000000 		.4byte	.LFB5
ARM GAS  C:\Users\Zachary\AppData\Local\Temp\ccv8jLse.s 			page 83


 4043 001c 88000000 		.4byte	.LFE5
 4044 0020 00000000 		.4byte	.LFB6
 4045 0024 AC000000 		.4byte	.LFE6
 4046 0028 00000000 		.4byte	.LFB7
 4047 002c AC000000 		.4byte	.LFE7
 4048 0030 00000000 		.4byte	.LFB8
 4049 0034 EC020000 		.4byte	.LFE8
 4050 0038 00000000 		.4byte	.LFB9
 4051 003c D8000000 		.4byte	.LFE9
 4052 0040 00000000 		.4byte	.LFB10
 4053 0044 F0000000 		.4byte	.LFE10
 4054 0048 00000000 		.4byte	.LFB11
 4055 004c D8000000 		.4byte	.LFE11
 4056 0050 00000000 		.4byte	0
 4057 0054 00000000 		.4byte	0
 4058              		.section	.debug_line,"",%progbits
 4059              	.Ldebug_line0:
 4060 0000 4F020000 		.section	.debug_str,"MS",%progbits,1
 4060      0200DD00 
 4060      00000201 
 4060      FB0E0D00 
 4060      01010101 
 4061              	.LASF376:
 4062 0000 4359424C 		.ascii	"CYBLE_EVT_UDSC_READ_CHAR_RESPONSE\000"
 4062      455F4556 
 4062      545F5544 
 4062      53435F52 
 4062      4541445F 
 4063              	.LASF306:
 4064 0022 4359424C 		.ascii	"CYBLE_EVT_HTSS_NOTIFICATION_DISABLED\000"
 4064      455F4556 
 4064      545F4854 
 4064      53535F4E 
 4064      4F544946 
 4065              	.LASF166:
 4066 0047 4359424C 		.ascii	"CYBLE_DIS_CHAR_COUNT\000"
 4066      455F4449 
 4066      535F4348 
 4066      41525F43 
 4066      4F554E54 
 4067              	.LASF15:
 4068 005c 73697A65 		.ascii	"sizetype\000"
 4068      74797065 
 4068      00
 4069              	.LASF406:
 4070 0065 75707065 		.ascii	"upperValue\000"
 4070      7256616C 
 4070      756500
 4071              	.LASF374:
 4072 0070 4359424C 		.ascii	"CYBLE_EVT_UDSC_INDICATION\000"
 4072      455F4556 
 4072      545F5544 
 4072      53435F49 
 4072      4E444943 
 4073              	.LASF140:
 4074 008a 4359424C 		.ascii	"CYBLE_GATTS_HANDLE_VALUE_NTF_T\000"
 4074      455F4741 
ARM GAS  C:\Users\Zachary\AppData\Local\Temp\ccv8jLse.s 			page 84


 4074      5454535F 
 4074      48414E44 
 4074      4C455F56 
 4075              	.LASF233:
 4076 00a9 4359424C 		.ascii	"CYBLE_EVT_CGMSC_INDICATION\000"
 4076      455F4556 
 4076      545F4347 
 4076      4D53435F 
 4076      494E4449 
 4077              	.LASF251:
 4078 00c4 4359424C 		.ascii	"CYBLE_EVT_CPSC_READ_DESCR_RESPONSE\000"
 4078      455F4556 
 4078      545F4350 
 4078      53435F52 
 4078      4541445F 
 4079              	.LASF354:
 4080 00e7 4359424C 		.ascii	"CYBLE_EVT_RTUSS_WRITE_CHAR_CMD\000"
 4080      455F4556 
 4080      545F5254 
 4080      5553535F 
 4080      57524954 
 4081              	.LASF183:
 4082 0106 63686172 		.ascii	"charIndex\000"
 4082      496E6465 
 4082      7800
 4083              	.LASF412:
 4084 0110 4379426C 		.ascii	"CyBle_HtsApplCallback\000"
 4084      655F4874 
 4084      73417070 
 4084      6C43616C 
 4084      6C626163 
 4085              	.LASF249:
 4086 0126 4359424C 		.ascii	"CYBLE_EVT_CPSC_READ_CHAR_RESPONSE\000"
 4086      455F4556 
 4086      545F4350 
 4086      53435F52 
 4086      4541445F 
 4087              	.LASF262:
 4088 0148 4359424C 		.ascii	"CYBLE_EVT_CSCSC_READ_CHAR_RESPONSE\000"
 4088      455F4556 
 4088      545F4353 
 4088      4353435F 
 4088      52454144 
 4089              	.LASF238:
 4090 016b 4359424C 		.ascii	"CYBLE_EVT_CGMSC_WRITE_DESCR_RESPONSE\000"
 4090      455F4556 
 4090      545F4347 
 4090      4D53435F 
 4090      57524954 
 4091              	.LASF277:
 4092 0190 4359424C 		.ascii	"CYBLE_EVT_GLSS_NOTIFICATION_DISABLED\000"
 4092      455F4556 
 4092      545F474C 
 4092      53535F4E 
 4092      4F544946 
 4093              	.LASF398:
 4094 01b5 6576656E 		.ascii	"eventParam\000"
ARM GAS  C:\Users\Zachary\AppData\Local\Temp\ccv8jLse.s 			page 85


 4094      74506172 
 4094      616D00
 4095              	.LASF224:
 4096 01c0 4359424C 		.ascii	"CYBLE_EVT_BLSC_READ_CHAR_RESPONSE\000"
 4096      455F4556 
 4096      545F424C 
 4096      53435F52 
 4096      4541445F 
 4097              	.LASF29:
 4098 01e2 4359424C 		.ascii	"CYBLE_EVT_GAP_DEVICE_CONNECTED\000"
 4098      455F4556 
 4098      545F4741 
 4098      505F4445 
 4098      56494345 
 4099              	.LASF320:
 4100 0201 4359424C 		.ascii	"CYBLE_EVT_LLSC_WRITE_CHAR_RESPONSE\000"
 4100      455F4556 
 4100      545F4C4C 
 4100      53435F57 
 4100      52495445 
 4101              	.LASF392:
 4102 0224 4379426C 		.ascii	"CyBle_HtssSetCharacteristicValue\000"
 4102      655F4874 
 4102      73735365 
 4102      74436861 
 4102      72616374 
 4103              	.LASF36:
 4104 0245 4359424C 		.ascii	"CYBLE_EVT_GATT_CONNECT_IND\000"
 4104      455F4556 
 4104      545F4741 
 4104      54545F43 
 4104      4F4E4E45 
 4105              	.LASF174:
 4106 0260 4359424C 		.ascii	"CYBLE_HTS_VRD\000"
 4106      455F4854 
 4106      535F5652 
 4106      4400
 4107              	.LASF11:
 4108 026e 75696E74 		.ascii	"uint32\000"
 4108      333200
 4109              	.LASF407:
 4110 0275 4379426C 		.ascii	"CyBle_HtssSendNotification\000"
 4110      655F4874 
 4110      73735365 
 4110      6E644E6F 
 4110      74696669 
 4111              	.LASF195:
 4112 0290 4359424C 		.ascii	"CYBLE_EVT_GATTC_DESCR_DISCOVERY_FAILED\000"
 4112      455F4556 
 4112      545F4741 
 4112      5454435F 
 4112      44455343 
 4113              	.LASF353:
 4114 02b7 4359424C 		.ascii	"CYBLE_EVT_RSCSC_WRITE_DESCR_RESPONSE\000"
 4114      455F4556 
 4114      545F5253 
 4114      4353435F 
ARM GAS  C:\Users\Zachary\AppData\Local\Temp\ccv8jLse.s 			page 86


 4114      57524954 
 4115              	.LASF322:
 4116 02dc 4359424C 		.ascii	"CYBLE_EVT_LNSS_INDICATION_DISABLED\000"
 4116      455F4556 
 4116      545F4C4E 
 4116      53535F49 
 4116      4E444943 
 4117              	.LASF269:
 4118 02ff 4359424C 		.ascii	"CYBLE_EVT_CTSC_READ_CHAR_RESPONSE\000"
 4118      455F4556 
 4118      545F4354 
 4118      53435F52 
 4118      4541445F 
 4119              	.LASF199:
 4120 0321 4359424C 		.ascii	"CYBLE_EVT_GATTC_SRVC_DISCOVERY_COMPLETE\000"
 4120      455F4556 
 4120      545F4741 
 4120      5454435F 
 4120      53525643 
 4121              	.LASF347:
 4122 0349 4359424C 		.ascii	"CYBLE_EVT_RSCSS_CHAR_WRITE\000"
 4122      455F4556 
 4122      545F5253 
 4122      4353535F 
 4122      43484152 
 4123              	.LASF379:
 4124 0364 4359424C 		.ascii	"CYBLE_EVT_UDSC_WRITE_DESCR_RESPONSE\000"
 4124      455F4556 
 4124      545F5544 
 4124      53435F57 
 4124      52495445 
 4125              	.LASF296:
 4126 0388 4359424C 		.ascii	"CYBLE_EVT_HIDSC_WRITE_DESCR_RESPONSE\000"
 4126      455F4556 
 4126      545F4849 
 4126      4453435F 
 4126      57524954 
 4127              	.LASF209:
 4128 03ad 4359424C 		.ascii	"CYBLE_EVT_ANSC_READ_DESCR_RESPONSE\000"
 4128      455F4556 
 4128      545F414E 
 4128      53435F52 
 4128      4541445F 
 4129              	.LASF104:
 4130 03d0 4359424C 		.ascii	"CYBLE_GATT_ERR_READ_NOT_PERMITTED\000"
 4130      455F4741 
 4130      54545F45 
 4130      52525F52 
 4130      4541445F 
 4131              	.LASF119:
 4132 03f2 4359424C 		.ascii	"CYBLE_GATT_ERR_INSUFFICIENT_RESOURCE\000"
 4132      455F4741 
 4132      54545F45 
 4132      52525F49 
 4132      4E535546 
 4133              	.LASF173:
 4134 0417 4359424C 		.ascii	"CYBLE_HTS_CCCD\000"
ARM GAS  C:\Users\Zachary\AppData\Local\Temp\ccv8jLse.s 			page 87


 4134      455F4854 
 4134      535F4343 
 4134      434400
 4135              	.LASF118:
 4136 0426 4359424C 		.ascii	"CYBLE_GATT_ERR_UNSUPPORTED_GROUP_TYPE\000"
 4136      455F4741 
 4136      54545F45 
 4136      52525F55 
 4136      4E535550 
 4137              	.LASF86:
 4138 044c 4359424C 		.ascii	"CYBLE_ERROR_L2CAP_CONNECTION_ENTITY_NOT_FOUND\000"
 4138      455F4552 
 4138      524F525F 
 4138      4C324341 
 4138      505F434F 
 4139              	.LASF92:
 4140 047a 4359424C 		.ascii	"CYBLE_ERROR_MIC_AUTH_FAILED\000"
 4140      455F4552 
 4140      524F525F 
 4140      4D49435F 
 4140      41555448 
 4141              	.LASF194:
 4142 0496 4359424C 		.ascii	"CYBLE_EVT_GATTC_CHAR_DISCOVERY_FAILED\000"
 4142      455F4556 
 4142      545F4741 
 4142      5454435F 
 4142      43484152 
 4143              	.LASF56:
 4144 04bc 4359424C 		.ascii	"CYBLE_EVT_GATTS_DATA_SIGNED_CMD_REQ\000"
 4144      455F4556 
 4144      545F4741 
 4144      5454535F 
 4144      44415441 
 4145              	.LASF65:
 4146 04e0 4359424C 		.ascii	"CYBLE_EVT_L2CAP_CBFC_RX_CREDIT_IND\000"
 4146      455F4556 
 4146      545F4C32 
 4146      4341505F 
 4146      43424643 
 4147              	.LASF136:
 4148 0503 4359424C 		.ascii	"CYBLE_GATT_VALUE_T\000"
 4148      455F4741 
 4148      54545F56 
 4148      414C5545 
 4148      5F5400
 4149              	.LASF256:
 4150 0516 4359424C 		.ascii	"CYBLE_EVT_CSCSS_INDICATION_ENABLED\000"
 4150      455F4556 
 4150      545F4353 
 4150      4353535F 
 4150      494E4449 
 4151              	.LASF152:
 4152 0539 7065726D 		.ascii	"permission\000"
 4152      69737369 
 4152      6F6E00
 4153              	.LASF327:
 4154 0544 4359424C 		.ascii	"CYBLE_EVT_LNSC_INDICATION\000"
ARM GAS  C:\Users\Zachary\AppData\Local\Temp\ccv8jLse.s 			page 88


 4154      455F4556 
 4154      545F4C4E 
 4154      53435F49 
 4154      4E444943 
 4155              	.LASF338:
 4156 055e 4359424C 		.ascii	"CYBLE_EVT_PASSC_READ_CHAR_RESPONSE\000"
 4156      455F4556 
 4156      545F5041 
 4156      5353435F 
 4156      52454144 
 4157              	.LASF217:
 4158 0581 4359424C 		.ascii	"CYBLE_EVT_BLSS_INDICATION_ENABLED\000"
 4158      455F4556 
 4158      545F424C 
 4158      53535F49 
 4158      4E444943 
 4159              	.LASF223:
 4160 05a3 4359424C 		.ascii	"CYBLE_EVT_BLSC_NOTIFICATION\000"
 4160      455F4556 
 4160      545F424C 
 4160      53435F4E 
 4160      4F544946 
 4161              	.LASF156:
 4162 05bf 4359424C 		.ascii	"CYBLE_CALLBACK_T\000"
 4162      455F4341 
 4162      4C4C4241 
 4162      434B5F54 
 4162      00
 4163              	.LASF261:
 4164 05d0 4359424C 		.ascii	"CYBLE_EVT_CSCSC_INDICATION\000"
 4164      455F4556 
 4164      545F4353 
 4164      4353435F 
 4164      494E4449 
 4165              	.LASF161:
 4166 05eb 4359424C 		.ascii	"CYBLE_DIS_FIRMWARE_REV\000"
 4166      455F4449 
 4166      535F4649 
 4166      524D5741 
 4166      52455F52 
 4167              	.LASF53:
 4168 0602 4359424C 		.ascii	"CYBLE_EVT_GATTC_HANDLE_VALUE_NTF\000"
 4168      455F4556 
 4168      545F4741 
 4168      5454435F 
 4168      48414E44 
 4169              	.LASF23:
 4170 0623 4359424C 		.ascii	"CYBLE_EVT_GAP_AUTH_REQ\000"
 4170      455F4556 
 4170      545F4741 
 4170      505F4155 
 4170      54485F52 
 4171              	.LASF201:
 4172 063a 4359424C 		.ascii	"CYBLE_EVT_GATTC_CHAR_DISCOVERY_COMPLETE\000"
 4172      455F4556 
 4172      545F4741 
 4172      5454435F 
ARM GAS  C:\Users\Zachary\AppData\Local\Temp\ccv8jLse.s 			page 89


 4172      43484152 
 4173              	.LASF134:
 4174 0662 4359424C 		.ascii	"CYBLE_CONN_HANDLE_T\000"
 4174      455F434F 
 4174      4E4E5F48 
 4174      414E444C 
 4174      455F5400 
 4175              	.LASF302:
 4176 0676 4359424C 		.ascii	"CYBLE_EVT_HRSC_WRITE_CHAR_RESPONSE\000"
 4176      455F4556 
 4176      545F4852 
 4176      53435F57 
 4176      52495445 
 4177              	.LASF81:
 4178 0699 4359424C 		.ascii	"CYBLE_ERROR_BT_ON_NOT_COMPLETED\000"
 4178      455F4552 
 4178      524F525F 
 4178      42545F4F 
 4178      4E5F4E4F 
 4179              	.LASF260:
 4180 06b9 4359424C 		.ascii	"CYBLE_EVT_CSCSC_NOTIFICATION\000"
 4180      455F4556 
 4180      545F4353 
 4180      4353435F 
 4180      4E4F5449 
 4181              	.LASF384:
 4182 06d6 4359424C 		.ascii	"CYBLE_STATE_ADVERTISING\000"
 4182      455F5354 
 4182      4154455F 
 4182      41445645 
 4182      52544953 
 4183              	.LASF178:
 4184 06ee 64657363 		.ascii	"descrHandle\000"
 4184      7248616E 
 4184      646C6500 
 4185              	.LASF132:
 4186 06fa 62644861 		.ascii	"bdHandle\000"
 4186      6E646C65 
 4186      00
 4187              	.LASF229:
 4188 0703 4359424C 		.ascii	"CYBLE_EVT_CGMSS_INDICATION_CONFIRMED\000"
 4188      455F4556 
 4188      545F4347 
 4188      4D53535F 
 4188      494E4449 
 4189              	.LASF225:
 4190 0728 4359424C 		.ascii	"CYBLE_EVT_BLSC_READ_DESCR_RESPONSE\000"
 4190      455F4556 
 4190      545F424C 
 4190      53435F52 
 4190      4541445F 
 4191              	.LASF242:
 4192 074b 4359424C 		.ascii	"CYBLE_EVT_CPSS_INDICATION_DISABLED\000"
 4192      455F4556 
 4192      545F4350 
 4192      53535F49 
 4192      4E444943 
ARM GAS  C:\Users\Zachary\AppData\Local\Temp\ccv8jLse.s 			page 90


 4193              	.LASF241:
 4194 076e 4359424C 		.ascii	"CYBLE_EVT_CPSS_INDICATION_ENABLED\000"
 4194      455F4556 
 4194      545F4350 
 4194      53535F49 
 4194      4E444943 
 4195              	.LASF324:
 4196 0790 4359424C 		.ascii	"CYBLE_EVT_LNSS_NOTIFICATION_ENABLED\000"
 4196      455F4556 
 4196      545F4C4E 
 4196      53535F4E 
 4196      4F544946 
 4197              	.LASF49:
 4198 07b4 4359424C 		.ascii	"CYBLE_EVT_GATTS_WRITE_CMD_REQ\000"
 4198      455F4556 
 4198      545F4741 
 4198      5454535F 
 4198      57524954 
 4199              	.LASF252:
 4200 07d2 4359424C 		.ascii	"CYBLE_EVT_CPSC_WRITE_DESCR_RESPONSE\000"
 4200      455F4556 
 4200      545F4350 
 4200      53435F57 
 4200      52495445 
 4201              	.LASF4:
 4202 07f6 6C6F6E67 		.ascii	"long int\000"
 4202      20696E74 
 4202      00
 4203              	.LASF184:
 4204 07ff 4359424C 		.ascii	"CYBLE_HTS_CHAR_VALUE_T\000"
 4204      455F4854 
 4204      535F4348 
 4204      41525F56 
 4204      414C5545 
 4205              	.LASF257:
 4206 0816 4359424C 		.ascii	"CYBLE_EVT_CSCSS_INDICATION_DISABLED\000"
 4206      455F4556 
 4206      545F4353 
 4206      4353535F 
 4206      494E4449 
 4207              	.LASF339:
 4208 083a 4359424C 		.ascii	"CYBLE_EVT_PASSC_WRITE_CHAR_RESPONSE\000"
 4208      455F4556 
 4208      545F5041 
 4208      5353435F 
 4208      57524954 
 4209              	.LASF169:
 4210 085e 4359424C 		.ascii	"CYBLE_HTS_INTERM_TEMP\000"
 4210      455F4854 
 4210      535F494E 
 4210      5445524D 
 4210      5F54454D 
 4211              	.LASF370:
 4212 0874 4359424C 		.ascii	"CYBLE_EVT_UDSS_INDICATION_CONFIRMED\000"
 4212      455F4556 
 4212      545F5544 
 4212      53535F49 
ARM GAS  C:\Users\Zachary\AppData\Local\Temp\ccv8jLse.s 			page 91


 4212      4E444943 
 4213              	.LASF187:
 4214 0898 4359424C 		.ascii	"CYBLE_LONG_TERM_KEY_REQUEST_REPLY\000"
 4214      455F4C4F 
 4214      4E475F54 
 4214      45524D5F 
 4214      4B45595F 
 4215              	.LASF17:
 4216 08ba 4359424C 		.ascii	"CYBLE_EVT_STACK_ON\000"
 4216      455F4556 
 4216      545F5354 
 4216      41434B5F 
 4216      4F4E00
 4217              	.LASF88:
 4218 08cd 4359424C 		.ascii	"CYBLE_ERROR_L2CAP_PSM_NOT_IN_RANGE\000"
 4218      455F4552 
 4218      524F525F 
 4218      4C324341 
 4218      505F5053 
 4219              	.LASF160:
 4220 08f0 4359424C 		.ascii	"CYBLE_DIS_HARDWARE_REV\000"
 4220      455F4449 
 4220      535F4841 
 4220      52445741 
 4220      52455F52 
 4221              	.LASF387:
 4222 0907 63616C6C 		.ascii	"callbackFunc\000"
 4222      6261636B 
 4222      46756E63 
 4222      00
 4223              	.LASF350:
 4224 0914 4359424C 		.ascii	"CYBLE_EVT_RSCSC_READ_CHAR_RESPONSE\000"
 4224      455F4556 
 4224      545F5253 
 4224      4353435F 
 4224      52454144 
 4225              	.LASF180:
 4226 0937 73657276 		.ascii	"serviceHandle\000"
 4226      69636548 
 4226      616E646C 
 4226      6500
 4227              	.LASF305:
 4228 0945 4359424C 		.ascii	"CYBLE_EVT_HTSS_NOTIFICATION_ENABLED\000"
 4228      455F4556 
 4228      545F4854 
 4228      53535F4E 
 4228      4F544946 
 4229              	.LASF106:
 4230 0969 4359424C 		.ascii	"CYBLE_GATT_ERR_INVALID_PDU\000"
 4230      455F4741 
 4230      54545F45 
 4230      52525F49 
 4230      4E56414C 
 4231              	.LASF99:
 4232 0984 4359424C 		.ascii	"CYBLE_ERROR_CHAR_IS_NOT_DISCOVERED\000"
 4232      455F4552 
 4232      524F525F 
ARM GAS  C:\Users\Zachary\AppData\Local\Temp\ccv8jLse.s 			page 92


 4232      43484152 
 4232      5F49535F 
 4233              	.LASF139:
 4234 09a7 4359424C 		.ascii	"CYBLE_GATT_HANDLE_VALUE_PAIR_T\000"
 4234      455F4741 
 4234      54545F48 
 4234      414E444C 
 4234      455F5641 
 4235              	.LASF151:
 4236 09c6 61747454 		.ascii	"attType\000"
 4236      79706500 
 4237              	.LASF292:
 4238 09ce 4359424C 		.ascii	"CYBLE_EVT_HIDSC_NOTIFICATION\000"
 4238      455F4556 
 4238      545F4849 
 4238      4453435F 
 4238      4E4F5449 
 4239              	.LASF59:
 4240 09eb 4359424C 		.ascii	"CYBLE_EVT_L2CAP_COMMAND_REJ\000"
 4240      455F4556 
 4240      545F4C32 
 4240      4341505F 
 4240      434F4D4D 
 4241              	.LASF115:
 4242 0a07 4359424C 		.ascii	"CYBLE_GATT_ERR_INVALID_ATTRIBUTE_LEN\000"
 4242      455F4741 
 4242      54545F45 
 4242      52525F49 
 4242      4E56414C 
 4243              	.LASF289:
 4244 0a2c 4359424C 		.ascii	"CYBLE_EVT_HIDSS_SUSPEND\000"
 4244      455F4556 
 4244      545F4849 
 4244      4453535F 
 4244      53555350 
 4245              	.LASF89:
 4246 0a44 4359424C 		.ascii	"CYBLE_ERROR_GATT_DB_INVALID_ATTR_HANDLE\000"
 4246      455F4552 
 4246      524F525F 
 4246      47415454 
 4246      5F44425F 
 4247              	.LASF0:
 4248 0a6c 7369676E 		.ascii	"signed char\000"
 4248      65642063 
 4248      68617200 
 4249              	.LASF215:
 4250 0a78 4359424C 		.ascii	"CYBLE_EVT_BASC_READ_DESCR_RESPONSE\000"
 4250      455F4556 
 4250      545F4241 
 4250      53435F52 
 4250      4541445F 
 4251              	.LASF19:
 4252 0a9b 4359424C 		.ascii	"CYBLE_EVT_HARDWARE_ERROR\000"
 4252      455F4556 
 4252      545F4841 
 4252      52445741 
 4252      52455F45 
ARM GAS  C:\Users\Zachary\AppData\Local\Temp\ccv8jLse.s 			page 93


 4253              	.LASF70:
 4254 0ab4 4359424C 		.ascii	"CYBLE_ERROR_OK\000"
 4254      455F4552 
 4254      524F525F 
 4254      4F4B00
 4255              	.LASF400:
 4256 0ac3 6C6F6343 		.ascii	"locCharValue\000"
 4256      68617256 
 4256      616C7565 
 4256      00
 4257              	.LASF40:
 4258 0ad0 4359424C 		.ascii	"CYBLE_EVT_GATTC_READ_BY_GROUP_TYPE_RSP\000"
 4258      455F4556 
 4258      545F4741 
 4258      5454435F 
 4258      52454144 
 4259              	.LASF381:
 4260 0af7 4359424C 		.ascii	"CYBLE_STATE_STOPPED\000"
 4260      455F5354 
 4260      4154455F 
 4260      53544F50 
 4260      50454400 
 4261              	.LASF344:
 4262 0b0b 4359424C 		.ascii	"CYBLE_EVT_RSCSS_INDICATION_ENABLED\000"
 4262      455F4556 
 4262      545F5253 
 4262      4353535F 
 4262      494E4449 
 4263              	.LASF1:
 4264 0b2e 756E7369 		.ascii	"unsigned char\000"
 4264      676E6564 
 4264      20636861 
 4264      7200
 4265              	.LASF39:
 4266 0b3c 4359424C 		.ascii	"CYBLE_EVT_GATTC_XCHNG_MTU_RSP\000"
 4266      455F4556 
 4266      545F4741 
 4266      5454435F 
 4266      5843484E 
 4267              	.LASF243:
 4268 0b5a 4359424C 		.ascii	"CYBLE_EVT_CPSS_INDICATION_CONFIRMED\000"
 4268      455F4556 
 4268      545F4350 
 4268      53535F49 
 4268      4E444943 
 4269              	.LASF175:
 4270 0b7e 4359424C 		.ascii	"CYBLE_HTS_DESCR_COUNT\000"
 4270      455F4854 
 4270      535F4445 
 4270      5343525F 
 4270      434F554E 
 4271              	.LASF240:
 4272 0b94 4359424C 		.ascii	"CYBLE_EVT_CPSS_NOTIFICATION_DISABLED\000"
 4272      455F4556 
 4272      545F4350 
 4272      53535F4E 
 4272      4F544946 
ARM GAS  C:\Users\Zachary\AppData\Local\Temp\ccv8jLse.s 			page 94


 4273              	.LASF349:
 4274 0bb9 4359424C 		.ascii	"CYBLE_EVT_RSCSC_INDICATION\000"
 4274      455F4556 
 4274      545F5253 
 4274      4353435F 
 4274      494E4449 
 4275              	.LASF66:
 4276 0bd4 4359424C 		.ascii	"CYBLE_EVT_L2CAP_CBFC_TX_CREDIT_IND\000"
 4276      455F4556 
 4276      545F4C32 
 4276      4341505F 
 4276      43424643 
 4277              	.LASF150:
 4278 0bf7 61747448 		.ascii	"attHandle\000"
 4278      616E646C 
 4278      6500
 4279              	.LASF420:
 4280 0c01 433A5C55 		.ascii	"C:\\Users\\Zachary\\Desktop\\embedded\\Ozturk Lab -"
 4280      73657273 
 4280      5C5A6163 
 4280      68617279 
 4280      5C446573 
 4281 0c2f 2035202D 		.ascii	" 5 - Rev 1\\Design03\\BLE_Temperature_Measurement01"
 4281      20526576 
 4281      20315C44 
 4281      65736967 
 4281      6E30335C 
 4282 0c60 2E637964 		.ascii	".cydsn\000"
 4282      736E00
 4283              	.LASF191:
 4284 0c67 4359424C 		.ascii	"CYBLE_EVT_GATTC_INDICATION\000"
 4284      455F4556 
 4284      545F4741 
 4284      5454435F 
 4284      494E4449 
 4285              	.LASF356:
 4286 0c82 4359424C 		.ascii	"CYBLE_EVT_SCPSS_NOTIFICATION_ENABLED\000"
 4286      455F4556 
 4286      545F5343 
 4286      5053535F 
 4286      4E4F5449 
 4287              	.LASF63:
 4288 0ca7 4359424C 		.ascii	"CYBLE_EVT_L2CAP_CBFC_DISCONN_CNF\000"
 4288      455F4556 
 4288      545F4C32 
 4288      4341505F 
 4288      43424643 
 4289              	.LASF43:
 4290 0cc8 4359424C 		.ascii	"CYBLE_EVT_GATTC_FIND_BY_TYPE_VALUE_RSP\000"
 4290      455F4556 
 4290      545F4741 
 4290      5454435F 
 4290      46494E44 
 4291              	.LASF361:
 4292 0cef 4359424C 		.ascii	"CYBLE_EVT_SCPSC_WRITE_DESCR_RESPONSE\000"
 4292      455F4556 
 4292      545F5343 
ARM GAS  C:\Users\Zachary\AppData\Local\Temp\ccv8jLse.s 			page 95


 4292      5053435F 
 4292      57524954 
 4293              	.LASF14:
 4294 0d14 63686172 		.ascii	"char\000"
 4294      00
 4295              	.LASF364:
 4296 0d19 4359424C 		.ascii	"CYBLE_EVT_TPSC_NOTIFICATION\000"
 4296      455F4556 
 4296      545F5450 
 4296      53435F4E 
 4296      4F544946 
 4297              	.LASF200:
 4298 0d35 4359424C 		.ascii	"CYBLE_EVT_GATTC_INCL_DISCOVERY_COMPLETE\000"
 4298      455F4556 
 4298      545F4741 
 4298      5454435F 
 4298      494E434C 
 4299              	.LASF46:
 4300 0d5d 4359424C 		.ascii	"CYBLE_EVT_GATTC_READ_MULTI_RSP\000"
 4300      455F4556 
 4300      545F4741 
 4300      5454435F 
 4300      52454144 
 4301              	.LASF16:
 4302 0d7c 4359424C 		.ascii	"CYBLE_EVT_HOST_INVALID\000"
 4302      455F4556 
 4302      545F484F 
 4302      53545F49 
 4302      4E56414C 
 4303              	.LASF116:
 4304 0d93 4359424C 		.ascii	"CYBLE_GATT_ERR_UNLIKELY_ERROR\000"
 4304      455F4741 
 4304      54545F45 
 4304      52525F55 
 4304      4E4C494B 
 4305              	.LASF283:
 4306 0db1 4359424C 		.ascii	"CYBLE_EVT_GLSC_READ_DESCR_RESPONSE\000"
 4306      455F4556 
 4306      545F474C 
 4306      53435F52 
 4306      4541445F 
 4307              	.LASF77:
 4308 0dd4 4359424C 		.ascii	"CYBLE_ERROR_NO_DEVICE_ENTITY\000"
 4308      455F4552 
 4308      524F525F 
 4308      4E4F5F44 
 4308      45564943 
 4309              	.LASF45:
 4310 0df1 4359424C 		.ascii	"CYBLE_EVT_GATTC_READ_BLOB_RSP\000"
 4310      455F4556 
 4310      545F4741 
 4310      5454435F 
 4310      52454144 
 4311              	.LASF308:
 4312 0e0f 4359424C 		.ascii	"CYBLE_EVT_HTSS_INDICATION_DISABLED\000"
 4312      455F4556 
 4312      545F4854 
ARM GAS  C:\Users\Zachary\AppData\Local\Temp\ccv8jLse.s 			page 96


 4312      53535F49 
 4312      4E444943 
 4313              	.LASF355:
 4314 0e32 4359424C 		.ascii	"CYBLE_EVT_RTUSC_READ_CHAR_RESPONSE\000"
 4314      455F4556 
 4314      545F5254 
 4314      5553435F 
 4314      52454144 
 4315              	.LASF52:
 4316 0e55 4359424C 		.ascii	"CYBLE_EVT_GATTC_EXEC_WRITE_RSP\000"
 4316      455F4556 
 4316      545F4741 
 4316      5454435F 
 4316      45584543 
 4317              	.LASF120:
 4318 0e74 4359424C 		.ascii	"CYBLE_GATT_ERR_HEART_RATE_CONTROL_POINT_NOT_SUPPORT"
 4318      455F4741 
 4318      54545F45 
 4318      52525F48 
 4318      45415254 
 4319 0ea7 454400   		.ascii	"ED\000"
 4320              	.LASF113:
 4321 0eaa 4359424C 		.ascii	"CYBLE_GATT_ERR_ATTRIBUTE_NOT_LONG\000"
 4321      455F4741 
 4321      54545F45 
 4321      52525F41 
 4321      54545249 
 4322              	.LASF271:
 4323 0ecc 4359424C 		.ascii	"CYBLE_EVT_CTSC_WRITE_DESCR_RESPONSE\000"
 4323      455F4556 
 4323      545F4354 
 4323      53435F57 
 4323      52495445 
 4324              	.LASF369:
 4325 0ef0 4359424C 		.ascii	"CYBLE_EVT_UDSS_INDICATION_DISABLED\000"
 4325      455F4556 
 4325      545F5544 
 4325      53535F49 
 4325      4E444943 
 4326              	.LASF162:
 4327 0f13 4359424C 		.ascii	"CYBLE_DIS_SOFTWARE_REV\000"
 4327      455F4449 
 4327      535F534F 
 4327      46545741 
 4327      52455F52 
 4328              	.LASF246:
 4329 0f2a 4359424C 		.ascii	"CYBLE_EVT_CPSS_CHAR_WRITE\000"
 4329      455F4556 
 4329      545F4350 
 4329      53535F43 
 4329      4841525F 
 4330              	.LASF297:
 4331 0f44 4359424C 		.ascii	"CYBLE_EVT_HRSS_ENERGY_EXPENDED_RESET\000"
 4331      455F4556 
 4331      545F4852 
 4331      53535F45 
 4331      4E455247 
ARM GAS  C:\Users\Zachary\AppData\Local\Temp\ccv8jLse.s 			page 97


 4332              	.LASF158:
 4333 0f69 4359424C 		.ascii	"CYBLE_DIS_MODEL_NUMBER\000"
 4333      455F4449 
 4333      535F4D4F 
 4333      44454C5F 
 4333      4E554D42 
 4334              	.LASF155:
 4335 0f80 4359424C 		.ascii	"CYBLE_GATTS_DB_T\000"
 4335      455F4741 
 4335      5454535F 
 4335      44425F54 
 4335      00
 4336              	.LASF220:
 4337 0f91 4359424C 		.ascii	"CYBLE_EVT_BLSS_NOTIFICATION_ENABLED\000"
 4337      455F4556 
 4337      545F424C 
 4337      53535F4E 
 4337      4F544946 
 4338              	.LASF163:
 4339 0fb5 4359424C 		.ascii	"CYBLE_DIS_SYSTEM_ID\000"
 4339      455F4449 
 4339      535F5359 
 4339      5354454D 
 4339      5F494400 
 4340              	.LASF71:
 4341 0fc9 4359424C 		.ascii	"CYBLE_ERROR_INVALID_PARAMETER\000"
 4341      455F4552 
 4341      524F525F 
 4341      494E5641 
 4341      4C49445F 
 4342              	.LASF403:
 4343 0fe7 6C6F6341 		.ascii	"locAttrValue\000"
 4343      74747256 
 4343      616C7565 
 4343      00
 4344              	.LASF351:
 4345 0ff4 4359424C 		.ascii	"CYBLE_EVT_RSCSC_WRITE_CHAR_RESPONSE\000"
 4345      455F4556 
 4345      545F5253 
 4345      4353435F 
 4345      57524954 
 4346              	.LASF367:
 4347 1018 4359424C 		.ascii	"CYBLE_EVT_TPSC_WRITE_DESCR_RESPONSE\000"
 4347      455F4556 
 4347      545F5450 
 4347      53435F57 
 4347      52495445 
 4348              	.LASF255:
 4349 103c 4359424C 		.ascii	"CYBLE_EVT_CSCSS_NOTIFICATION_DISABLED\000"
 4349      455F4556 
 4349      545F4353 
 4349      4353535F 
 4349      4E4F5449 
 4350              	.LASF266:
 4351 1062 4359424C 		.ascii	"CYBLE_EVT_CTSS_NOTIFICATION_ENABLED\000"
 4351      455F4556 
 4351      545F4354 
ARM GAS  C:\Users\Zachary\AppData\Local\Temp\ccv8jLse.s 			page 98


 4351      53535F4E 
 4351      4F544946 
 4352              	.LASF345:
 4353 1086 4359424C 		.ascii	"CYBLE_EVT_RSCSS_INDICATION_DISABLED\000"
 4353      455F4556 
 4353      545F5253 
 4353      4353535F 
 4353      494E4449 
 4354              	.LASF394:
 4355 10aa 4379426C 		.ascii	"CyBle_HtssSetCharacteristicDescriptor\000"
 4355      655F4874 
 4355      73735365 
 4355      74436861 
 4355      72616374 
 4356              	.LASF96:
 4357 10d0 4359424C 		.ascii	"CYBLE_DESCR_DISC_DONE\000"
 4357      455F4445 
 4357      5343525F 
 4357      44495343 
 4357      5F444F4E 
 4358              	.LASF318:
 4359 10e6 4359424C 		.ascii	"CYBLE_EVT_LLSS_WRITE_CHAR_REQ\000"
 4359      455F4556 
 4359      545F4C4C 
 4359      53535F57 
 4359      52495445 
 4360              	.LASF73:
 4361 1104 4359424C 		.ascii	"CYBLE_ERROR_MEMORY_ALLOCATION_FAILED\000"
 4361      455F4552 
 4361      524F525F 
 4361      4D454D4F 
 4361      52595F41 
 4362              	.LASF303:
 4363 1129 4359424C 		.ascii	"CYBLE_EVT_HRSC_READ_DESCR_RESPONSE\000"
 4363      455F4556 
 4363      545F4852 
 4363      53435F52 
 4363      4541445F 
 4364              	.LASF179:
 4365 114c 4359424C 		.ascii	"CYBLE_HTSS_CHAR_T\000"
 4365      455F4854 
 4365      53535F43 
 4365      4841525F 
 4365      5400
 4366              	.LASF254:
 4367 115e 4359424C 		.ascii	"CYBLE_EVT_CSCSS_NOTIFICATION_ENABLED\000"
 4367      455F4556 
 4367      545F4353 
 4367      4353535F 
 4367      4E4F5449 
 4368              	.LASF389:
 4369 1183 61747472 		.ascii	"attrValue\000"
 4369      56616C75 
 4369      6500
 4370              	.LASF222:
 4371 118d 4359424C 		.ascii	"CYBLE_EVT_BLSC_INDICATION\000"
 4371      455F4556 
ARM GAS  C:\Users\Zachary\AppData\Local\Temp\ccv8jLse.s 			page 99


 4371      545F424C 
 4371      53435F49 
 4371      4E444943 
 4372              	.LASF291:
 4373 11a7 4359424C 		.ascii	"CYBLE_EVT_HIDSS_REPORT_CHAR_WRITE\000"
 4373      455F4556 
 4373      545F4849 
 4373      4453535F 
 4373      5245504F 
 4374              	.LASF125:
 4375 11c9 4359424C 		.ascii	"CYBLE_GATTS_ERR_CCCD_IMPROPERLY_CONFIGURED\000"
 4375      455F4741 
 4375      5454535F 
 4375      4552525F 
 4375      43434344 
 4376              	.LASF93:
 4377 11f4 4359424C 		.ascii	"CYBLE_ERROR_MAX\000"
 4377      455F4552 
 4377      524F525F 
 4377      4D415800 
 4378              	.LASF330:
 4379 1204 4359424C 		.ascii	"CYBLE_EVT_LNSC_WRITE_CHAR_RESPONSE\000"
 4379      455F4556 
 4379      545F4C4E 
 4379      53435F57 
 4379      52495445 
 4380              	.LASF58:
 4381 1227 4359424C 		.ascii	"CYBLE_EVT_L2CAP_CONN_PARAM_UPDATE_RSP\000"
 4381      455F4556 
 4381      545F4C32 
 4381      4341505F 
 4381      434F4E4E 
 4382              	.LASF419:
 4383 124d 2E5C4765 		.ascii	".\\Generated_Source\\PSoC4\\BLE_hts.c\000"
 4383      6E657261 
 4383      7465645F 
 4383      536F7572 
 4383      63655C50 
 4384              	.LASF208:
 4385 1270 4359424C 		.ascii	"CYBLE_EVT_ANSC_WRITE_CHAR_RESPONSE\000"
 4385      455F4556 
 4385      545F414E 
 4385      53435F57 
 4385      52495445 
 4386              	.LASF372:
 4387 1293 4359424C 		.ascii	"CYBLE_EVT_UDSS_NOTIFICATION_DISABLED\000"
 4387      455F4556 
 4387      545F5544 
 4387      53535F4E 
 4387      4F544946 
 4388              	.LASF373:
 4389 12b8 4359424C 		.ascii	"CYBLE_EVT_UDSS_WRITE_CHAR\000"
 4389      455F4556 
 4389      545F5544 
 4389      53535F57 
 4389      52495445 
 4390              	.LASF298:
ARM GAS  C:\Users\Zachary\AppData\Local\Temp\ccv8jLse.s 			page 100


 4391 12d2 4359424C 		.ascii	"CYBLE_EVT_HRSS_NOTIFICATION_ENABLED\000"
 4391      455F4556 
 4391      545F4852 
 4391      53535F4E 
 4391      4F544946 
 4392              	.LASF121:
 4393 12f6 4359424C 		.ascii	"CYBLE_GATT_ERR_USER_DATA_ACCESS_NOT_PERMITTED\000"
 4393      455F4741 
 4393      54545F45 
 4393      52525F55 
 4393      5345525F 
 4394              	.LASF411:
 4395 1324 4379426C 		.ascii	"CyBle_HtssConfirmationEventHandler\000"
 4395      655F4874 
 4395      7373436F 
 4395      6E666972 
 4395      6D617469 
 4396              	.LASF26:
 4397 1347 4359424C 		.ascii	"CYBLE_EVT_GAP_AUTH_COMPLETE\000"
 4397      455F4556 
 4397      545F4741 
 4397      505F4155 
 4397      54485F43 
 4398              	.LASF340:
 4399 1363 4359424C 		.ascii	"CYBLE_EVT_PASSC_READ_DESCR_RESPONSE\000"
 4399      455F4556 
 4399      545F5041 
 4399      5353435F 
 4399      52454144 
 4400              	.LASF27:
 4401 1387 4359424C 		.ascii	"CYBLE_EVT_GAP_AUTH_FAILED\000"
 4401      455F4556 
 4401      545F4741 
 4401      505F4155 
 4401      54485F46 
 4402              	.LASF290:
 4403 13a1 4359424C 		.ascii	"CYBLE_EVT_HIDSS_EXIT_SUSPEND\000"
 4403      455F4556 
 4403      545F4849 
 4403      4453535F 
 4403      45584954 
 4404              	.LASF94:
 4405 13be 4359424C 		.ascii	"CYBLE_INCL_DISC_DONE\000"
 4405      455F494E 
 4405      434C5F44 
 4405      4953435F 
 4405      444F4E45 
 4406              	.LASF127:
 4407 13d3 4359424C 		.ascii	"CYBLE_GATT_ERR_CCCD_IMPROPERLY_CONFIGURED\000"
 4407      455F4741 
 4407      54545F45 
 4407      52525F43 
 4407      4343445F 
 4408              	.LASF74:
 4409 13fd 4359424C 		.ascii	"CYBLE_ERROR_INSUFFICIENT_RESOURCES\000"
 4409      455F4552 
 4409      524F525F 
ARM GAS  C:\Users\Zachary\AppData\Local\Temp\ccv8jLse.s 			page 101


 4409      494E5355 
 4409      46464943 
 4410              	.LASF343:
 4411 1420 4359424C 		.ascii	"CYBLE_EVT_RSCSS_NOTIFICATION_DISABLED\000"
 4411      455F4556 
 4411      545F5253 
 4411      4353535F 
 4411      4E4F5449 
 4412              	.LASF294:
 4413 1446 4359424C 		.ascii	"CYBLE_EVT_HIDSC_WRITE_CHAR_RESPONSE\000"
 4413      455F4556 
 4413      545F4849 
 4413      4453435F 
 4413      57524954 
 4414              	.LASF5:
 4415 146a 6C6F6E67 		.ascii	"long unsigned int\000"
 4415      20756E73 
 4415      69676E65 
 4415      6420696E 
 4415      7400
 4416              	.LASF317:
 4417 147c 4359424C 		.ascii	"CYBLE_EVT_IASS_WRITE_CHAR_CMD\000"
 4417      455F4556 
 4417      545F4941 
 4417      53535F57 
 4417      52495445 
 4418              	.LASF391:
 4419 149a 6C6F6348 		.ascii	"locHandleValuePair\000"
 4419      616E646C 
 4419      6556616C 
 4419      75655061 
 4419      697200
 4420              	.LASF334:
 4421 14ad 4359424C 		.ascii	"CYBLE_EVT_PASSS_NOTIFICATION_ENABLED\000"
 4421      455F4556 
 4421      545F5041 
 4421      5353535F 
 4421      4E4F5449 
 4422              	.LASF337:
 4423 14d2 4359424C 		.ascii	"CYBLE_EVT_PASSC_NOTIFICATION\000"
 4423      455F4556 
 4423      545F5041 
 4423      5353435F 
 4423      4E4F5449 
 4424              	.LASF207:
 4425 14ef 4359424C 		.ascii	"CYBLE_EVT_ANSC_READ_CHAR_RESPONSE\000"
 4425      455F4556 
 4425      545F414E 
 4425      53435F52 
 4425      4541445F 
 4426              	.LASF84:
 4427 1511 4359424C 		.ascii	"CYBLE_ERROR_L2CAP_PSM_ALREADY_REGISTERED\000"
 4427      455F4552 
 4427      524F525F 
 4427      4C324341 
 4427      505F5053 
 4428              	.LASF310:
ARM GAS  C:\Users\Zachary\AppData\Local\Temp\ccv8jLse.s 			page 102


 4429 153a 4359424C 		.ascii	"CYBLE_EVT_HTSS_CHAR_WRITE\000"
 4429      455F4556 
 4429      545F4854 
 4429      53535F43 
 4429      4841525F 
 4430              	.LASF148:
 4431 1554 61747456 		.ascii	"attValueUuid\000"
 4431      616C7565 
 4431      55756964 
 4431      00
 4432              	.LASF211:
 4433 1561 4359424C 		.ascii	"CYBLE_EVT_BASS_NOTIFICATION_ENABLED\000"
 4433      455F4556 
 4433      545F4241 
 4433      53535F4E 
 4433      4F544946 
 4434              	.LASF336:
 4435 1585 4359424C 		.ascii	"CYBLE_EVT_PASSS_WRITE_CHAR\000"
 4435      455F4556 
 4435      545F5041 
 4435      5353535F 
 4435      57524954 
 4436              	.LASF250:
 4437 15a0 4359424C 		.ascii	"CYBLE_EVT_CPSC_WRITE_CHAR_RESPONSE\000"
 4437      455F4556 
 4437      545F4350 
 4437      53435F57 
 4437      52495445 
 4438              	.LASF159:
 4439 15c3 4359424C 		.ascii	"CYBLE_DIS_SERIAL_NUMBER\000"
 4439      455F4449 
 4439      535F5345 
 4439      5249414C 
 4439      5F4E554D 
 4440              	.LASF170:
 4441 15db 4359424C 		.ascii	"CYBLE_HTS_MEASURE_INTERVAL\000"
 4441      455F4854 
 4441      535F4D45 
 4441      41535552 
 4441      455F494E 
 4442              	.LASF32:
 4443 15f6 4359424C 		.ascii	"CYBLE_EVT_GAP_CONNECTION_UPDATE_COMPLETE\000"
 4443      455F4556 
 4443      545F4741 
 4443      505F434F 
 4443      4E4E4543 
 4444              	.LASF235:
 4445 161f 4359424C 		.ascii	"CYBLE_EVT_CGMSC_READ_CHAR_RESPONSE\000"
 4445      455F4556 
 4445      545F4347 
 4445      4D53435F 
 4445      52454144 
 4446              	.LASF382:
 4447 1642 4359424C 		.ascii	"CYBLE_STATE_INITIALIZING\000"
 4447      455F5354 
 4447      4154455F 
 4447      494E4954 
ARM GAS  C:\Users\Zachary\AppData\Local\Temp\ccv8jLse.s 			page 103


 4447      49414C49 
 4448              	.LASF172:
 4449 165b 4359424C 		.ascii	"CYBLE_HTS_CHAR_INDEX_T\000"
 4449      455F4854 
 4449      535F4348 
 4449      41525F49 
 4449      4E444558 
 4450              	.LASF263:
 4451 1672 4359424C 		.ascii	"CYBLE_EVT_CSCSC_WRITE_CHAR_RESPONSE\000"
 4451      455F4556 
 4451      545F4353 
 4451      4353435F 
 4451      57524954 
 4452              	.LASF62:
 4453 1696 4359424C 		.ascii	"CYBLE_EVT_L2CAP_CBFC_DISCONN_IND\000"
 4453      455F4556 
 4453      545F4C32 
 4453      4341505F 
 4453      43424643 
 4454              	.LASF259:
 4455 16b7 4359424C 		.ascii	"CYBLE_EVT_CSCSS_CHAR_WRITE\000"
 4455      455F4556 
 4455      545F4353 
 4455      4353535F 
 4455      43484152 
 4456              	.LASF404:
 4457 16d2 72657175 		.ascii	"requestValue\000"
 4457      65737456 
 4457      616C7565 
 4457      00
 4458              	.LASF24:
 4459 16df 4359424C 		.ascii	"CYBLE_EVT_GAP_PASSKEY_ENTRY_REQUEST\000"
 4459      455F4556 
 4459      545F4741 
 4459      505F5041 
 4459      53534B45 
 4460              	.LASF325:
 4461 1703 4359424C 		.ascii	"CYBLE_EVT_LNSS_NOTIFICATION_DISABLED\000"
 4461      455F4556 
 4461      545F4C4E 
 4461      53535F4E 
 4461      4F544946 
 4462              	.LASF244:
 4463 1728 4359424C 		.ascii	"CYBLE_EVT_CPSS_BROADCAST_ENABLED\000"
 4463      455F4556 
 4463      545F4350 
 4463      53535F42 
 4463      524F4144 
 4464              	.LASF281:
 4465 1749 4359424C 		.ascii	"CYBLE_EVT_GLSC_READ_CHAR_RESPONSE\000"
 4465      455F4556 
 4465      545F474C 
 4465      53435F52 
 4465      4541445F 
 4466              	.LASF311:
 4467 176b 4359424C 		.ascii	"CYBLE_EVT_HTSC_NOTIFICATION\000"
 4467      455F4556 
ARM GAS  C:\Users\Zachary\AppData\Local\Temp\ccv8jLse.s 			page 104


 4467      545F4854 
 4467      53435F4E 
 4467      4F544946 
 4468              	.LASF6:
 4469 1787 6C6F6E67 		.ascii	"long long int\000"
 4469      206C6F6E 
 4469      6720696E 
 4469      7400
 4470              	.LASF365:
 4471 1795 4359424C 		.ascii	"CYBLE_EVT_TPSC_READ_CHAR_RESPONSE\000"
 4471      455F4556 
 4471      545F5450 
 4471      53435F52 
 4471      4541445F 
 4472              	.LASF165:
 4473 17b7 4359424C 		.ascii	"CYBLE_DIS_PNP_ID\000"
 4473      455F4449 
 4473      535F504E 
 4473      505F4944 
 4473      00
 4474              	.LASF197:
 4475 17c8 4359424C 		.ascii	"CYBLE_EVT_GATTC_CHAR_DUPLICATION\000"
 4475      455F4556 
 4475      545F4741 
 4475      5454435F 
 4475      43484152 
 4476              	.LASF276:
 4477 17e9 4359424C 		.ascii	"CYBLE_EVT_GLSS_NOTIFICATION_ENABLED\000"
 4477      455F4556 
 4477      545F474C 
 4477      53535F4E 
 4477      4F544946 
 4478              	.LASF111:
 4479 180d 4359424C 		.ascii	"CYBLE_GATT_ERR_PREPARE_WRITE_QUEUE_FULL\000"
 4479      455F4741 
 4479      54545F45 
 4479      52525F50 
 4479      52455041 
 4480              	.LASF85:
 4481 1835 4359424C 		.ascii	"CYBLE_ERROR_L2CAP_PSM_NOT_REGISTERED\000"
 4481      455F4552 
 4481      524F525F 
 4481      4C324341 
 4481      505F5053 
 4482              	.LASF75:
 4483 185a 4359424C 		.ascii	"CYBLE_ERROR_OOB_NOT_AVAILABLE\000"
 4483      455F4552 
 4483      524F525F 
 4483      4F4F425F 
 4483      4E4F545F 
 4484              	.LASF227:
 4485 1878 4359424C 		.ascii	"CYBLE_EVT_CGMSS_INDICATION_ENABLED\000"
 4485      455F4556 
 4485      545F4347 
 4485      4D53535F 
 4485      494E4449 
 4486              	.LASF405:
ARM GAS  C:\Users\Zachary\AppData\Local\Temp\ccv8jLse.s 			page 105


 4487 189b 6C6F7765 		.ascii	"lowerValue\000"
 4487      7256616C 
 4487      756500
 4488              	.LASF13:
 4489 18a6 646F7562 		.ascii	"double\000"
 4489      6C6500
 4490              	.LASF90:
 4491 18ad 4359424C 		.ascii	"CYBLE_ERROR_DEVICE_ALREADY_EXISTS\000"
 4491      455F4552 
 4491      524F525F 
 4491      44455649 
 4491      43455F41 
 4492              	.LASF68:
 4493 18cf 4359424C 		.ascii	"CYBLE_EVT_PENDING_FLASH_WRITE\000"
 4493      455F4556 
 4493      545F5045 
 4493      4E44494E 
 4493      475F464C 
 4494              	.LASF114:
 4495 18ed 4359424C 		.ascii	"CYBLE_GATT_ERR_INSUFFICIENT_ENC_KEY_SIZE\000"
 4495      455F4741 
 4495      54545F45 
 4495      52525F49 
 4495      4E535546 
 4496              	.LASF128:
 4497 1916 4359424C 		.ascii	"CYBLE_GATT_ERR_PROCEDURE_ALREADY_IN_PROGRESS\000"
 4497      455F4741 
 4497      54545F45 
 4497      52525F50 
 4497      524F4345 
 4498              	.LASF332:
 4499 1943 4359424C 		.ascii	"CYBLE_EVT_LNSC_WRITE_DESCR_RESPONSE\000"
 4499      455F4556 
 4499      545F4C4E 
 4499      53435F57 
 4499      52495445 
 4500              	.LASF319:
 4501 1967 4359424C 		.ascii	"CYBLE_EVT_LLSC_READ_CHAR_RESPONSE\000"
 4501      455F4556 
 4501      545F4C4C 
 4501      53435F52 
 4501      4541445F 
 4502              	.LASF258:
 4503 1989 4359424C 		.ascii	"CYBLE_EVT_CSCSS_INDICATION_CONFIRMATION\000"
 4503      455F4556 
 4503      545F4353 
 4503      4353535F 
 4503      494E4449 
 4504              	.LASF87:
 4505 19b1 4359424C 		.ascii	"CYBLE_ERROR_L2CAP_CHANNEL_NOT_FOUND\000"
 4505      455F4552 
 4505      524F525F 
 4505      4C324341 
 4505      505F4348 
 4506              	.LASF415:
 4507 19d5 6379426C 		.ascii	"cyBle_gattDB\000"
 4507      655F6761 
ARM GAS  C:\Users\Zachary\AppData\Local\Temp\ccv8jLse.s 			page 106


 4507      74744442 
 4507      00
 4508              	.LASF78:
 4509 19e2 4359424C 		.ascii	"CYBLE_ERROR_REPEATED_ATTEMPTS\000"
 4509      455F4552 
 4509      524F525F 
 4509      52455045 
 4509      41544544 
 4510              	.LASF12:
 4511 1a00 666C6F61 		.ascii	"float\000"
 4511      7400
 4512              	.LASF359:
 4513 1a06 4359424C 		.ascii	"CYBLE_EVT_SCPSC_NOTIFICATION\000"
 4513      455F4556 
 4513      545F5343 
 4513      5053435F 
 4513      4E4F5449 
 4514              	.LASF288:
 4515 1a23 4359424C 		.ascii	"CYBLE_EVT_HIDSS_REPORT_MODE_ENTER\000"
 4515      455F4556 
 4515      545F4849 
 4515      4453535F 
 4515      5245504F 
 4516              	.LASF91:
 4517 1a45 4359424C 		.ascii	"CYBLE_ERROR_FLASH_WRITE_NOT_PERMITED\000"
 4517      455F4552 
 4517      524F525F 
 4517      464C4153 
 4517      485F5752 
 4518              	.LASF286:
 4519 1a6a 4359424C 		.ascii	"CYBLE_EVT_HIDSS_NOTIFICATION_DISABLED\000"
 4519      455F4556 
 4519      545F4849 
 4519      4453535F 
 4519      4E4F5449 
 4520              	.LASF397:
 4521 1a90 4379426C 		.ascii	"CyBle_HtssWriteEventHandler\000"
 4521      655F4874 
 4521      73735772 
 4521      69746545 
 4521      76656E74 
 4522              	.LASF396:
 4523 1aac 4379426C 		.ascii	"CyBle_HtssGetCharacteristicDescriptor\000"
 4523      655F4874 
 4523      73734765 
 4523      74436861 
 4523      72616374 
 4524              	.LASF110:
 4525 1ad2 4359424C 		.ascii	"CYBLE_GATT_ERR_INSUFFICIENT_AUTHORIZATION\000"
 4525      455F4741 
 4525      54545F45 
 4525      52525F49 
 4525      4E535546 
 4526              	.LASF395:
 4527 1afc 64657363 		.ascii	"descrIndex\000"
 4527      72496E64 
 4527      657800
ARM GAS  C:\Users\Zachary\AppData\Local\Temp\ccv8jLse.s 			page 107


 4528              	.LASF138:
 4529 1b07 61747472 		.ascii	"attrHandle\000"
 4529      48616E64 
 4529      6C6500
 4530              	.LASF375:
 4531 1b12 4359424C 		.ascii	"CYBLE_EVT_UDSC_NOTIFICATION\000"
 4531      455F4556 
 4531      545F5544 
 4531      53435F4E 
 4531      4F544946 
 4532              	.LASF143:
 4533 1b2e 4359424C 		.ascii	"CYBLE_GATTS_WRITE_REQ_PARAM_T\000"
 4533      455F4741 
 4533      5454535F 
 4533      57524954 
 4533      455F5245 
 4534              	.LASF8:
 4535 1b4c 756E7369 		.ascii	"unsigned int\000"
 4535      676E6564 
 4535      20696E74 
 4535      00
 4536              	.LASF50:
 4537 1b59 4359424C 		.ascii	"CYBLE_EVT_GATTS_PREP_WRITE_REQ\000"
 4537      455F4556 
 4537      545F4741 
 4537      5454535F 
 4537      50524550 
 4538              	.LASF153:
 4539 1b78 61747445 		.ascii	"attEndHandle\000"
 4539      6E644861 
 4539      6E646C65 
 4539      00
 4540              	.LASF107:
 4541 1b85 4359424C 		.ascii	"CYBLE_GATT_ERR_INSUFFICIENT_AUTHENTICATION\000"
 4541      455F4741 
 4541      54545F45 
 4541      52525F49 
 4541      4E535546 
 4542              	.LASF267:
 4543 1bb0 4359424C 		.ascii	"CYBLE_EVT_CTSS_NOTIFICATION_DISABLED\000"
 4543      455F4556 
 4543      545F4354 
 4543      53535F4E 
 4543      4F544946 
 4544              	.LASF218:
 4545 1bd5 4359424C 		.ascii	"CYBLE_EVT_BLSS_INDICATION_DISABLED\000"
 4545      455F4556 
 4545      545F424C 
 4545      53535F49 
 4545      4E444943 
 4546              	.LASF164:
 4547 1bf8 4359424C 		.ascii	"CYBLE_DIS_REG_CERT_DATA\000"
 4547      455F4449 
 4547      535F5245 
 4547      475F4345 
 4547      52545F44 
 4548              	.LASF357:
ARM GAS  C:\Users\Zachary\AppData\Local\Temp\ccv8jLse.s 			page 108


 4549 1c10 4359424C 		.ascii	"CYBLE_EVT_SCPSS_NOTIFICATION_DISABLED\000"
 4549      455F4556 
 4549      545F5343 
 4549      5053535F 
 4549      4E4F5449 
 4550              	.LASF418:
 4551 1c36 474E5520 		.ascii	"GNU C 4.8.4 20140526 (release) [ARM/embedded-4_8-br"
 4551      4320342E 
 4551      382E3420 
 4551      32303134 
 4551      30353236 
 4552 1c69 616E6368 		.ascii	"anch revision 211358] -mcpu=cortex-m0 -mthumb -g -O"
 4552      20726576 
 4552      6973696F 
 4552      6E203231 
 4552      31333538 
 4553 1c9c 30202D66 		.ascii	"0 -ffunction-sections\000"
 4553      66756E63 
 4553      74696F6E 
 4553      2D736563 
 4553      74696F6E 
 4554              	.LASF124:
 4555 1cb2 4359424C 		.ascii	"CYBLE_GATTS_ERR_PROCEDURE_ALREADY_IN_PROGRESS\000"
 4555      455F4741 
 4555      5454535F 
 4555      4552525F 
 4555      50524F43 
 4556              	.LASF388:
 4557 1ce0 61747472 		.ascii	"attrSize\000"
 4557      53697A65 
 4557      00
 4558              	.LASF185:
 4559 1ce9 4359424C 		.ascii	"CYBLE_AUTHENTICATION_REQUEST_REPLY\000"
 4559      455F4155 
 4559      5448454E 
 4559      54494341 
 4559      54494F4E 
 4560              	.LASF83:
 4561 1d0c 4359424C 		.ascii	"CYBLE_ERROR_L2CAP_PSM_WRONG_ENCODING\000"
 4561      455F4552 
 4561      524F525F 
 4561      4C324341 
 4561      505F5053 
 4562              	.LASF221:
 4563 1d31 4359424C 		.ascii	"CYBLE_EVT_BLSS_NOTIFICATION_DISABLED\000"
 4563      455F4556 
 4563      545F424C 
 4563      53535F4E 
 4563      4F544946 
 4564              	.LASF112:
 4565 1d56 4359424C 		.ascii	"CYBLE_GATT_ERR_ATTRIBUTE_NOT_FOUND\000"
 4565      455F4741 
 4565      54545F45 
 4565      52525F41 
 4565      54545249 
 4566              	.LASF314:
 4567 1d79 4359424C 		.ascii	"CYBLE_EVT_HTSC_WRITE_CHAR_RESPONSE\000"
ARM GAS  C:\Users\Zachary\AppData\Local\Temp\ccv8jLse.s 			page 109


 4567      455F4556 
 4567      545F4854 
 4567      53435F57 
 4567      52495445 
 4568              	.LASF69:
 4569 1d9c 4359424C 		.ascii	"CYBLE_EVT_MAX\000"
 4569      455F4556 
 4569      545F4D41 
 4569      5800
 4570              	.LASF33:
 4571 1daa 4359424C 		.ascii	"CYBLE_EVT_GAPC_SCAN_START_STOP\000"
 4571      455F4556 
 4571      545F4741 
 4571      50435F53 
 4571      43414E5F 
 4572              	.LASF203:
 4573 1dc9 4359424C 		.ascii	"CYBLE_EVT_ANSS_NOTIFICATION_ENABLED\000"
 4573      455F4556 
 4573      545F414E 
 4573      53535F4E 
 4573      4F544946 
 4574              	.LASF47:
 4575 1ded 4359424C 		.ascii	"CYBLE_EVT_GATTS_WRITE_REQ\000"
 4575      455F4556 
 4575      545F4741 
 4575      5454535F 
 4575      57524954 
 4576              	.LASF377:
 4577 1e07 4359424C 		.ascii	"CYBLE_EVT_UDSC_WRITE_CHAR_RESPONSE\000"
 4577      455F4556 
 4577      545F5544 
 4577      53435F57 
 4577      52495445 
 4578              	.LASF25:
 4579 1e2a 4359424C 		.ascii	"CYBLE_EVT_GAP_PASSKEY_DISPLAY_REQUEST\000"
 4579      455F4556 
 4579      545F4741 
 4579      505F5041 
 4579      53534B45 
 4580              	.LASF98:
 4581 1e50 4359424C 		.ascii	"CYBLE_ERROR_IND_DISABLED\000"
 4581      455F4552 
 4581      524F525F 
 4581      494E445F 
 4581      44495341 
 4582              	.LASF97:
 4583 1e69 4359424C 		.ascii	"CYBLE_ERROR_NTF_DISABLED\000"
 4583      455F4552 
 4583      524F525F 
 4583      4E54465F 
 4583      44495341 
 4584              	.LASF410:
 4585 1e82 4379426C 		.ascii	"CyBle_HtsRegisterAttrCallback\000"
 4585      655F4874 
 4585      73526567 
 4585      69737465 
 4585      72417474 
ARM GAS  C:\Users\Zachary\AppData\Local\Temp\ccv8jLse.s 			page 110


 4586              	.LASF44:
 4587 1ea0 4359424C 		.ascii	"CYBLE_EVT_GATTC_READ_RSP\000"
 4587      455F4556 
 4587      545F4741 
 4587      5454435F 
 4587      52454144 
 4588              	.LASF248:
 4589 1eb9 4359424C 		.ascii	"CYBLE_EVT_CPSC_INDICATION\000"
 4589      455F4556 
 4589      545F4350 
 4589      53435F49 
 4589      4E444943 
 4590              	.LASF109:
 4591 1ed3 4359424C 		.ascii	"CYBLE_GATT_ERR_INVALID_OFFSET\000"
 4591      455F4741 
 4591      54545F45 
 4591      52525F49 
 4591      4E56414C 
 4592              	.LASF272:
 4593 1ef1 4359424C 		.ascii	"CYBLE_EVT_DISC_READ_CHAR_RESPONSE\000"
 4593      455F4556 
 4593      545F4449 
 4593      53435F52 
 4593      4541445F 
 4594              	.LASF61:
 4595 1f13 4359424C 		.ascii	"CYBLE_EVT_L2CAP_CBFC_CONN_CNF\000"
 4595      455F4556 
 4595      545F4C32 
 4595      4341505F 
 4595      43424643 
 4596              	.LASF315:
 4597 1f31 4359424C 		.ascii	"CYBLE_EVT_HTSC_READ_DESCR_RESPONSE\000"
 4597      455F4556 
 4597      545F4854 
 4597      53435F52 
 4597      4541445F 
 4598              	.LASF380:
 4599 1f54 4359424C 		.ascii	"CYBLE_DEBUG_EVT_BLESS_INT\000"
 4599      455F4445 
 4599      4255475F 
 4599      4556545F 
 4599      424C4553 
 4600              	.LASF129:
 4601 1f6e 4359424C 		.ascii	"CYBLE_GATT_ERR_OUT_OF_RANGE\000"
 4601      455F4741 
 4601      54545F45 
 4601      52525F4F 
 4601      55545F4F 
 4602              	.LASF278:
 4603 1f8a 4359424C 		.ascii	"CYBLE_EVT_GLSS_WRITE_CHAR\000"
 4603      455F4556 
 4603      545F474C 
 4603      53535F57 
 4603      52495445 
 4604              	.LASF230:
 4605 1fa4 4359424C 		.ascii	"CYBLE_EVT_CGMSS_NOTIFICATION_ENABLED\000"
 4605      455F4556 
ARM GAS  C:\Users\Zachary\AppData\Local\Temp\ccv8jLse.s 			page 111


 4605      545F4347 
 4605      4D53535F 
 4605      4E4F5449 
 4606              	.LASF300:
 4607 1fc9 4359424C 		.ascii	"CYBLE_EVT_HRSC_NOTIFICATION\000"
 4607      455F4556 
 4607      545F4852 
 4607      53435F4E 
 4607      4F544946 
 4608              	.LASF402:
 4609 1fe5 6C6F6352 		.ascii	"locReqHandle\000"
 4609      65714861 
 4609      6E646C65 
 4609      00
 4610              	.LASF346:
 4611 1ff2 4359424C 		.ascii	"CYBLE_EVT_RSCSS_INDICATION_CONFIRMATION\000"
 4611      455F4556 
 4611      545F5253 
 4611      4353535F 
 4611      494E4449 
 4612              	.LASF295:
 4613 201a 4359424C 		.ascii	"CYBLE_EVT_HIDSC_READ_DESCR_RESPONSE\000"
 4613      455F4556 
 4613      545F4849 
 4613      4453435F 
 4613      52454144 
 4614              	.LASF176:
 4615 203e 4359424C 		.ascii	"CYBLE_HTS_DESCR_INDEX_T\000"
 4615      455F4854 
 4615      535F4445 
 4615      5343525F 
 4615      494E4445 
 4616              	.LASF301:
 4617 2056 4359424C 		.ascii	"CYBLE_EVT_HRSC_READ_CHAR_RESPONSE\000"
 4617      455F4556 
 4617      545F4852 
 4617      53435F52 
 4617      4541445F 
 4618              	.LASF31:
 4619 2078 4359424C 		.ascii	"CYBLE_EVT_GAP_ENCRYPT_CHANGE\000"
 4619      455F4556 
 4619      545F4741 
 4619      505F454E 
 4619      43525950 
 4620              	.LASF333:
 4621 2095 4359424C 		.ascii	"CYBLE_EVT_NDCSC_READ_CHAR_RESPONSE\000"
 4621      455F4556 
 4621      545F4E44 
 4621      4353435F 
 4621      52454144 
 4622              	.LASF198:
 4623 20b8 4359424C 		.ascii	"CYBLE_EVT_GATTC_DESCR_DUPLICATION\000"
 4623      455F4556 
 4623      545F4741 
 4623      5454435F 
 4623      44455343 
 4624              	.LASF171:
ARM GAS  C:\Users\Zachary\AppData\Local\Temp\ccv8jLse.s 			page 112


 4625 20da 4359424C 		.ascii	"CYBLE_HTS_CHAR_COUNT\000"
 4625      455F4854 
 4625      535F4348 
 4625      41525F43 
 4625      4F554E54 
 4626              	.LASF38:
 4627 20ef 4359424C 		.ascii	"CYBLE_EVT_GATTS_XCNHG_MTU_REQ\000"
 4627      455F4556 
 4627      545F4741 
 4627      5454535F 
 4627      58434E48 
 4628              	.LASF399:
 4629 210d 6C6F6343 		.ascii	"locCharIndex\000"
 4629      68617249 
 4629      6E646578 
 4629      00
 4630              	.LASF371:
 4631 211a 4359424C 		.ascii	"CYBLE_EVT_UDSS_NOTIFICATION_ENABLED\000"
 4631      455F4556 
 4631      545F5544 
 4631      53535F4E 
 4631      4F544946 
 4632              	.LASF323:
 4633 213e 4359424C 		.ascii	"CYBLE_EVT_LNSS_INDICATION_CONFIRMED\000"
 4633      455F4556 
 4633      545F4C4E 
 4633      53535F49 
 4633      4E444943 
 4634              	.LASF210:
 4635 2162 4359424C 		.ascii	"CYBLE_EVT_ANSC_WRITE_DESCR_RESPONSE\000"
 4635      455F4556 
 4635      545F414E 
 4635      53435F57 
 4635      52495445 
 4636              	.LASF329:
 4637 2186 4359424C 		.ascii	"CYBLE_EVT_LNSC_READ_CHAR_RESPONSE\000"
 4637      455F4556 
 4637      545F4C4E 
 4637      53435F52 
 4637      4541445F 
 4638              	.LASF157:
 4639 21a8 4359424C 		.ascii	"CYBLE_DIS_MANUFACTURER_NAME\000"
 4639      455F4449 
 4639      535F4D41 
 4639      4E554641 
 4639      43545552 
 4640              	.LASF275:
 4641 21c4 4359424C 		.ascii	"CYBLE_EVT_GLSS_INDICATION_CONFIRMED\000"
 4641      455F4556 
 4641      545F474C 
 4641      53535F49 
 4641      4E444943 
 4642              	.LASF189:
 4643 21e8 4359424C 		.ascii	"CYBLE_EVT_GATTS_INDICATION_ENABLED\000"
 4643      455F4556 
 4643      545F4741 
 4643      5454535F 
ARM GAS  C:\Users\Zachary\AppData\Local\Temp\ccv8jLse.s 			page 113


 4643      494E4449 
 4644              	.LASF7:
 4645 220b 6C6F6E67 		.ascii	"long long unsigned int\000"
 4645      206C6F6E 
 4645      6720756E 
 4645      7369676E 
 4645      65642069 
 4646              	.LASF103:
 4647 2222 4359424C 		.ascii	"CYBLE_GATT_ERR_INVALID_HANDLE\000"
 4647      455F4741 
 4647      54545F45 
 4647      52525F49 
 4647      4E56414C 
 4648              	.LASF18:
 4649 2240 4359424C 		.ascii	"CYBLE_EVT_TIMEOUT\000"
 4649      455F4556 
 4649      545F5449 
 4649      4D454F55 
 4649      5400
 4650              	.LASF270:
 4651 2252 4359424C 		.ascii	"CYBLE_EVT_CTSC_READ_DESCR_RESPONSE\000"
 4651      455F4556 
 4651      545F4354 
 4651      53435F52 
 4651      4541445F 
 4652              	.LASF144:
 4653 2275 6C656E67 		.ascii	"length\000"
 4653      746800
 4654              	.LASF100:
 4655 227c 4359424C 		.ascii	"CYBLE_ERROR_INVALID_STATE\000"
 4655      455F4552 
 4655      524F525F 
 4655      494E5641 
 4655      4C49445F 
 4656              	.LASF131:
 4657 2296 4359424C 		.ascii	"CYBLE_GATT_DB_ATTR_HANDLE_T\000"
 4657      455F4741 
 4657      54545F44 
 4657      425F4154 
 4657      54525F48 
 4658              	.LASF64:
 4659 22b2 4359424C 		.ascii	"CYBLE_EVT_L2CAP_CBFC_DATA_READ\000"
 4659      455F4556 
 4659      545F4C32 
 4659      4341505F 
 4659      43424643 
 4660              	.LASF102:
 4661 22d1 4359424C 		.ascii	"CYBLE_GATT_ERR_NONE\000"
 4661      455F4741 
 4661      54545F45 
 4661      52525F4E 
 4661      4F4E4500 
 4662              	.LASF137:
 4663 22e5 76616C75 		.ascii	"value\000"
 4663      6500
 4664              	.LASF247:
 4665 22eb 4359424C 		.ascii	"CYBLE_EVT_CPSC_NOTIFICATION\000"
ARM GAS  C:\Users\Zachary\AppData\Local\Temp\ccv8jLse.s 			page 114


 4665      455F4556 
 4665      545F4350 
 4665      53435F4E 
 4665      4F544946 
 4666              	.LASF226:
 4667 2307 4359424C 		.ascii	"CYBLE_EVT_BLSC_WRITE_DESCR_RESPONSE\000"
 4667      455F4556 
 4667      545F424C 
 4667      53435F57 
 4667      52495445 
 4668              	.LASF168:
 4669 232b 4359424C 		.ascii	"CYBLE_HTS_TEMP_TYPE\000"
 4669      455F4854 
 4669      535F5445 
 4669      4D505F54 
 4669      59504500 
 4670              	.LASF154:
 4671 233f 61747456 		.ascii	"attValue\000"
 4671      616C7565 
 4671      00
 4672              	.LASF328:
 4673 2348 4359424C 		.ascii	"CYBLE_EVT_LNSC_NOTIFICATION\000"
 4673      455F4556 
 4673      545F4C4E 
 4673      53435F4E 
 4673      4F544946 
 4674              	.LASF268:
 4675 2364 4359424C 		.ascii	"CYBLE_EVT_CTSC_NOTIFICATION\000"
 4675      455F4556 
 4675      545F4354 
 4675      53435F4E 
 4675      4F544946 
 4676              	.LASF130:
 4677 2380 4359424C 		.ascii	"CYBLE_GATT_ERR_CODE_T\000"
 4677      455F4741 
 4677      54545F45 
 4677      52525F43 
 4677      4F44455F 
 4678              	.LASF274:
 4679 2396 4359424C 		.ascii	"CYBLE_EVT_GLSS_INDICATION_DISABLED\000"
 4679      455F4556 
 4679      545F474C 
 4679      53535F49 
 4679      4E444943 
 4680              	.LASF123:
 4681 23b9 4359424C 		.ascii	"CYBLE_GATT_ERR_HTS_OUT_OF_RANGE\000"
 4681      455F4741 
 4681      54545F45 
 4681      52525F48 
 4681      54535F4F 
 4682              	.LASF196:
 4683 23d9 4359424C 		.ascii	"CYBLE_EVT_GATTC_SRVC_DUPLICATION\000"
 4683      455F4556 
 4683      545F4741 
 4683      5454435F 
 4683      53525643 
 4684              	.LASF321:
ARM GAS  C:\Users\Zachary\AppData\Local\Temp\ccv8jLse.s 			page 115


 4685 23fa 4359424C 		.ascii	"CYBLE_EVT_LNSS_INDICATION_ENABLED\000"
 4685      455F4556 
 4685      545F4C4E 
 4685      53535F49 
 4685      4E444943 
 4686              	.LASF265:
 4687 241c 4359424C 		.ascii	"CYBLE_EVT_CSCSC_WRITE_DESCR_RESPONSE\000"
 4687      455F4556 
 4687      545F4353 
 4687      4353435F 
 4687      57524954 
 4688              	.LASF413:
 4689 2441 6379426C 		.ascii	"cyBle_htssReqHandle\000"
 4689      655F6874 
 4689      73735265 
 4689      7148616E 
 4689      646C6500 
 4690              	.LASF141:
 4691 2455 636F6E6E 		.ascii	"connHandle\000"
 4691      48616E64 
 4691      6C6500
 4692              	.LASF421:
 4693 2460 4379426C 		.ascii	"CyBle_HtsInit\000"
 4693      655F4874 
 4693      73496E69 
 4693      7400
 4694              	.LASF212:
 4695 246e 4359424C 		.ascii	"CYBLE_EVT_BASS_NOTIFICATION_DISABLED\000"
 4695      455F4556 
 4695      545F4241 
 4695      53535F4E 
 4695      4F544946 
 4696              	.LASF416:
 4697 2493 6379426C 		.ascii	"cyBle_htss\000"
 4697      655F6874 
 4697      737300
 4698              	.LASF239:
 4699 249e 4359424C 		.ascii	"CYBLE_EVT_CPSS_NOTIFICATION_ENABLED\000"
 4699      455F4556 
 4699      545F4350 
 4699      53535F4E 
 4699      4F544946 
 4700              	.LASF366:
 4701 24c2 4359424C 		.ascii	"CYBLE_EVT_TPSC_READ_DESCR_RESPONSE\000"
 4701      455F4556 
 4701      545F5450 
 4701      53435F52 
 4701      4541445F 
 4702              	.LASF146:
 4703 24e5 4359424C 		.ascii	"CYBLE_GATTS_ATT_GENERIC_VAL_T\000"
 4703      455F4741 
 4703      5454535F 
 4703      4154545F 
 4703      47454E45 
 4704              	.LASF42:
 4705 2503 4359424C 		.ascii	"CYBLE_EVT_GATTC_FIND_INFO_RSP\000"
 4705      455F4556 
ARM GAS  C:\Users\Zachary\AppData\Local\Temp\ccv8jLse.s 			page 116


 4705      545F4741 
 4705      5454435F 
 4705      46494E44 
 4706              	.LASF41:
 4707 2521 4359424C 		.ascii	"CYBLE_EVT_GATTC_READ_BY_TYPE_RSP\000"
 4707      455F4556 
 4707      545F4741 
 4707      5454435F 
 4707      52454144 
 4708              	.LASF335:
 4709 2542 4359424C 		.ascii	"CYBLE_EVT_PASSS_NOTIFICATION_DISABLED\000"
 4709      455F4556 
 4709      545F5041 
 4709      5353535F 
 4709      4E4F5449 
 4710              	.LASF237:
 4711 2568 4359424C 		.ascii	"CYBLE_EVT_CGMSC_READ_DESCR_RESPONSE\000"
 4711      455F4556 
 4711      545F4347 
 4711      4D53435F 
 4711      52454144 
 4712              	.LASF293:
 4713 258c 4359424C 		.ascii	"CYBLE_EVT_HIDSC_READ_CHAR_RESPONSE\000"
 4713      455F4556 
 4713      545F4849 
 4713      4453435F 
 4713      52454144 
 4714              	.LASF390:
 4715 25af 61706952 		.ascii	"apiResult\000"
 4715      6573756C 
 4715      7400
 4716              	.LASF417:
 4717 25b9 6379426C 		.ascii	"cyBle_state\000"
 4717      655F7374 
 4717      61746500 
 4718              	.LASF363:
 4719 25c5 4359424C 		.ascii	"CYBLE_EVT_TPSS_NOTIFICATION_DISABLED\000"
 4719      455F4556 
 4719      545F5450 
 4719      53535F4E 
 4719      4F544946 
 4720              	.LASF360:
 4721 25ea 4359424C 		.ascii	"CYBLE_EVT_SCPSC_READ_DESCR_RESPONSE\000"
 4721      455F4556 
 4721      545F5343 
 4721      5053435F 
 4721      52454144 
 4722              	.LASF304:
 4723 260e 4359424C 		.ascii	"CYBLE_EVT_HRSC_WRITE_DESCR_RESPONSE\000"
 4723      455F4556 
 4723      545F4852 
 4723      53435F57 
 4723      52495445 
 4724              	.LASF409:
 4725 2632 4379426C 		.ascii	"CyBle_HtssSendIndication\000"
 4725      655F4874 
 4725      73735365 
ARM GAS  C:\Users\Zachary\AppData\Local\Temp\ccv8jLse.s 			page 117


 4725      6E64496E 
 4725      64696361 
 4726              	.LASF326:
 4727 264b 4359424C 		.ascii	"CYBLE_EVT_LNSS_WRITE_CHAR\000"
 4727      455F4556 
 4727      545F4C4E 
 4727      53535F57 
 4727      52495445 
 4728              	.LASF48:
 4729 2665 4359424C 		.ascii	"CYBLE_EVT_GATTC_WRITE_RSP\000"
 4729      455F4556 
 4729      545F4741 
 4729      5454435F 
 4729      57524954 
 4730              	.LASF385:
 4731 267f 4359424C 		.ascii	"CYBLE_STATE_DISCONNECTED\000"
 4731      455F5354 
 4731      4154455F 
 4731      44495343 
 4731      4F4E4E45 
 4732              	.LASF149:
 4733 2698 4359424C 		.ascii	"CYBLE_GATTS_ATT_VALUE_T\000"
 4733      455F4741 
 4733      5454535F 
 4733      4154545F 
 4733      56414C55 
 4734              	.LASF348:
 4735 26b0 4359424C 		.ascii	"CYBLE_EVT_RSCSC_NOTIFICATION\000"
 4735      455F4556 
 4735      545F5253 
 4735      4353435F 
 4735      4E4F5449 
 4736              	.LASF393:
 4737 26cd 4379426C 		.ascii	"CyBle_HtssGetCharacteristicValue\000"
 4737      655F4874 
 4737      73734765 
 4737      74436861 
 4737      72616374 
 4738              	.LASF28:
 4739 26ee 4359424C 		.ascii	"CYBLE_EVT_GAPP_ADVERTISEMENT_START_STOP\000"
 4739      455F4556 
 4739      545F4741 
 4739      50505F41 
 4739      44564552 
 4740              	.LASF219:
 4741 2716 4359424C 		.ascii	"CYBLE_EVT_BLSS_INDICATION_CONFIRMED\000"
 4741      455F4556 
 4741      545F424C 
 4741      53535F49 
 4741      4E444943 
 4742              	.LASF145:
 4743 273a 61747447 		.ascii	"attGenericVal\000"
 4743      656E6572 
 4743      69635661 
 4743      6C00
 4744              	.LASF177:
 4745 2748 63686172 		.ascii	"charHandle\000"
ARM GAS  C:\Users\Zachary\AppData\Local\Temp\ccv8jLse.s 			page 118


 4745      48616E64 
 4745      6C6500
 4746              	.LASF236:
 4747 2753 4359424C 		.ascii	"CYBLE_EVT_CGMSC_WRITE_CHAR_RESPONSE\000"
 4747      455F4556 
 4747      545F4347 
 4747      4D53435F 
 4747      57524954 
 4748              	.LASF9:
 4749 2777 75696E74 		.ascii	"uint8\000"
 4749      3800
 4750              	.LASF313:
 4751 277d 4359424C 		.ascii	"CYBLE_EVT_HTSC_READ_CHAR_RESPONSE\000"
 4751      455F4556 
 4751      545F4854 
 4751      53435F52 
 4751      4541445F 
 4752              	.LASF341:
 4753 279f 4359424C 		.ascii	"CYBLE_EVT_PASSC_WRITE_DESCR_RESPONSE\000"
 4753      455F4556 
 4753      545F5041 
 4753      5353435F 
 4753      57524954 
 4754              	.LASF2:
 4755 27c4 73686F72 		.ascii	"short int\000"
 4755      7420696E 
 4755      7400
 4756              	.LASF142:
 4757 27ce 68616E64 		.ascii	"handleValPair\000"
 4757      6C655661 
 4757      6C506169 
 4757      7200
 4758              	.LASF147:
 4759 27dc 61747446 		.ascii	"attFormatValue\000"
 4759      6F726D61 
 4759      7456616C 
 4759      756500
 4760              	.LASF122:
 4761 27eb 4359424C 		.ascii	"CYBLE_GATT_ERR_CPS_INAPPROPRIATE_CONNECTION_PARAMET"
 4761      455F4741 
 4761      54545F45 
 4761      52525F43 
 4761      50535F49 
 4762 281e 45525300 		.ascii	"ERS\000"
 4763              	.LASF234:
 4764 2822 4359424C 		.ascii	"CYBLE_EVT_CGMSC_NOTIFICATION\000"
 4764      455F4556 
 4764      545F4347 
 4764      4D53435F 
 4764      4E4F5449 
 4765              	.LASF108:
 4766 283f 4359424C 		.ascii	"CYBLE_GATT_ERR_REQUEST_NOT_SUPPORTED\000"
 4766      455F4741 
 4766      54545F45 
 4766      52525F52 
 4766      45515545 
 4767              	.LASF167:
ARM GAS  C:\Users\Zachary\AppData\Local\Temp\ccv8jLse.s 			page 119


 4768 2864 4359424C 		.ascii	"CYBLE_HTS_TEMP_MEASURE\000"
 4768      455F4854 
 4768      535F5445 
 4768      4D505F4D 
 4768      45415355 
 4769              	.LASF35:
 4770 287b 4359424C 		.ascii	"CYBLE_EVT_GATTC_ERROR_RSP\000"
 4770      455F4556 
 4770      545F4741 
 4770      5454435F 
 4770      4552524F 
 4771              	.LASF386:
 4772 2895 4359424C 		.ascii	"CYBLE_STATE_T\000"
 4772      455F5354 
 4772      4154455F 
 4772      5400
 4773              	.LASF213:
 4774 28a3 4359424C 		.ascii	"CYBLE_EVT_BASC_NOTIFICATION\000"
 4774      455F4556 
 4774      545F4241 
 4774      53435F4E 
 4774      4F544946 
 4775              	.LASF216:
 4776 28bf 4359424C 		.ascii	"CYBLE_EVT_BASC_WRITE_DESCR_RESPONSE\000"
 4776      455F4556 
 4776      545F4241 
 4776      53435F57 
 4776      52495445 
 4777              	.LASF192:
 4778 28e3 4359424C 		.ascii	"CYBLE_EVT_GATTC_SRVC_DISCOVERY_FAILED\000"
 4778      455F4556 
 4778      545F4741 
 4778      5454435F 
 4778      53525643 
 4779              	.LASF273:
 4780 2909 4359424C 		.ascii	"CYBLE_EVT_GLSS_INDICATION_ENABLED\000"
 4780      455F4556 
 4780      545F474C 
 4780      53535F49 
 4780      4E444943 
 4781              	.LASF205:
 4782 292b 4359424C 		.ascii	"CYBLE_EVT_ANSS_CHAR_WRITE\000"
 4782      455F4556 
 4782      545F414E 
 4782      53535F43 
 4782      4841525F 
 4783              	.LASF60:
 4784 2945 4359424C 		.ascii	"CYBLE_EVT_L2CAP_CBFC_CONN_IND\000"
 4784      455F4556 
 4784      545F4C32 
 4784      4341505F 
 4784      43424643 
 4785              	.LASF51:
 4786 2963 4359424C 		.ascii	"CYBLE_EVT_GATTS_EXEC_WRITE_REQ\000"
 4786      455F4556 
 4786      545F4741 
 4786      5454535F 
ARM GAS  C:\Users\Zachary\AppData\Local\Temp\ccv8jLse.s 			page 120


 4786      45584543 
 4787              	.LASF22:
 4788 2982 4359424C 		.ascii	"CYBLE_EVT_GAPC_SCAN_PROGRESS_RESULT\000"
 4788      455F4556 
 4788      545F4741 
 4788      50435F53 
 4788      43414E5F 
 4789              	.LASF368:
 4790 29a6 4359424C 		.ascii	"CYBLE_EVT_UDSS_INDICATION_ENABLED\000"
 4790      455F4556 
 4790      545F5544 
 4790      53535F49 
 4790      4E444943 
 4791              	.LASF79:
 4792 29c8 4359424C 		.ascii	"CYBLE_ERROR_GAP_ROLE\000"
 4792      455F4552 
 4792      524F525F 
 4792      4741505F 
 4792      524F4C45 
 4793              	.LASF307:
 4794 29dd 4359424C 		.ascii	"CYBLE_EVT_HTSS_INDICATION_ENABLED\000"
 4794      455F4556 
 4794      545F4854 
 4794      53535F49 
 4794      4E444943 
 4795              	.LASF378:
 4796 29ff 4359424C 		.ascii	"CYBLE_EVT_UDSC_READ_DESCR_RESPONSE\000"
 4796      455F4556 
 4796      545F5544 
 4796      53435F52 
 4796      4541445F 
 4797              	.LASF214:
 4798 2a22 4359424C 		.ascii	"CYBLE_EVT_BASC_READ_CHAR_RESPONSE\000"
 4798      455F4556 
 4798      545F4241 
 4798      53435F52 
 4798      4541445F 
 4799              	.LASF280:
 4800 2a44 4359424C 		.ascii	"CYBLE_EVT_GLSC_NOTIFICATION\000"
 4800      455F4556 
 4800      545F474C 
 4800      53435F4E 
 4800      4F544946 
 4801              	.LASF126:
 4802 2a60 4359424C 		.ascii	"CYBLE_GATT_ERR_ANS_COMMAND_NOT_SUPPORTED\000"
 4802      455F4741 
 4802      54545F45 
 4802      52525F41 
 4802      4E535F43 
 4803              	.LASF358:
 4804 2a89 4359424C 		.ascii	"CYBLE_EVT_SCPSS_SCAN_INT_WIN_CHAR_WRITE\000"
 4804      455F4556 
 4804      545F5343 
 4804      5053535F 
 4804      5343414E 
 4805              	.LASF414:
 4806 2ab1 6379426C 		.ascii	"cyBle_eventHandlerFlag\000"
ARM GAS  C:\Users\Zachary\AppData\Local\Temp\ccv8jLse.s 			page 121


 4806      655F6576 
 4806      656E7448 
 4806      616E646C 
 4806      6572466C 
 4807              	.LASF181:
 4808 2ac8 63686172 		.ascii	"charInfo\000"
 4808      496E666F 
 4808      00
 4809              	.LASF76:
 4810 2ad1 4359424C 		.ascii	"CYBLE_ERROR_NO_CONNECTION\000"
 4810      455F4552 
 4810      524F525F 
 4810      4E4F5F43 
 4810      4F4E4E45 
 4811              	.LASF101:
 4812 2aeb 4359424C 		.ascii	"CYBLE_API_RESULT_T\000"
 4812      455F4150 
 4812      495F5245 
 4812      53554C54 
 4812      5F5400
 4813              	.LASF228:
 4814 2afe 4359424C 		.ascii	"CYBLE_EVT_CGMSS_INDICATION_DISABLED\000"
 4814      455F4556 
 4814      545F4347 
 4814      4D53535F 
 4814      494E4449 
 4815              	.LASF202:
 4816 2b22 4359424C 		.ascii	"CYBLE_EVT_GATTC_DISCOVERY_COMPLETE\000"
 4816      455F4556 
 4816      545F4741 
 4816      5454435F 
 4816      44495343 
 4817              	.LASF232:
 4818 2b45 4359424C 		.ascii	"CYBLE_EVT_CGMSS_WRITE_CHAR\000"
 4818      455F4556 
 4818      545F4347 
 4818      4D53535F 
 4818      57524954 
 4819              	.LASF284:
 4820 2b60 4359424C 		.ascii	"CYBLE_EVT_GLSC_WRITE_DESCR_RESPONSE\000"
 4820      455F4556 
 4820      545F474C 
 4820      53435F57 
 4820      52495445 
 4821              	.LASF54:
 4822 2b84 4359424C 		.ascii	"CYBLE_EVT_GATTC_HANDLE_VALUE_IND\000"
 4822      455F4556 
 4822      545F4741 
 4822      5454435F 
 4822      48414E44 
 4823              	.LASF253:
 4824 2ba5 4359424C 		.ascii	"CYBLE_EVT_CPSC_SCAN_PROGRESS_RESULT\000"
 4824      455F4556 
 4824      545F4350 
 4824      53435F53 
 4824      43414E5F 
 4825              	.LASF352:
ARM GAS  C:\Users\Zachary\AppData\Local\Temp\ccv8jLse.s 			page 122


 4826 2bc9 4359424C 		.ascii	"CYBLE_EVT_RSCSC_READ_DESCR_RESPONSE\000"
 4826      455F4556 
 4826      545F5253 
 4826      4353435F 
 4826      52454144 
 4827              	.LASF82:
 4828 2bed 4359424C 		.ascii	"CYBLE_ERROR_SEC_FAILED\000"
 4828      455F4552 
 4828      524F525F 
 4828      5345435F 
 4828      4641494C 
 4829              	.LASF21:
 4830 2c04 4359424C 		.ascii	"CYBLE_EVT_STACK_BUSY_STATUS\000"
 4830      455F4556 
 4830      545F5354 
 4830      41434B5F 
 4830      42555359 
 4831              	.LASF316:
 4832 2c20 4359424C 		.ascii	"CYBLE_EVT_HTSC_WRITE_DESCR_RESPONSE\000"
 4832      455F4556 
 4832      545F4854 
 4832      53435F57 
 4832      52495445 
 4833              	.LASF34:
 4834 2c44 4359424C 		.ascii	"CYBLE_EVT_GAP_KEYINFO_EXCHNGE_CMPLT\000"
 4834      455F4556 
 4834      545F4741 
 4834      505F4B45 
 4834      59494E46 
 4835              	.LASF408:
 4836 2c68 6E746652 		.ascii	"ntfReqParam\000"
 4836      65715061 
 4836      72616D00 
 4837              	.LASF57:
 4838 2c74 4359424C 		.ascii	"CYBLE_EVT_L2CAP_CONN_PARAM_UPDATE_REQ\000"
 4838      455F4556 
 4838      545F4C32 
 4838      4341505F 
 4838      434F4E4E 
 4839              	.LASF231:
 4840 2c9a 4359424C 		.ascii	"CYBLE_EVT_CGMSS_NOTIFICATION_DISABLED\000"
 4840      455F4556 
 4840      545F4347 
 4840      4D53535F 
 4840      4E4F5449 
 4841              	.LASF182:
 4842 2cc0 4359424C 		.ascii	"CYBLE_HTSS_T\000"
 4842      455F4854 
 4842      53535F54 
 4842      00
 4843              	.LASF401:
 4844 2ccd 67617474 		.ascii	"gattErr\000"
 4844      45727200 
 4845              	.LASF95:
 4846 2cd5 4359424C 		.ascii	"CYBLE_CHAR_DISC_DONE\000"
 4846      455F4348 
 4846      41525F44 
ARM GAS  C:\Users\Zachary\AppData\Local\Temp\ccv8jLse.s 			page 123


 4846      4953435F 
 4846      444F4E45 
 4847              	.LASF193:
 4848 2cea 4359424C 		.ascii	"CYBLE_EVT_GATTC_INCL_DISCOVERY_FAILED\000"
 4848      455F4556 
 4848      545F4741 
 4848      5454435F 
 4848      494E434C 
 4849              	.LASF105:
 4850 2d10 4359424C 		.ascii	"CYBLE_GATT_ERR_WRITE_NOT_PERMITTED\000"
 4850      455F4741 
 4850      54545F45 
 4850      52525F57 
 4850      52495445 
 4851              	.LASF190:
 4852 2d33 4359424C 		.ascii	"CYBLE_EVT_GATTS_INDICATION_DISABLED\000"
 4852      455F4556 
 4852      545F4741 
 4852      5454535F 
 4852      494E4449 
 4853              	.LASF3:
 4854 2d57 73686F72 		.ascii	"short unsigned int\000"
 4854      7420756E 
 4854      7369676E 
 4854      65642069 
 4854      6E7400
 4855              	.LASF117:
 4856 2d6a 4359424C 		.ascii	"CYBLE_GATT_ERR_INSUFFICIENT_ENCRYPTION\000"
 4856      455F4741 
 4856      54545F45 
 4856      52525F49 
 4856      4E535546 
 4857              	.LASF282:
 4858 2d91 4359424C 		.ascii	"CYBLE_EVT_GLSC_WRITE_CHAR_RESPONSE\000"
 4858      455F4556 
 4858      545F474C 
 4858      53435F57 
 4858      52495445 
 4859              	.LASF331:
 4860 2db4 4359424C 		.ascii	"CYBLE_EVT_LNSC_READ_DESCR_RESPONSE\000"
 4860      455F4556 
 4860      545F4C4E 
 4860      53435F52 
 4860      4541445F 
 4861              	.LASF383:
 4862 2dd7 4359424C 		.ascii	"CYBLE_STATE_CONNECTED\000"
 4862      455F5354 
 4862      4154455F 
 4862      434F4E4E 
 4862      45435445 
 4863              	.LASF135:
 4864 2ded 61637475 		.ascii	"actualLen\000"
 4864      616C4C65 
 4864      6E00
 4865              	.LASF362:
 4866 2df7 4359424C 		.ascii	"CYBLE_EVT_TPSS_NOTIFICATION_ENABLED\000"
 4866      455F4556 
ARM GAS  C:\Users\Zachary\AppData\Local\Temp\ccv8jLse.s 			page 124


 4866      545F5450 
 4866      53535F4E 
 4866      4F544946 
 4867              	.LASF279:
 4868 2e1b 4359424C 		.ascii	"CYBLE_EVT_GLSC_INDICATION\000"
 4868      455F4556 
 4868      545F474C 
 4868      53435F49 
 4868      4E444943 
 4869              	.LASF245:
 4870 2e35 4359424C 		.ascii	"CYBLE_EVT_CPSS_BROADCAST_DISABLED\000"
 4870      455F4556 
 4870      545F4350 
 4870      53535F42 
 4870      524F4144 
 4871              	.LASF133:
 4872 2e57 61747449 		.ascii	"attId\000"
 4872      6400
 4873              	.LASF72:
 4874 2e5d 4359424C 		.ascii	"CYBLE_ERROR_INVALID_OPERATION\000"
 4874      455F4552 
 4874      524F525F 
 4874      494E5641 
 4874      4C49445F 
 4875              	.LASF20:
 4876 2e7b 4359424C 		.ascii	"CYBLE_EVT_HCI_STATUS\000"
 4876      455F4556 
 4876      545F4843 
 4876      495F5354 
 4876      41545553 
 4877              	.LASF37:
 4878 2e90 4359424C 		.ascii	"CYBLE_EVT_GATT_DISCONNECT_IND\000"
 4878      455F4556 
 4878      545F4741 
 4878      54545F44 
 4878      4953434F 
 4879              	.LASF188:
 4880 2eae 4359424C 		.ascii	"CYBLE_KEY_EXCHANGE_INFO_REQUEST_REPLY\000"
 4880      455F4B45 
 4880      595F4558 
 4880      4348414E 
 4880      47455F49 
 4881              	.LASF67:
 4882 2ed4 4359424C 		.ascii	"CYBLE_EVT_L2CAP_CBFC_DATA_WRITE_IND\000"
 4882      455F4556 
 4882      545F4C32 
 4882      4341505F 
 4882      43424643 
 4883              	.LASF186:
 4884 2ef8 4359424C 		.ascii	"CYBLE_PASSKEY_ENTRY_REQUEST_REPLY\000"
 4884      455F5041 
 4884      53534B45 
 4884      595F454E 
 4884      5452595F 
 4885              	.LASF206:
 4886 2f1a 4359424C 		.ascii	"CYBLE_EVT_ANSC_NOTIFICATION\000"
 4886      455F4556 
ARM GAS  C:\Users\Zachary\AppData\Local\Temp\ccv8jLse.s 			page 125


 4886      545F414E 
 4886      53435F4E 
 4886      4F544946 
 4887              	.LASF30:
 4888 2f36 4359424C 		.ascii	"CYBLE_EVT_GAP_DEVICE_DISCONNECTED\000"
 4888      455F4556 
 4888      545F4741 
 4888      505F4445 
 4888      56494345 
 4889              	.LASF287:
 4890 2f58 4359424C 		.ascii	"CYBLE_EVT_HIDSS_BOOT_MODE_ENTER\000"
 4890      455F4556 
 4890      545F4849 
 4890      4453535F 
 4890      424F4F54 
 4891              	.LASF55:
 4892 2f78 4359424C 		.ascii	"CYBLE_EVT_GATTS_HANDLE_VALUE_CNF\000"
 4892      455F4556 
 4892      545F4741 
 4892      5454535F 
 4892      48414E44 
 4893              	.LASF264:
 4894 2f99 4359424C 		.ascii	"CYBLE_EVT_CSCSC_READ_DESCR_RESPONSE\000"
 4894      455F4556 
 4894      545F4353 
 4894      4353435F 
 4894      52454144 
 4895              	.LASF10:
 4896 2fbd 75696E74 		.ascii	"uint16\000"
 4896      313600
 4897              	.LASF80:
 4898 2fc4 4359424C 		.ascii	"CYBLE_ERROR_TX_POWER_READ\000"
 4898      455F4552 
 4898      524F525F 
 4898      54585F50 
 4898      4F574552 
 4899              	.LASF342:
 4900 2fde 4359424C 		.ascii	"CYBLE_EVT_RSCSS_NOTIFICATION_ENABLED\000"
 4900      455F4556 
 4900      545F5253 
 4900      4353535F 
 4900      4E4F5449 
 4901              	.LASF204:
 4902 3003 4359424C 		.ascii	"CYBLE_EVT_ANSS_NOTIFICATION_DISABLED\000"
 4902      455F4556 
 4902      545F414E 
 4902      53535F4E 
 4902      4F544946 
 4903              	.LASF312:
 4904 3028 4359424C 		.ascii	"CYBLE_EVT_HTSC_INDICATION\000"
 4904      455F4556 
 4904      545F4854 
 4904      53435F49 
 4904      4E444943 
 4905              	.LASF285:
 4906 3042 4359424C 		.ascii	"CYBLE_EVT_HIDSS_NOTIFICATION_ENABLED\000"
 4906      455F4556 
ARM GAS  C:\Users\Zachary\AppData\Local\Temp\ccv8jLse.s 			page 126


 4906      545F4849 
 4906      4453535F 
 4906      4E4F5449 
 4907              	.LASF309:
 4908 3067 4359424C 		.ascii	"CYBLE_EVT_HTSS_INDICATION_CONFIRMED\000"
 4908      455F4556 
 4908      545F4854 
 4908      53535F49 
 4908      4E444943 
 4909              	.LASF299:
 4910 308b 4359424C 		.ascii	"CYBLE_EVT_HRSS_NOTIFICATION_DISABLED\000"
 4910      455F4556 
 4910      545F4852 
 4910      53535F4E 
 4910      4F544946 
 4911              		.ident	"GCC: (GNU Tools for ARM Embedded Processors) 4.8.4 20140526 (release) [ARM/embedded-4_8-br
