ARM GAS  C:\Users\Zachary\AppData\Local\Temp\ccPQ0E02.s 			page 1


   1              		.cpu cortex-m0
   2              		.fpu softvfp
   3              		.eabi_attribute 20, 1
   4              		.eabi_attribute 21, 1
   5              		.eabi_attribute 23, 3
   6              		.eabi_attribute 24, 1
   7              		.eabi_attribute 25, 1
   8              		.eabi_attribute 26, 1
   9              		.eabi_attribute 30, 6
  10              		.eabi_attribute 34, 0
  11              		.eabi_attribute 18, 4
  12              		.code	16
  13              		.file	"hts.c"
  14              		.text
  15              	.Ltext0:
  16              		.cfi_sections	.debug_frame
  17              		.global	temperatureMeasure
  18              		.bss
  19              		.align	1
  20              		.type	temperatureMeasure, %object
  21              		.size	temperatureMeasure, 2
  22              	temperatureMeasure:
  23 0000 0000     		.space	2
  24              		.global	temperatureTimer
  25              		.data
  26              		.align	2
  27              		.type	temperatureTimer, %object
  28              		.size	temperatureTimer, 4
  29              	temperatureTimer:
  30 0000 01000000 		.word	1
  31              		.global	initialMeasurementInterval
  32              		.align	1
  33              		.type	initialMeasurementInterval, %object
  34              		.size	initialMeasurementInterval, 2
  35              	initialMeasurementInterval:
  36 0004 0A00     		.short	10
  37              		.global	temp_data
  38              		.bss
  39 0002 0000     		.align	2
  40              		.type	temp_data, %object
  41              		.size	temp_data, 5
  42              	temp_data:
  43 0004 00000000 		.space	5
  43      00
  44              		.section	.rodata
  45              		.align	2
  46              	.LC0:
  47 0000 48545320 		.ascii	"HTS event: %lx, \000"
  47      6576656E 
  47      743A2025 
  47      6C782C20 
  47      00
  48 0011 000000   		.align	2
  49              	.LC3:
  50 0014 4556545F 		.ascii	"EVT_HTSS_INDICATION_ENABLED: char: %x\015\012\000"
  50      48545353 
  50      5F494E44 
ARM GAS  C:\Users\Zachary\AppData\Local\Temp\ccPQ0E02.s 			page 2


  50      49434154 
  50      494F4E5F 
  51              		.align	2
  52              	.LC6:
  53 003c 4556545F 		.ascii	"EVT_HTSS_INDICATION_DISABLED: char: %x\015\012\000"
  53      48545353 
  53      5F494E44 
  53      49434154 
  53      494F4E5F 
  54 0065 000000   		.align	2
  55              	.LC8:
  56 0068 4556545F 		.ascii	"EVT_HTSS_INDICATION_CONFIRMED\015\000"
  56      48545353 
  56      5F494E44 
  56      49434154 
  56      494F4E5F 
  57 0087 00       		.align	2
  58              	.LC10:
  59 0088 4556545F 		.ascii	"EVT_HTSS_CHAR_WRITE: %x \000"
  59      48545353 
  59      5F434841 
  59      525F5752 
  59      4954453A 
  60 00a1 000000   		.align	2
  61              	.LC15:
  62 00a4 4E6F7420 		.ascii	"Not supported event\015\000"
  62      73757070 
  62      6F727465 
  62      64206576 
  62      656E740D 
  63              		.section	.text.HtsCallBack,"ax",%progbits
  64              		.align	2
  65              		.global	HtsCallBack
  66              		.code	16
  67              		.thumb_func
  68              		.type	HtsCallBack, %function
  69              	HtsCallBack:
  70              	.LFB35:
  71              		.file 1 ".\\hts.c"
   1:.\hts.c       **** /*******************************************************************************
   2:.\hts.c       **** * File Name: hts.c
   3:.\hts.c       **** *
   4:.\hts.c       **** * Version: 1.0
   5:.\hts.c       **** *
   6:.\hts.c       **** * Description:
   7:.\hts.c       **** *  This file contains HTS callback handler function.
   8:.\hts.c       **** *
   9:.\hts.c       **** * Hardware Dependency:
  10:.\hts.c       **** *  CY8CKIT-042 BLE
  11:.\hts.c       **** * 
  12:.\hts.c       **** ********************************************************************************
  13:.\hts.c       **** * Copyright 2015, Cypress Semiconductor Corporation.  All rights reserved.
  14:.\hts.c       **** * You may use this file only in accordance with the license, terms, conditions,
  15:.\hts.c       **** * disclaimers, and limitations in the end user license agreement accompanying
  16:.\hts.c       **** * the software package with which this file was provided.
  17:.\hts.c       **** *******************************************************************************/
  18:.\hts.c       **** 
ARM GAS  C:\Users\Zachary\AppData\Local\Temp\ccPQ0E02.s 			page 3


  19:.\hts.c       **** #include "common.h"
  20:.\hts.c       **** #include "hts.h"
  21:.\hts.c       **** 
  22:.\hts.c       **** uint16 temperatureMeasure = 0u;
  23:.\hts.c       **** uint32 temperatureTimer = 1u;
  24:.\hts.c       **** 
  25:.\hts.c       **** uint16 initialMeasurementInterval = 10;
  26:.\hts.c       **** 
  27:.\hts.c       **** /* Byte order: 
  28:.\hts.c       **** *   Flags
  29:.\hts.c       **** *   Temperature in float format (MSB 8 bits - exponent, LSB 24 bits - mantissa) 
  30:.\hts.c       **** */
  31:.\hts.c       **** uint8 temp_data[HTS_TEMP_DATA_MIN_SIZE] = {0u, 0u, 0u, 0u, 0u};
  32:.\hts.c       **** 
  33:.\hts.c       **** 
  34:.\hts.c       **** /*******************************************************************************
  35:.\hts.c       **** * Function Name: HtsCallBack()
  36:.\hts.c       **** ********************************************************************************
  37:.\hts.c       **** *
  38:.\hts.c       **** * Summary:
  39:.\hts.c       **** *   This is an event callback function to receive service specific events from 
  40:.\hts.c       **** *   Health Thermometer Service.
  41:.\hts.c       **** *
  42:.\hts.c       **** * Parameters:
  43:.\hts.c       **** *  event - the event code
  44:.\hts.c       **** *  *eventParam - the event parameters
  45:.\hts.c       **** *
  46:.\hts.c       **** * Return:
  47:.\hts.c       **** *  None.
  48:.\hts.c       **** *
  49:.\hts.c       **** *******************************************************************************/
  50:.\hts.c       **** void HtsCallBack(uint32 event, void *eventParam)
  51:.\hts.c       **** {
  72              		.loc 1 51 0
  73              		.cfi_startproc
  74 0000 90B5     		push	{r4, r7, lr}
  75              		.cfi_def_cfa_offset 12
  76              		.cfi_offset 4, -12
  77              		.cfi_offset 7, -8
  78              		.cfi_offset 14, -4
  79 0002 85B0     		sub	sp, sp, #20
  80              		.cfi_def_cfa_offset 32
  81 0004 00AF     		add	r7, sp, #0
  82              		.cfi_def_cfa_register 7
  83 0006 7860     		str	r0, [r7, #4]
  84 0008 3960     		str	r1, [r7]
  52:.\hts.c       ****     uint8 locCharIndex;
  53:.\hts.c       ****     locCharIndex = ((CYBLE_HTS_CHAR_VALUE_T *)eventParam)->charIndex;
  85              		.loc 1 53 0
  86 000a 3B1C     		mov	r3, r7
  87 000c 0F33     		add	r3, r3, #15
  88 000e 3A68     		ldr	r2, [r7]
  89 0010 9278     		ldrb	r2, [r2, #2]
  90 0012 1A70     		strb	r2, [r3]
  54:.\hts.c       ****     printf("HTS event: %lx, ", event);
  91              		.loc 1 54 0
  92 0014 394A     		ldr	r2, .L21
ARM GAS  C:\Users\Zachary\AppData\Local\Temp\ccPQ0E02.s 			page 4


  93 0016 7B68     		ldr	r3, [r7, #4]
  94 0018 101C     		mov	r0, r2
  95 001a 191C     		mov	r1, r3
  96 001c FFF7FEFF 		bl	printf
  55:.\hts.c       **** 
  56:.\hts.c       ****     switch(event)
  97              		.loc 1 56 0
  98 0020 7B68     		ldr	r3, [r7, #4]
  99 0022 793B     		sub	r3, r3, #121
 100 0024 FF3B     		sub	r3, r3, #255
 101 0026 0B2B     		cmp	r3, #11
 102 0028 5DD8     		bhi	.L2
 103 002a 9A00     		lsl	r2, r3, #2
 104 002c 344B     		ldr	r3, .L21+4
 105 002e D318     		add	r3, r2, r3
 106 0030 1B68     		ldr	r3, [r3]
 107 0032 9F46     		mov	pc, r3
 108              		.section	.rodata
 109 00b9 000000   		.align	2
 110              	.L4:
 111 00bc F2000000 		.word	.L20
 112 00c0 F2000000 		.word	.L20
 113 00c4 34000000 		.word	.L6
 114 00c8 58000000 		.word	.L7
 115 00cc 7C000000 		.word	.L8
 116 00d0 86000000 		.word	.L9
 117 00d4 F2000000 		.word	.L20
 118 00d8 F2000000 		.word	.L20
 119 00dc F2000000 		.word	.L20
 120 00e0 F2000000 		.word	.L20
 121 00e4 F2000000 		.word	.L20
 122 00e8 F2000000 		.word	.L20
 123              		.section	.text.HtsCallBack
 124              	.L6:
  57:.\hts.c       ****     {
  58:.\hts.c       ****         case CYBLE_EVT_HTSS_NOTIFICATION_ENABLED:
  59:.\hts.c       ****             break;
  60:.\hts.c       ****         case CYBLE_EVT_HTSS_NOTIFICATION_DISABLED:
  61:.\hts.c       ****             break;
  62:.\hts.c       ****         case CYBLE_EVT_HTSS_INDICATION_ENABLED:
  63:.\hts.c       ****             printf("EVT_HTSS_INDICATION_ENABLED: char: %x\r\n", locCharIndex);
 125              		.loc 1 63 0
 126 0034 3B1C     		mov	r3, r7
 127 0036 0F33     		add	r3, r3, #15
 128 0038 1B78     		ldrb	r3, [r3]
 129 003a 324A     		ldr	r2, .L21+8
 130 003c 101C     		mov	r0, r2
 131 003e 191C     		mov	r1, r3
 132 0040 FFF7FEFF 		bl	printf
  64:.\hts.c       ****             if(locCharIndex == CYBLE_HTS_TEMP_MEASURE)
 133              		.loc 1 64 0
 134 0044 3B1C     		mov	r3, r7
 135 0046 0F33     		add	r3, r3, #15
 136 0048 1B78     		ldrb	r3, [r3]
 137 004a 002B     		cmp	r3, #0
 138 004c 03D1     		bne	.L17
  65:.\hts.c       ****             {
ARM GAS  C:\Users\Zachary\AppData\Local\Temp\ccPQ0E02.s 			page 5


  66:.\hts.c       ****                 temperatureMeasure = ENABLED;
 139              		.loc 1 66 0
 140 004e 2E4B     		ldr	r3, .L21+12
 141 0050 0122     		mov	r2, #1
 142 0052 1A80     		strh	r2, [r3]
  67:.\hts.c       ****             }
  68:.\hts.c       ****             break;
 143              		.loc 1 68 0
 144 0054 4EE0     		b	.L1
 145              	.L17:
 146 0056 4DE0     		b	.L1
 147              	.L7:
  69:.\hts.c       ****         case CYBLE_EVT_HTSS_INDICATION_DISABLED:
  70:.\hts.c       ****             printf("EVT_HTSS_INDICATION_DISABLED: char: %x\r\n", locCharIndex);
 148              		.loc 1 70 0
 149 0058 3B1C     		mov	r3, r7
 150 005a 0F33     		add	r3, r3, #15
 151 005c 1B78     		ldrb	r3, [r3]
 152 005e 2B4A     		ldr	r2, .L21+16
 153 0060 101C     		mov	r0, r2
 154 0062 191C     		mov	r1, r3
 155 0064 FFF7FEFF 		bl	printf
  71:.\hts.c       ****             if(locCharIndex == CYBLE_HTS_TEMP_MEASURE)
 156              		.loc 1 71 0
 157 0068 3B1C     		mov	r3, r7
 158 006a 0F33     		add	r3, r3, #15
 159 006c 1B78     		ldrb	r3, [r3]
 160 006e 002B     		cmp	r3, #0
 161 0070 03D1     		bne	.L18
  72:.\hts.c       ****             {
  73:.\hts.c       ****                 temperatureMeasure = DISABLED;
 162              		.loc 1 73 0
 163 0072 254B     		ldr	r3, .L21+12
 164 0074 0022     		mov	r2, #0
 165 0076 1A80     		strh	r2, [r3]
  74:.\hts.c       ****             }
  75:.\hts.c       ****             break;
 166              		.loc 1 75 0
 167 0078 3CE0     		b	.L1
 168              	.L18:
 169 007a 3BE0     		b	.L1
 170              	.L8:
  76:.\hts.c       ****         case CYBLE_EVT_HTSS_INDICATION_CONFIRMED:
  77:.\hts.c       ****             printf("EVT_HTSS_INDICATION_CONFIRMED\r\n");
 171              		.loc 1 77 0
 172 007c 244B     		ldr	r3, .L21+20
 173 007e 181C     		mov	r0, r3
 174 0080 FFF7FEFF 		bl	puts
  78:.\hts.c       ****             break;
 175              		.loc 1 78 0
 176 0084 36E0     		b	.L1
 177              	.L9:
  79:.\hts.c       ****         case CYBLE_EVT_HTSS_CHAR_WRITE:
  80:.\hts.c       ****             printf("EVT_HTSS_CHAR_WRITE: %x ", locCharIndex);
 178              		.loc 1 80 0
 179 0086 3B1C     		mov	r3, r7
 180 0088 0F33     		add	r3, r3, #15
ARM GAS  C:\Users\Zachary\AppData\Local\Temp\ccPQ0E02.s 			page 6


 181 008a 1B78     		ldrb	r3, [r3]
 182 008c 214A     		ldr	r2, .L21+24
 183 008e 101C     		mov	r0, r2
 184 0090 191C     		mov	r1, r3
 185 0092 FFF7FEFF 		bl	printf
  81:.\hts.c       ****             ShowValue(((CYBLE_HTS_CHAR_VALUE_T *)eventParam)->value);
 186              		.loc 1 81 0
 187 0096 3B68     		ldr	r3, [r7]
 188 0098 5B68     		ldr	r3, [r3, #4]
 189 009a 181C     		mov	r0, r3
 190 009c FFF7FEFF 		bl	ShowValue
  82:.\hts.c       ****             if(locCharIndex == CYBLE_HTS_MEASURE_INTERVAL)
 191              		.loc 1 82 0
 192 00a0 3B1C     		mov	r3, r7
 193 00a2 0F33     		add	r3, r3, #15
 194 00a4 1B78     		ldrb	r3, [r3]
 195 00a6 032B     		cmp	r3, #3
 196 00a8 1CD1     		bne	.L19
 197              	.LBB2:
  83:.\hts.c       ****             {
  84:.\hts.c       ****                 uint16 interval;
  85:.\hts.c       ****                 interval = CyBle_Get16ByPtr(((CYBLE_HTS_CHAR_VALUE_T *)eventParam)->value->val);
 198              		.loc 1 85 0
 199 00aa 3B68     		ldr	r3, [r7]
 200 00ac 5B68     		ldr	r3, [r3, #4]
 201 00ae 1B68     		ldr	r3, [r3]
 202 00b0 3C1C     		mov	r4, r7
 203 00b2 0C34     		add	r4, r4, #12
 204 00b4 181C     		mov	r0, r3
 205 00b6 FFF7FEFF 		bl	CyBle_Get16ByPtr
 206 00ba 031C     		mov	r3, r0
 207 00bc 2380     		strh	r3, [r4]
  86:.\hts.c       ****                 
  87:.\hts.c       ****                 /* Store new interval value */
  88:.\hts.c       ****                 initialMeasurementInterval = interval;
 208              		.loc 1 88 0
 209 00be 164B     		ldr	r3, .L21+28
 210 00c0 3A1C     		mov	r2, r7
 211 00c2 0C32     		add	r2, r2, #12
 212 00c4 1288     		ldrh	r2, [r2]
 213 00c6 1A80     		strh	r2, [r3]
  89:.\hts.c       ****                 if(interval != 0u)
 214              		.loc 1 89 0
 215 00c8 3B1C     		mov	r3, r7
 216 00ca 0C33     		add	r3, r3, #12
 217 00cc 1B88     		ldrh	r3, [r3]
 218 00ce 002B     		cmp	r3, #0
 219 00d0 08D0     		beq	.L19
  90:.\hts.c       ****                 {
  91:.\hts.c       ****                     /* Reset the measurement interval and start the measurement process. */
  92:.\hts.c       ****                     temperatureTimer = 1u;
 220              		.loc 1 92 0
 221 00d2 124B     		ldr	r3, .L21+32
 222 00d4 0122     		mov	r2, #1
 223 00d6 1A60     		str	r2, [r3]
  93:.\hts.c       ****                     mainTimer++;
 224              		.loc 1 93 0
ARM GAS  C:\Users\Zachary\AppData\Local\Temp\ccPQ0E02.s 			page 7


 225 00d8 114B     		ldr	r3, .L21+36
 226 00da 1B68     		ldr	r3, [r3]
 227 00dc 5A1C     		add	r2, r3, #1
 228 00de 104B     		ldr	r3, .L21+36
 229 00e0 1A60     		str	r2, [r3]
 230              	.LBE2:
  94:.\hts.c       ****                 }
  95:.\hts.c       ****             }
  96:.\hts.c       ****             break;
 231              		.loc 1 96 0
 232 00e2 07E0     		b	.L1
 233              	.L19:
 234 00e4 06E0     		b	.L1
 235              	.L2:
  97:.\hts.c       ****         case CYBLE_EVT_HTSC_NOTIFICATION:
  98:.\hts.c       ****             break;
  99:.\hts.c       ****         case CYBLE_EVT_HTSC_INDICATION:
 100:.\hts.c       ****             break;
 101:.\hts.c       ****         case CYBLE_EVT_HTSC_READ_CHAR_RESPONSE:
 102:.\hts.c       ****             break;
 103:.\hts.c       ****         case CYBLE_EVT_HTSC_WRITE_CHAR_RESPONSE:
 104:.\hts.c       ****             break;
 105:.\hts.c       ****         case CYBLE_EVT_HTSC_READ_DESCR_RESPONSE:
 106:.\hts.c       ****             break;
 107:.\hts.c       ****         case CYBLE_EVT_HTSC_WRITE_DESCR_RESPONSE:
 108:.\hts.c       ****             break;
 109:.\hts.c       **** 		default:
 110:.\hts.c       ****             printf("Not supported event\r\n");
 236              		.loc 1 110 0
 237 00e6 0F4B     		ldr	r3, .L21+40
 238 00e8 181C     		mov	r0, r3
 239 00ea FFF7FEFF 		bl	puts
 111:.\hts.c       **** 			break;
 240              		.loc 1 111 0
 241 00ee C046     		mov	r8, r8
 242 00f0 00E0     		b	.L1
 243              	.L20:
 108:.\hts.c       ****             break;
 244              		.loc 1 108 0
 245 00f2 C046     		mov	r8, r8
 246              	.L1:
 112:.\hts.c       ****     }
 113:.\hts.c       **** }
 247              		.loc 1 113 0
 248 00f4 BD46     		mov	sp, r7
 249 00f6 05B0     		add	sp, sp, #20
 250              		@ sp needed
 251 00f8 90BD     		pop	{r4, r7, pc}
 252              	.L22:
 253 00fa C046     		.align	2
 254              	.L21:
 255 00fc 00000000 		.word	.LC0
 256 0100 BC000000 		.word	.L4
 257 0104 14000000 		.word	.LC3
 258 0108 00000000 		.word	temperatureMeasure
 259 010c 3C000000 		.word	.LC6
 260 0110 68000000 		.word	.LC8
ARM GAS  C:\Users\Zachary\AppData\Local\Temp\ccPQ0E02.s 			page 8


 261 0114 88000000 		.word	.LC10
 262 0118 00000000 		.word	initialMeasurementInterval
 263 011c 00000000 		.word	temperatureTimer
 264 0120 00000000 		.word	mainTimer
 265 0124 A4000000 		.word	.LC15
 266              		.cfi_endproc
 267              	.LFE35:
 268              		.size	HtsCallBack, .-HtsCallBack
 269              		.global	__aeabi_uidiv
 270              		.global	__aeabi_idiv
 271              		.section	.rodata
 272              		.align	2
 273              	.LC24:
 274 00ec 4379426C 		.ascii	"CyBle_HtssSendIndication API Error: %x \015\012\000"
 274      655F4874 
 274      73735365 
 274      6E64496E 
 274      64696361 
 275 0116 0000     		.align	2
 276              	.LC27:
 277 0118 4D656173 		.ascii	"MeasureTemperature: %d %c  \000"
 277      75726554 
 277      656D7065 
 277      72617475 
 277      72653A20 
 278              		.section	.text.MeasureTemperature,"ax",%progbits
 279              		.align	2
 280              		.global	MeasureTemperature
 281              		.code	16
 282              		.thumb_func
 283              		.type	MeasureTemperature, %function
 284              	MeasureTemperature:
 285              	.LFB36:
 114:.\hts.c       **** 
 115:.\hts.c       **** 
 116:.\hts.c       **** /*******************************************************************************
 117:.\hts.c       **** * Function Name: MeasureTemperature()
 118:.\hts.c       **** ********************************************************************************
 119:.\hts.c       **** *
 120:.\hts.c       **** * Summary:
 121:.\hts.c       **** *   This function measures the die temperature and sends it to the client.
 122:.\hts.c       **** *
 123:.\hts.c       **** *******************************************************************************/
 124:.\hts.c       **** void MeasureTemperature(void)
 125:.\hts.c       **** {
 286              		.loc 1 125 0
 287              		.cfi_startproc
 288 0000 B0B5     		push	{r4, r5, r7, lr}
 289              		.cfi_def_cfa_offset 16
 290              		.cfi_offset 4, -16
 291              		.cfi_offset 5, -12
 292              		.cfi_offset 7, -8
 293              		.cfi_offset 14, -4
 294 0002 84B0     		sub	sp, sp, #16
 295              		.cfi_def_cfa_offset 32
 296 0004 00AF     		add	r7, sp, #0
 297              		.cfi_def_cfa_register 7
ARM GAS  C:\Users\Zachary\AppData\Local\Temp\ccPQ0E02.s 			page 9


 126:.\hts.c       **** 	int32 ADCCountsCorrected;
 127:.\hts.c       ****     int32 temperatureValue;
 128:.\hts.c       ****     static int32 temperatureCelsius;
 129:.\hts.c       ****     static uint8 measure = ENABLED; 
 130:.\hts.c       ****     CYBLE_API_RESULT_T apiResult;
 131:.\hts.c       ****     
 132:.\hts.c       ****     /* Do not measure temperature when 0 interval is set */
 133:.\hts.c       ****     if((initialMeasurementInterval != 0u) && (--temperatureTimer == 0u)) 
 298              		.loc 1 133 0
 299 0006 504B     		ldr	r3, .L33
 300 0008 1B88     		ldrh	r3, [r3]
 301 000a 002B     		cmp	r3, #0
 302 000c 00D1     		bne	.LCB201
 303 000e 98E0     		b	.L23	@long jump
 304              	.LCB201:
 305              		.loc 1 133 0 is_stmt 0 discriminator 1
 306 0010 4E4B     		ldr	r3, .L33+4
 307 0012 1B68     		ldr	r3, [r3]
 308 0014 5A1E     		sub	r2, r3, #1
 309 0016 4D4B     		ldr	r3, .L33+4
 310 0018 1A60     		str	r2, [r3]
 311 001a 4C4B     		ldr	r3, .L33+4
 312 001c 1B68     		ldr	r3, [r3]
 313 001e 002B     		cmp	r3, #0
 314 0020 00D0     		beq	.LCB210
 315 0022 8EE0     		b	.L23	@long jump
 316              	.LCB210:
 134:.\hts.c       ****     {
 135:.\hts.c       ****         temperatureTimer = initialMeasurementInterval;
 317              		.loc 1 135 0 is_stmt 1
 318 0024 484B     		ldr	r3, .L33
 319 0026 1B88     		ldrh	r3, [r3]
 320 0028 1A1C     		mov	r2, r3
 321 002a 484B     		ldr	r3, .L33+4
 322 002c 1A60     		str	r2, [r3]
 136:.\hts.c       ****         
 137:.\hts.c       ****         /* Measure Die temperature only first time, later simulate */
 138:.\hts.c       ****         if(measure != 0u)
 323              		.loc 1 138 0
 324 002e 484B     		ldr	r3, .L33+8
 325 0030 1B78     		ldrb	r3, [r3]
 326 0032 002B     		cmp	r3, #0
 327 0034 1CD0     		beq	.L25
 139:.\hts.c       ****         {
 140:.\hts.c       ****             measure = 0u;
 328              		.loc 1 140 0
 329 0036 464B     		ldr	r3, .L33+8
 330 0038 0022     		mov	r2, #0
 331 003a 1A70     		strb	r2, [r3]
 141:.\hts.c       ****             /* Enables injection channel and performs a measurement. */
 142:.\hts.c       ****             ADC_EnableInjection();
 332              		.loc 1 142 0
 333 003c FFF7FEFF 		bl	ADC_EnableInjection
 143:.\hts.c       ****         	ADC_StartConvert();
 334              		.loc 1 143 0
 335 0040 FFF7FEFF 		bl	ADC_StartConvert
 144:.\hts.c       ****         	ADC_IsEndConversion(ADC_WAIT_FOR_RESULT);
ARM GAS  C:\Users\Zachary\AppData\Local\Temp\ccPQ0E02.s 			page 10


 336              		.loc 1 144 0
 337 0044 0220     		mov	r0, #2
 338 0046 FFF7FEFF 		bl	ADC_IsEndConversion
 145:.\hts.c       ****             
 146:.\hts.c       ****             /* Read conversion result and adjust data from ADC with respect to Vref value. */
 147:.\hts.c       ****         	ADCCountsCorrected = ADC_DEF_TEMP_REF * ADC_GetResult16(ADC_TEMPERATURE_CHANNEL) / ADC_DEF
 339              		.loc 1 147 0
 340 004a 0120     		mov	r0, #1
 341 004c FFF7FEFF 		bl	ADC_GetResult16
 342 0050 031C     		mov	r3, r0
 343 0052 9B02     		lsl	r3, r3, #10
 344 0054 181C     		mov	r0, r3
 345 0056 3F49     		ldr	r1, .L33+12
 346 0058 FFF7FEFF 		bl	__aeabi_uidiv
 347 005c 031C     		mov	r3, r0
 348 005e BB60     		str	r3, [r7, #8]
 148:.\hts.c       ****        
 149:.\hts.c       ****             /* Convert the ADC output to degrees Celsius. */
 150:.\hts.c       ****             temperatureCelsius = DieTemp_CountsTo_Celsius(ADCCountsCorrected);
 349              		.loc 1 150 0
 350 0060 BB68     		ldr	r3, [r7, #8]
 351 0062 181C     		mov	r0, r3
 352 0064 FFF7FEFF 		bl	DieTemp_CountsTo_Celsius
 353 0068 021C     		mov	r2, r0
 354 006a 3B4B     		ldr	r3, .L33+16
 355 006c 1A60     		str	r2, [r3]
 356 006e 0BE0     		b	.L26
 357              	.L25:
 151:.\hts.c       **** 
 152:.\hts.c       ****         }
 153:.\hts.c       ****         else /* Temperature Simulation */
 154:.\hts.c       ****         {
 155:.\hts.c       ****             temperatureCelsius += SIM_TEMPERATURE_INCREMENT;
 358              		.loc 1 155 0
 359 0070 394B     		ldr	r3, .L33+16
 360 0072 1B68     		ldr	r3, [r3]
 361 0074 5A1C     		add	r2, r3, #1
 362 0076 384B     		ldr	r3, .L33+16
 363 0078 1A60     		str	r2, [r3]
 156:.\hts.c       ****             if(temperatureCelsius > SIM_TEMPERATURE_MAX)
 364              		.loc 1 156 0
 365 007a 374B     		ldr	r3, .L33+16
 366 007c 1B68     		ldr	r3, [r3]
 367 007e 282B     		cmp	r3, #40
 368 0080 02DD     		ble	.L26
 157:.\hts.c       ****             {
 158:.\hts.c       ****                 temperatureCelsius = SIM_TEMPERATURE_MIN; 
 369              		.loc 1 158 0
 370 0082 354B     		ldr	r3, .L33+16
 371 0084 0F22     		mov	r2, #15
 372 0086 1A60     		str	r2, [r3]
 373              	.L26:
 159:.\hts.c       ****             }
 160:.\hts.c       ****         }
 161:.\hts.c       ****         
 162:.\hts.c       ****         /* Convert Celsius to Fahrenheit if required */
 163:.\hts.c       ****         if((temp_data[0] & CYBLE_HTS_MEAS_FLAG_TEMP_UNITS_BIT) != 0u)
ARM GAS  C:\Users\Zachary\AppData\Local\Temp\ccPQ0E02.s 			page 11


 374              		.loc 1 163 0
 375 0088 344B     		ldr	r3, .L33+20
 376 008a 1B78     		ldrb	r3, [r3]
 377 008c 1A1C     		mov	r2, r3
 378 008e 0123     		mov	r3, #1
 379 0090 1340     		and	r3, r2
 380 0092 0CD0     		beq	.L27
 164:.\hts.c       ****         {
 165:.\hts.c       ****             temperatureValue = 32 + ((temperatureCelsius * 9) / 5);
 381              		.loc 1 165 0
 382 0094 304B     		ldr	r3, .L33+16
 383 0096 1A68     		ldr	r2, [r3]
 384 0098 131C     		mov	r3, r2
 385 009a DB00     		lsl	r3, r3, #3
 386 009c 9B18     		add	r3, r3, r2
 387 009e 181C     		mov	r0, r3
 388 00a0 0521     		mov	r1, #5
 389 00a2 FFF7FEFF 		bl	__aeabi_idiv
 390 00a6 031C     		mov	r3, r0
 391 00a8 2033     		add	r3, r3, #32
 392 00aa FB60     		str	r3, [r7, #12]
 393 00ac 02E0     		b	.L28
 394              	.L27:
 166:.\hts.c       ****         }
 167:.\hts.c       ****         else
 168:.\hts.c       ****         {
 169:.\hts.c       ****             temperatureValue = temperatureCelsius;
 395              		.loc 1 169 0
 396 00ae 2A4B     		ldr	r3, .L33+16
 397 00b0 1B68     		ldr	r3, [r3]
 398 00b2 FB60     		str	r3, [r7, #12]
 399              	.L28:
 170:.\hts.c       ****         }
 171:.\hts.c       ****         
 172:.\hts.c       ****         /* Convert int32 to the IEEE-11073 FLOAT-Type.
 173:.\hts.c       ****         *  It is defined as a 32-bit value with a 24-bit mantissa and an 8-bit exponent.
 174:.\hts.c       ****         *  For the integer temperature, 24-bit value has been used with mantissa equal to 0 */
 175:.\hts.c       ****         temperatureValue &= 0x00FFFFFF;
 400              		.loc 1 175 0
 401 00b4 FB68     		ldr	r3, [r7, #12]
 402 00b6 1B02     		lsl	r3, r3, #8
 403 00b8 1B0A     		lsr	r3, r3, #8
 404 00ba FB60     		str	r3, [r7, #12]
 176:.\hts.c       **** 
 177:.\hts.c       ****         /* Copy temperature to array */
 178:.\hts.c       ****         Set32ByPtr(temp_data + 1u, (uint32)temperatureValue);
 405              		.loc 1 178 0
 406 00bc FB68     		ldr	r3, [r7, #12]
 407 00be 284A     		ldr	r2, .L33+24
 408 00c0 101C     		mov	r0, r2
 409 00c2 191C     		mov	r1, r3
 410 00c4 FFF7FEFF 		bl	Set32ByPtr
 179:.\hts.c       ****         
 180:.\hts.c       ****         /* Send temperature to client */
 181:.\hts.c       ****         apiResult = CyBle_HtssSendIndication(cyBle_connHandle, CYBLE_HTS_TEMP_MEASURE, 
 411              		.loc 1 181 0
 412 00c8 BC1D     		add	r4, r7, #6
ARM GAS  C:\Users\Zachary\AppData\Local\Temp\ccPQ0E02.s 			page 12


 413 00ca 264B     		ldr	r3, .L33+28
 414 00cc 234D     		ldr	r5, .L33+20
 415 00ce 1A78     		ldrb	r2, [r3]
 416 00d0 5B78     		ldrb	r3, [r3, #1]
 417 00d2 1B02     		lsl	r3, r3, #8
 418 00d4 1A43     		orr	r2, r3
 419 00d6 0023     		mov	r3, #0
 420 00d8 1204     		lsl	r2, r2, #16
 421 00da 120C     		lsr	r2, r2, #16
 422 00dc 1B0C     		lsr	r3, r3, #16
 423 00de 1B04     		lsl	r3, r3, #16
 424 00e0 1343     		orr	r3, r2
 425 00e2 181C     		mov	r0, r3
 426 00e4 0021     		mov	r1, #0
 427 00e6 0522     		mov	r2, #5
 428 00e8 2B1C     		mov	r3, r5
 429 00ea FFF7FEFF 		bl	CyBle_HtssSendIndication
 430 00ee 031C     		mov	r3, r0
 431 00f0 2380     		strh	r3, [r4]
 182:.\hts.c       ****                         sizeof(temp_data), temp_data);
 183:.\hts.c       ****         if(apiResult != CYBLE_ERROR_OK)
 432              		.loc 1 183 0
 433 00f2 BB1D     		add	r3, r7, #6
 434 00f4 1B88     		ldrh	r3, [r3]
 435 00f6 002B     		cmp	r3, #0
 436 00f8 0AD0     		beq	.L29
 184:.\hts.c       ****         {
 185:.\hts.c       ****             printf("CyBle_HtssSendIndication API Error: %x \r\n", apiResult);
 437              		.loc 1 185 0
 438 00fa BB1D     		add	r3, r7, #6
 439 00fc 1B88     		ldrh	r3, [r3]
 440 00fe 1A4A     		ldr	r2, .L33+32
 441 0100 101C     		mov	r0, r2
 442 0102 191C     		mov	r1, r3
 443 0104 FFF7FEFF 		bl	printf
 186:.\hts.c       ****             temperatureMeasure = DISABLED;
 444              		.loc 1 186 0
 445 0108 184B     		ldr	r3, .L33+36
 446 010a 0022     		mov	r2, #0
 447 010c 1A80     		strh	r2, [r3]
 448 010e 11E0     		b	.L30
 449              	.L29:
 187:.\hts.c       ****         }
 188:.\hts.c       ****         else
 189:.\hts.c       ****         {
 190:.\hts.c       ****             printf("MeasureTemperature: %d %c  ", (int16)temperatureValue,
 450              		.loc 1 190 0
 451 0110 FB68     		ldr	r3, [r7, #12]
 452 0112 9BB2     		uxth	r3, r3
 453 0114 1AB2     		sxth	r2, r3
 191:.\hts.c       ****             (((temp_data[0] & CYBLE_HTS_MEAS_FLAG_TEMP_UNITS_BIT) != 0u) ? 'F' : 'C'));
 454              		.loc 1 191 0
 455 0116 114B     		ldr	r3, .L33+20
 456 0118 1B78     		ldrb	r3, [r3]
 457 011a 191C     		mov	r1, r3
 458 011c 0123     		mov	r3, #1
 459 011e 0B40     		and	r3, r1
ARM GAS  C:\Users\Zachary\AppData\Local\Temp\ccPQ0E02.s 			page 13


 190:.\hts.c       ****             printf("MeasureTemperature: %d %c  ", (int16)temperatureValue,
 460              		.loc 1 190 0
 461 0120 01D0     		beq	.L31
 190:.\hts.c       ****             printf("MeasureTemperature: %d %c  ", (int16)temperatureValue,
 462              		.loc 1 190 0 is_stmt 0 discriminator 1
 463 0122 4623     		mov	r3, #70
 464 0124 00E0     		b	.L32
 465              	.L31:
 190:.\hts.c       ****             printf("MeasureTemperature: %d %c  ", (int16)temperatureValue,
 466              		.loc 1 190 0 discriminator 2
 467 0126 4323     		mov	r3, #67
 468              	.L32:
 190:.\hts.c       ****             printf("MeasureTemperature: %d %c  ", (int16)temperatureValue,
 469              		.loc 1 190 0 discriminator 3
 470 0128 1149     		ldr	r1, .L33+40
 471 012a 081C     		mov	r0, r1
 472 012c 111C     		mov	r1, r2
 473 012e 1A1C     		mov	r2, r3
 474 0130 FFF7FEFF 		bl	printf
 475              	.L30:
 192:.\hts.c       ****         }
 193:.\hts.c       ****         
 194:.\hts.c       ****         /* Toggle the temperature unit flag on each temperature update */
 195:.\hts.c       ****         temp_data[0] ^= CYBLE_HTS_MEAS_FLAG_TEMP_UNITS_BIT;
 476              		.loc 1 195 0 is_stmt 1
 477 0134 094B     		ldr	r3, .L33+20
 478 0136 1B78     		ldrb	r3, [r3]
 479 0138 0122     		mov	r2, #1
 480 013a 5340     		eor	r3, r2
 481 013c DAB2     		uxtb	r2, r3
 482 013e 074B     		ldr	r3, .L33+20
 483 0140 1A70     		strb	r2, [r3]
 484              	.L23:
 196:.\hts.c       ****     }
 197:.\hts.c       **** }
 485              		.loc 1 197 0
 486 0142 BD46     		mov	sp, r7
 487 0144 04B0     		add	sp, sp, #16
 488              		@ sp needed
 489 0146 B0BD     		pop	{r4, r5, r7, pc}
 490              	.L34:
 491              		.align	2
 492              	.L33:
 493 0148 00000000 		.word	initialMeasurementInterval
 494 014c 00000000 		.word	temperatureTimer
 495 0150 06000000 		.word	measure.7484
 496 0154 B80B0000 		.word	3000
 497 0158 0C000000 		.word	temperatureCelsius.7483
 498 015c 00000000 		.word	temp_data
 499 0160 01000000 		.word	temp_data+1
 500 0164 00000000 		.word	cyBle_connHandle
 501 0168 EC000000 		.word	.LC24
 502 016c 00000000 		.word	temperatureMeasure
 503 0170 18010000 		.word	.LC27
 504              		.cfi_endproc
 505              	.LFE36:
 506              		.size	MeasureTemperature, .-MeasureTemperature
ARM GAS  C:\Users\Zachary\AppData\Local\Temp\ccPQ0E02.s 			page 14


 507              		.data
 508              		.type	measure.7484, %object
 509              		.size	measure.7484, 1
 510              	measure.7484:
 511 0006 01       		.byte	1
 512 0007 00       		.bss
 513 0009 000000   		.align	2
 514              	temperatureCelsius.7483:
 515 000c 00000000 		.space	4
 516              		.text
 517              	.Letext0:
 518              		.file 2 ".\\Generated_Source\\PSoC4/cytypes.h"
 519              		.file 3 ".\\Generated_Source\\PSoC4/BLE_Stack.h"
 520              		.file 4 ".\\Generated_Source\\PSoC4/BLE_StackGatt.h"
 521              		.file 5 ".\\Generated_Source\\PSoC4/BLE_dis.h"
 522              		.file 6 ".\\Generated_Source\\PSoC4/BLE_hts.h"
 523              		.file 7 ".\\Generated_Source\\PSoC4/BLE_eventHandler.h"
 524              		.file 8 ".\\common.h"